
F256Archon.elf:	file format elf32-mos

SYMBOL TABLE:
00000000 l    df *ABS*	00000000 zero-bss.c
00000000 l    df *ABS*	00000000 zero-zp-bss.c
00000000 l    df *ABS*	00000000 copy-zp-data.c
00000000 l    df *ABS*	00000000 ld-temp.o
00000564 l     F .text	00000035 f256Init
00000599 l     F .text	00000009 kernelReset
000005a2 l     F .text	00000104 graphicsReset
000006a6 l     F .text	0000017a textReset
00000820 l     F .text	00000236 bitmapReset
00000a56 l     F .text	00000017 tileReset
00000a6d l     F .text	00000068 spriteReset
00000ad5 l     F .text	0000005a fileReset
00000b2f l     F .text	0000007e randomReset
0000004d l     O .zp.bss	00000007 kernelEventData
00001484 l     F .text	00000207 graphicsDefineColor
0000168b l     F .text	00000099 graphicsSetLayerBitmap
00000ea2 l     F .text	00000096 textSetDouble
00000f38 l     F .text	00000044 textSetCursor
00006a91 l     O .rodata	00000030 textColors
00000f7c l     F .text	0000016a textDefineForegroundColor
000010e6 l     F .text	0000016a textDefineBackgroundColor
00001250 l     F .text	000001e4 textClear
00000bad l     F .text	00000079 mathUnsignedMultiply
00000041 l     O .zp.bss	00000004 _PAGE_SIZE
00000040 l     O .zp.bss	00000001 _active
00000034 l     O .zp.bss	0000000c _BITMAP_BASE
00000045 l     O .zp.bss	00000003 _BITMAP_CLUT
00000dc7 l     F .text	000000db bitmapSetVisible
00000048 l     O .zp.bss	00000001 _tileSize.0
00000049 l     O .zp.bss	00000001 _tileSize.1
0000004a l     O .zp.bss	00000001 _tileSize.2
00000ce2 l     F .text	000000e5 tileSetVisible
00000c66 l     F .text	0000007c spriteSetVisible
00006af3 l     O .bss	00000001 kernelError
00000c26 l     F .text	00000040 randomSeed
00000030 l     O .zp.data	00000001 _MAX_COL
00000031 l     O .zp.data	00000001 _MAX_ROW
00001434 l     F .text	00000050 textGotoXY
00000032 l     O .zp.bss	00000001 _col
00000033 l     O .zp.bss	00000001 _row
00001724 l     F .text	0000001b f256Reset
0000173f l     F .text	000000bb FAR_PEEK
000017fa l     F .text	000000c1 FAR_POKE
00001900 l     F .text	00000149 f256main
00005a45 l     F .text	00000bbc printf
00001a49 l     F .text	00000231 setup
000024b4 l     F .text	0000034e bitmapTitleFallRise
000034c7 l     F .text	000005ac playEmbeddedDim
00002802 l     F .text	00000117 midiShutAllChannels
000056b5 l     F .text	0000001b openAllCODEC
00001c7a l     F .text	0000002a bitmapSetActive
00001ca4 l     F .text	000000fd bitmapSetAddress
00001da1 l     F .text	00000074 bitmapSetCLUT
00002965 l     F .text	000000f4 resetInstruments
00002919 l     F .text	0000004c midiShutUp
00001e15 l     F .text	000000b7 mathUnsignedAddition
00001ecc l     F .text	000005b9 textPrint
0000004b l     O .zp.bss	00000002 __putchar.s
000069ac l     F .text	00000032 __mulhi3
00002485 l     F .text	0000002f __putchar
00005757 l     F .text	00000062 getTimerAbsolute
000056d0 l     F .text	00000087 setTimer
000069de l     F .text	00000070 __mulsi3
00002a59 l     F .text	000002bd initMidiRecord
00006601 l     F .text	000001cf malloc
00002d16 l     F .text	00000088 initBigList
00002d9e l     F .text	000001c2 getTotalLeft
00002f60 l     F .text	000000b3 checkKeySkip
00003013 l     F .text	00000139 sendAME
0000314c l     F .text	0000037b adjustOffsets
000067d0 l     F .text	00000190 free
00003a73 l     F .text	00000778 playmiditype0
000041eb l     F .text	000014ca playmidi
000057b9 l     F .text	00000094 setTimer0
0000585d l     F .text	00000006 isTimer0Done
0000584d l     F .text	00000010 resetTimer0
00005868 l     F .text	000000d1 _ZN12_GLOBAL__N_13putEcP6Status
00005939 l     F .text	0000010c _ZN12_GLOBAL__N_112print_stringEPKcP6Status
00000054 l     O .zp.bss	00000001 _ZN12_GLOBAL__N_111initializedE
0000031a l     F .text	00000135 _ZN12_GLOBAL__N_19FreeChunk6insertEPvj
00000055 l     O .zp.bss	00000001 _ZN12_GLOBAL__N_19last_freeE
00000058 l     O .zp.bss	00000002 _ZN12_GLOBAL__N_19free_listE
00000450 l     F .text	000000d7 _ZN12_GLOBAL__N_19FreeChunk6removeEv
00000056 l     O .zp.bss	00000002 _ZN12_GLOBAL__N_19free_sizeE
000018bb g     F .text	00000045 main
00010400 g       .paltitle	00000000 paltitle_start
00051fca g       .music	00000000 music_end
00023000 g       .paltitle	00000000 paltitle_end
00010400 g       .title	00000000 title_end
00050000 g       .music	00000000 music_start
00010000 g       .title	00000000 title_start
00000316 g       .text	00000000 __after_main
00000302 g       .text	00000000 __do_init_stack
00000310 g       .text	00000000 __do_copy_zp_data
0000054d g     F .text	00000017 __copy_zp_data
0000030a g       .text	00000000 __do_zero_bss
00000527 g     F .text	00000013 __zero_bss
0000030d g       .text	00000000 __do_zero_zp_bss
0000053a g     F .text	00000013 __zero_zp_bss
00005863 g     F .text	00000005 exit
00000319 g       .text	00000000 _fini
00006a4e g       .rodata	00000000 __set_v
0000698c  w    F .text	00000020 __memset
00001000  w      *ABS*	00000000 __heap_default_limit
00006af4 g       .noinit	00000000 __heap_start
00006960  w    F .text	0000002c memcpy
00000010 g       *ABS*	00000000 __rc0
00000012 g       *ABS*	00000000 __rc2
00000014 g       *ABS*	00000000 __rc4
00000016 g       *ABS*	00000000 __rc6
00000018 g       *ABS*	00000000 __rc8
0000001a g       *ABS*	00000000 __rc10
0000001c g       *ABS*	00000000 __rc12
0000001e g       *ABS*	00000000 __rc14
00000020 g       *ABS*	00000000 __rc16
00000022 g       *ABS*	00000000 __rc18
00000024 g       *ABS*	00000000 __rc20
00000026 g       *ABS*	00000000 __rc22
00000028 g       *ABS*	00000000 __rc24
0000002a g       *ABS*	00000000 __rc26
0000002c g       *ABS*	00000000 __rc28
0000002e g       *ABS*	00000000 __rc30
0000002f g       *ABS*	00000000 __rc31
00000300 g       *ABS*	00000000 __f256_start
0000c000 g       *ABS*	00000000 __stack
0000c000 g       *ABS*	00000000 __SLOT_ADDR
0800c000 g       *ABS*	00000000 __block8_lma
00002000 g       *ABS*	00000000 __BLOCK_SIZE
0900c000 g       *ABS*	00000000 __block9_lma
0a00c000 g       *ABS*	00000000 __block10_lma
0b00c000 g       *ABS*	00000000 __block11_lma
0c00c000 g       *ABS*	00000000 __block12_lma
0d00c000 g       *ABS*	00000000 __block13_lma
0e00c000 g       *ABS*	00000000 __block14_lma
0f00c000 g       *ABS*	00000000 __block15_lma
1000c000 g       *ABS*	00000000 __block16_lma
1100c000 g       *ABS*	00000000 __block17_lma
1200c000 g       *ABS*	00000000 __block18_lma
1300c000 g       *ABS*	00000000 __block19_lma
1400c000 g       *ABS*	00000000 __block20_lma
1500c000 g       *ABS*	00000000 __block21_lma
1600c000 g       *ABS*	00000000 __block22_lma
1700c000 g       *ABS*	00000000 __block23_lma
00010000 g       *ABS*	00000000 __title_lma
00000400 g       *ABS*	00000000 __title_size
00010400 g       *ABS*	00000000 __paltitle_lma
00012c00 g       *ABS*	00000000 __paltitle_size
00050000 g       *ABS*	00000000 __music_lma
00001fca g       *ABS*	00000000 __music_size
00006af3 g       .bss	00000000 __bss_start
00010400 g       .title	00000000 end_title
00023000 g       .paltitle	00000000 end_paltitle
00051fca g       .music	00000000 end_music
00000302 g       .text	00000000 _start
0000002d g       *ABS*	00000000 __rc29
0000002b g       *ABS*	00000000 __rc27
00000029 g       *ABS*	00000000 __rc25
00000027 g       *ABS*	00000000 __rc23
00000025 g       *ABS*	00000000 __rc21
00000023 g       *ABS*	00000000 __rc19
00000021 g       *ABS*	00000000 __rc17
0000001f g       *ABS*	00000000 __rc15
0000001d g       *ABS*	00000000 __rc13
0000001b g       *ABS*	00000000 __rc11
00000019 g       *ABS*	00000000 __rc9
00000017 g       *ABS*	00000000 __rc7
00000015 g       *ABS*	00000000 __rc5
00000013 g       *ABS*	00000000 __rc3
00000011 g       *ABS*	00000000 __rc1
00000030 g       .zp.data	00000000 __zp_data_start
00000300 g       *ABS*	00000000 __zp_data_load_start
00000002 g       *ABS*	00000000 __zp_data_size
00000032 g       .zp.bss	00000000 __zp_bss_start
00000028 g       *ABS*	00000000 __zp_bss_size
00000302 g       .text	00000000 _init
00006a4e g       .text	00000000 __init_array_start
00006a4e g       .text	00000000 __init_array_end
00006a4e g       .text	00000000 __fini_array_start
00006a4e g       .text	00000000 __fini_array_end
00006af3 g       .data	00000000 __data_start
00006af3 g       .data	00000000 __data_end
00006af3 g       *ABS*	00000000 __data_load_start
00000000 g       *ABS*	00000000 __data_size
00006af4 g       .bss	00000000 __bss_end
00000001 g       *ABS*	00000000 __bss_size
00006af4 g       .noinit	00000000 end_block8
00006af4 g       .noinit	00000000 end_block9
00006af4 g       .noinit	00000000 end_block10
00006af4 g       .noinit	00000000 end_block11
00006af4 g       .noinit	00000000 end_block12
00006af4 g       .noinit	00000000 end_block13
00006af4 g       .noinit	00000000 end_block14
00006af4 g       .noinit	00000000 end_block15
00006af4 g       .noinit	00000000 end_block16
00006af4 g       .noinit	00000000 end_block17
00006af4 g       .noinit	00000000 end_block18
00006af4 g       .noinit	00000000 end_block19
00006af4 g       .noinit	00000000 end_block20
00006af4 g       .noinit	00000000 end_block21
00006af4 g       .noinit	00000000 end_block22
00006af4 g       .noinit	00000000 end_block23

Disassembly of section .text:

00000302 <_start>:
     302: a9 00        	lda	#$0
     304: 85 10        	sta	$10                     ; 0x2010 <textPrint+0x144>
     306: a9 c0        	lda	#$c0
     308: 85 11        	sta	$11                     ; 0x2011 <textPrint+0x145>

0000030a <__do_zero_bss>:
     30a: 20 27 05     	jsr	$527 <__zero_bss>

0000030d <__do_zero_zp_bss>:
     30d: 20 3a 05     	jsr	$53a <__zero_zp_bss>

00000310 <__do_copy_zp_data>:
     310: 20 4d 05     	jsr	$54d <__copy_zp_data>
     313: 20 bb 18     	jsr	$18bb <main>

00000316 <__after_main>:
     316: 4c 63 58     	jmp	$5863 <exit>

00000319 <_fini>:
     319: 60           	rts

0000031a <_ZN12_GLOBAL__N_19FreeChunk6insertEPvj>:
     31a: 85 16        	sta	$16                     ; 0x2016 <textPrint+0x14a>
     31c: 29 fe        	and	#$fe
     31e: 85 14        	sta	$14                     ; 0x2014 <textPrint+0x148>
     320: a0 01        	ldy	#$1
     322: 98           	tya
     323: 32 12        	and	($12)                   ; 0x2012 <textPrint+0x146>
     325: 05 14        	ora	$14                     ; 0x2014 <textPrint+0x148>
     327: 92 12        	sta	($12)                   ; 0x2012 <textPrint+0x146>
     329: a5 12        	lda	$12                     ; 0x2012 <textPrint+0x146>
     32b: 18           	clc
     32c: 65 14        	adc	$14                     ; 0x2014 <textPrint+0x148>
     32e: 85 15        	sta	$15                     ; 0x2015 <textPrint+0x149>
     330: 8a           	txa
     331: 65 13        	adc	$13                     ; 0x2013 <textPrint+0x147>
     333: 85 14        	sta	$14                     ; 0x2014 <textPrint+0x148>
     335: 18           	clc
     336: a5 15        	lda	$15                     ; 0x2015 <textPrint+0x149>
     338: 69 fe        	adc	#$fe
     33a: 85 17        	sta	$17                     ; 0x2017 <textPrint+0x14b>
     33c: a5 14        	lda	$14                     ; 0x2014 <textPrint+0x148>
     33e: 69 ff        	adc	#$ff
     340: 85 15        	sta	$15                     ; 0x2015 <textPrint+0x149>
     342: a5 17        	lda	$17                     ; 0x2017 <textPrint+0x14b>
     344: 85 14        	sta	$14                     ; 0x2014 <textPrint+0x148>
     346: 8a           	txa
     347: 91 12        	sta	($12),y                 ; 0x2012 <textPrint+0x146>
     349: a5 16        	lda	$16                     ; 0x2016 <textPrint+0x14a>
     34b: 92 14        	sta	($14)                   ; 0x2014 <textPrint+0x148>
     34d: 8a           	txa
     34e: 91 14        	sta	($14),y                 ; 0x2014 <textPrint+0x148>
     350: b1 12        	lda	($12),y                 ; 0x2012 <textPrint+0x146>
     352: 85 14        	sta	$14                     ; 0x2014 <textPrint+0x148>
     354: a9 fe        	lda	#$fe
     356: 32 12        	and	($12)                   ; 0x2012 <textPrint+0x146>
     358: 18           	clc
     359: 65 56        	adc	$56                     ; 0x2056 <textPrint+0x18a>
     35b: aa           	tax
     35c: a5 14        	lda	$14                     ; 0x2014 <textPrint+0x148>
     35e: 65 57        	adc	$57                     ; 0x2057 <textPrint+0x18b>
     360: a8           	tay
     361: 18           	clc
     362: 8a           	txa
     363: 69 fe        	adc	#$fe
     365: aa           	tax
     366: 98           	tya
     367: 69 ff        	adc	#$ff
     369: 86 56        	stx	$56                     ; 0x2056 <textPrint+0x18a>
     36b: 85 57        	sta	$57                     ; 0x2057 <textPrint+0x18b>
     36d: a6 58        	ldx	$58                     ; 0x2058 <textPrint+0x18c>
     36f: 86 16        	stx	$16                     ; 0x2016 <textPrint+0x14a>
     371: a4 59        	ldy	$59                     ; 0x2059 <textPrint+0x18d>
     373: a2 00        	ldx	#$0
     375: 86 14        	stx	$14                     ; 0x2014 <textPrint+0x148>
     377: a2 00        	ldx	#$0
     379: 86 15        	stx	$15                     ; 0x2015 <textPrint+0x149>
     37b: c4 15        	cpy	$15                     ; 0x2015 <textPrint+0x149>
     37d: d0 3c        	bne	$3bb <_ZN12_GLOBAL__N_19FreeChunk6insertEPvj+0xa1>
     37f: a6 16        	ldx	$16                     ; 0x2016 <textPrint+0x14a>
     381: e4 14        	cpx	$14                     ; 0x2014 <textPrint+0x148>
     383: d0 36        	bne	$3bb <_ZN12_GLOBAL__N_19FreeChunk6insertEPvj+0xa1>
     385: a0 04        	ldy	#$4
     387: a5 12        	lda	$12                     ; 0x2012 <textPrint+0x146>
     389: 18           	clc
     38a: 69 04        	adc	#$4
     38c: 85 14        	sta	$14                     ; 0x2014 <textPrint+0x148>
     38e: a5 13        	lda	$13                     ; 0x2013 <textPrint+0x147>
     390: 69 00        	adc	#$0
     392: 18           	clc
     393: 85 15        	sta	$15                     ; 0x2015 <textPrint+0x149>
     395: a5 12        	lda	$12                     ; 0x2012 <textPrint+0x146>
     397: 91 12        	sta	($12),y                 ; 0x2012 <textPrint+0x146>
     399: a0 02        	ldy	#$2
     39b: 85 17        	sta	$17                     ; 0x2017 <textPrint+0x14b>
     39d: 69 02        	adc	#$2
     39f: 85 16        	sta	$16                     ; 0x2016 <textPrint+0x14a>
     3a1: a5 17        	lda	$17                     ; 0x2017 <textPrint+0x14b>
     3a3: 91 12        	sta	($12),y                 ; 0x2012 <textPrint+0x146>
     3a5: a5 13        	lda	$13                     ; 0x2013 <textPrint+0x147>
     3a7: 69 00        	adc	#$0
     3a9: 85 17        	sta	$17                     ; 0x2017 <textPrint+0x14b>
     3ab: 88           	dey
     3ac: a5 13        	lda	$13                     ; 0x2013 <textPrint+0x147>
     3ae: 91 14        	sta	($14),y                 ; 0x2014 <textPrint+0x148>
     3b0: 91 16        	sta	($16),y                 ; 0x2016 <textPrint+0x14a>
     3b2: a6 12        	ldx	$12                     ; 0x2012 <textPrint+0x146>
     3b4: 86 58        	stx	$58                     ; 0x2058 <textPrint+0x18c>
     3b6: a6 13        	ldx	$13                     ; 0x2013 <textPrint+0x147>
     3b8: 86 59        	stx	$59                     ; 0x2059 <textPrint+0x18d>
     3ba: 60           	rts
     3bb: a6 12        	ldx	$12                     ; 0x2012 <textPrint+0x146>
     3bd: a5 12        	lda	$12                     ; 0x2012 <textPrint+0x146>
     3bf: 18           	clc
     3c0: 69 02        	adc	#$2
     3c2: 85 14        	sta	$14                     ; 0x2014 <textPrint+0x148>
     3c4: 84 18        	sty	$18                     ; 0x2018 <textPrint+0x14c>
     3c6: a5 13        	lda	$13                     ; 0x2013 <textPrint+0x147>
     3c8: 69 00        	adc	#$0
     3ca: 85 15        	sta	$15                     ; 0x2015 <textPrint+0x149>
     3cc: a5 16        	lda	$16                     ; 0x2016 <textPrint+0x14a>
     3ce: 84 17        	sty	$17                     ; 0x2017 <textPrint+0x14b>
     3d0: a0 02        	ldy	#$2
     3d2: 91 12        	sta	($12),y                 ; 0x2012 <textPrint+0x146>
     3d4: 85 19        	sta	$19                     ; 0x2019 <textPrint+0x14d>
     3d6: 88           	dey
     3d7: a5 18        	lda	$18                     ; 0x2018 <textPrint+0x14c>
     3d9: 91 14        	sta	($14),y                 ; 0x2014 <textPrint+0x148>
     3db: 18           	clc
     3dc: a5 19        	lda	$19                     ; 0x2019 <textPrint+0x14d>
     3de: 69 04        	adc	#$4
     3e0: a8           	tay
     3e1: a5 18        	lda	$18                     ; 0x2018 <textPrint+0x14c>
     3e3: 69 00        	adc	#$0
     3e5: 85 19        	sta	$19                     ; 0x2019 <textPrint+0x14d>
     3e7: 84 18        	sty	$18                     ; 0x2018 <textPrint+0x14c>
     3e9: 8a           	txa
     3ea: 18           	clc
     3eb: 69 04        	adc	#$4
     3ed: 85 1a        	sta	$1a                     ; 0x201a <textPrint+0x14e>
     3ef: a5 13        	lda	$13                     ; 0x2013 <textPrint+0x147>
     3f1: 69 00        	adc	#$0
     3f3: 85 1b        	sta	$1b                     ; 0x201b <textPrint+0x14f>
     3f5: a0 04        	ldy	#$4
     3f7: b1 16        	lda	($16),y                 ; 0x2016 <textPrint+0x14a>
     3f9: 85 16        	sta	$16                     ; 0x2016 <textPrint+0x14a>
     3fb: 85 1d        	sta	$1d                     ; 0x201d <textPrint+0x151>
     3fd: a0 01        	ldy	#$1
     3ff: b1 18        	lda	($18),y                 ; 0x2018 <textPrint+0x14c>
     401: 85 17        	sta	$17                     ; 0x2017 <textPrint+0x14b>
     403: 85 19        	sta	$19                     ; 0x2019 <textPrint+0x14d>
     405: a0 04        	ldy	#$4
     407: a5 1d        	lda	$1d                     ; 0x201d <textPrint+0x151>
     409: 91 12        	sta	($12),y                 ; 0x2012 <textPrint+0x146>
     40b: a5 19        	lda	$19                     ; 0x2019 <textPrint+0x14d>
     40d: a0 01        	ldy	#$1
     40f: 91 1a        	sta	($1a),y                 ; 0x201a <textPrint+0x14e>
     411: 18           	clc
     412: a5 1d        	lda	$1d                     ; 0x201d <textPrint+0x151>
     414: 69 02        	adc	#$2
     416: 85 18        	sta	$18                     ; 0x2018 <textPrint+0x14c>
     418: a5 19        	lda	$19                     ; 0x2019 <textPrint+0x14d>
     41a: 69 00        	adc	#$0
     41c: 85 19        	sta	$19                     ; 0x2019 <textPrint+0x14d>
     41e: 8a           	txa
     41f: c8           	iny
     420: 91 16        	sta	($16),y                 ; 0x2016 <textPrint+0x14a>
     422: a5 13        	lda	$13                     ; 0x2013 <textPrint+0x147>
     424: 88           	dey
     425: 91 18        	sta	($18),y                 ; 0x2018 <textPrint+0x14c>
     427: c8           	iny
     428: b1 12        	lda	($12),y                 ; 0x2012 <textPrint+0x146>
     42a: 85 16        	sta	$16                     ; 0x2016 <textPrint+0x14a>
     42c: 85 18        	sta	$18                     ; 0x2018 <textPrint+0x14c>
     42e: 88           	dey
     42f: b1 14        	lda	($14),y                 ; 0x2014 <textPrint+0x148>
     431: 85 17        	sta	$17                     ; 0x2017 <textPrint+0x14b>
     433: 85 14        	sta	$14                     ; 0x2014 <textPrint+0x148>
     435: 8a           	txa
     436: a0 04        	ldy	#$4
     438: 91 16        	sta	($16),y                 ; 0x2016 <textPrint+0x14a>
     43a: 18           	clc
     43b: a5 18        	lda	$18                     ; 0x2018 <textPrint+0x14c>
     43d: 69 04        	adc	#$4
     43f: a8           	tay
     440: a5 14        	lda	$14                     ; 0x2014 <textPrint+0x148>
     442: 69 00        	adc	#$0
     444: 84 14        	sty	$14                     ; 0x2014 <textPrint+0x148>
     446: 85 15        	sta	$15                     ; 0x2015 <textPrint+0x149>
     448: a5 13        	lda	$13                     ; 0x2013 <textPrint+0x147>
     44a: a0 01        	ldy	#$1
     44c: 91 14        	sta	($14),y                 ; 0x2014 <textPrint+0x148>
     44e: 60           	rts
     44f: 00           	brk

00000450 <_ZN12_GLOBAL__N_19FreeChunk6removeEv>:
     450: a0 01        	ldy	#$1
     452: a9 fe        	lda	#$fe
     454: 32 12        	and	($12)                   ; 0x2012 <textPrint+0x146>
     456: 85 14        	sta	$14                     ; 0x2014 <textPrint+0x148>
     458: a5 56        	lda	$56                     ; 0x2056 <textPrint+0x18a>
     45a: a6 57        	ldx	$57                     ; 0x2057 <textPrint+0x18b>
     45c: 86 15        	stx	$15                     ; 0x2015 <textPrint+0x149>
     45e: 38           	sec
     45f: e5 14        	sbc	$14                     ; 0x2014 <textPrint+0x148>
     461: aa           	tax
     462: a5 15        	lda	$15                     ; 0x2015 <textPrint+0x149>
     464: f1 12        	sbc	($12),y                 ; 0x2012 <textPrint+0x146>
     466: 85 14        	sta	$14                     ; 0x2014 <textPrint+0x148>
     468: 18           	clc
     469: 8a           	txa
     46a: 69 02        	adc	#$2
     46c: 85 15        	sta	$15                     ; 0x2015 <textPrint+0x149>
     46e: a5 14        	lda	$14                     ; 0x2014 <textPrint+0x148>
     470: 69 00        	adc	#$0
     472: a6 15        	ldx	$15                     ; 0x2015 <textPrint+0x149>
     474: 86 56        	stx	$56                     ; 0x2056 <textPrint+0x18a>
     476: 85 57        	sta	$57                     ; 0x2057 <textPrint+0x18b>
     478: a5 12        	lda	$12                     ; 0x2012 <textPrint+0x146>
     47a: 18           	clc
     47b: 69 02        	adc	#$2
     47d: 85 14        	sta	$14                     ; 0x2014 <textPrint+0x148>
     47f: a5 13        	lda	$13                     ; 0x2013 <textPrint+0x147>
     481: 69 00        	adc	#$0
     483: c8           	iny
     484: 85 15        	sta	$15                     ; 0x2015 <textPrint+0x149>
     486: b1 12        	lda	($12),y                 ; 0x2012 <textPrint+0x146>
     488: aa           	tax
     489: 88           	dey
     48a: b1 14        	lda	($14),y                 ; 0x2014 <textPrint+0x148>
     48c: 85 19        	sta	$19                     ; 0x2019 <textPrint+0x14d>
     48e: c5 13        	cmp	$13                     ; 0x2013 <textPrint+0x147>
     490: d0 0f        	bne	$4a1 <_ZN12_GLOBAL__N_19FreeChunk6removeEv+0x51>
     492: e4 12        	cpx	$12                     ; 0x2012 <textPrint+0x146>
     494: d0 0b        	bne	$4a1 <_ZN12_GLOBAL__N_19FreeChunk6removeEv+0x51>
     496: a2 00        	ldx	#$0
     498: 86 14        	stx	$14                     ; 0x2014 <textPrint+0x148>
     49a: a2 00        	ldx	#$0
     49c: 86 15        	stx	$15                     ; 0x2015 <textPrint+0x149>
     49e: 4c 1e 05     	jmp	$51e <_ZN12_GLOBAL__N_19FreeChunk6removeEv+0xce>
     4a1: 86 18        	stx	$18                     ; 0x2018 <textPrint+0x14c>
     4a3: a6 12        	ldx	$12                     ; 0x2012 <textPrint+0x146>
     4a5: a5 12        	lda	$12                     ; 0x2012 <textPrint+0x146>
     4a7: 86 1b        	stx	$1b                     ; 0x201b <textPrint+0x14f>
     4a9: 18           	clc
     4aa: 69 04        	adc	#$4
     4ac: 85 14        	sta	$14                     ; 0x2014 <textPrint+0x148>
     4ae: a5 13        	lda	$13                     ; 0x2013 <textPrint+0x147>
     4b0: 69 00        	adc	#$0
     4b2: a0 04        	ldy	#$4
     4b4: 85 15        	sta	$15                     ; 0x2015 <textPrint+0x149>
     4b6: b1 12        	lda	($12),y                 ; 0x2012 <textPrint+0x146>
     4b8: 85 1c        	sta	$1c                     ; 0x201c <textPrint+0x150>
     4ba: 18           	clc
     4bb: 69 02        	adc	#$2
     4bd: 85 16        	sta	$16                     ; 0x2016 <textPrint+0x14a>
     4bf: a0 01        	ldy	#$1
     4c1: b1 14        	lda	($14),y                 ; 0x2014 <textPrint+0x148>
     4c3: aa           	tax
     4c4: 69 00        	adc	#$0
     4c6: a4 16        	ldy	$16                     ; 0x2016 <textPrint+0x14a>
     4c8: 84 14        	sty	$14                     ; 0x2014 <textPrint+0x148>
     4ca: 85 15        	sta	$15                     ; 0x2015 <textPrint+0x149>
     4cc: a4 1c        	ldy	$1c                     ; 0x201c <textPrint+0x150>
     4ce: 84 16        	sty	$16                     ; 0x2016 <textPrint+0x14a>
     4d0: 86 17        	stx	$17                     ; 0x2017 <textPrint+0x14b>
     4d2: a0 02        	ldy	#$2
     4d4: a5 18        	lda	$18                     ; 0x2018 <textPrint+0x14c>
     4d6: 91 16        	sta	($16),y                 ; 0x2016 <textPrint+0x14a>
     4d8: a5 19        	lda	$19                     ; 0x2019 <textPrint+0x14d>
     4da: 88           	dey
     4db: 91 14        	sta	($14),y                 ; 0x2014 <textPrint+0x148>
     4dd: 18           	clc
     4de: a5 1b        	lda	$1b                     ; 0x201b <textPrint+0x14f>
     4e0: 69 02        	adc	#$2
     4e2: 85 14        	sta	$14                     ; 0x2014 <textPrint+0x148>
     4e4: a5 13        	lda	$13                     ; 0x2013 <textPrint+0x147>
     4e6: 69 00        	adc	#$0
     4e8: 85 15        	sta	$15                     ; 0x2015 <textPrint+0x149>
     4ea: c8           	iny
     4eb: b1 12        	lda	($12),y                 ; 0x2012 <textPrint+0x146>
     4ed: 85 16        	sta	$16                     ; 0x2016 <textPrint+0x14a>
     4ef: 88           	dey
     4f0: b1 14        	lda	($14),y                 ; 0x2014 <textPrint+0x148>
     4f2: a4 16        	ldy	$16                     ; 0x2016 <textPrint+0x14a>
     4f4: 84 14        	sty	$14                     ; 0x2014 <textPrint+0x148>
     4f6: 85 15        	sta	$15                     ; 0x2015 <textPrint+0x149>
     4f8: 85 17        	sta	$17                     ; 0x2017 <textPrint+0x14b>
     4fa: a0 04        	ldy	#$4
     4fc: a5 1c        	lda	$1c                     ; 0x201c <textPrint+0x150>
     4fe: 91 14        	sta	($14),y                 ; 0x2014 <textPrint+0x148>
     500: 18           	clc
     501: a5 16        	lda	$16                     ; 0x2016 <textPrint+0x14a>
     503: 69 04        	adc	#$4
     505: 85 16        	sta	$16                     ; 0x2016 <textPrint+0x14a>
     507: a5 17        	lda	$17                     ; 0x2017 <textPrint+0x14b>
     509: 69 00        	adc	#$0
     50b: 85 17        	sta	$17                     ; 0x2017 <textPrint+0x14b>
     50d: 8a           	txa
     50e: a0 01        	ldy	#$1
     510: 91 16        	sta	($16),y                 ; 0x2016 <textPrint+0x14a>
     512: a6 59        	ldx	$59                     ; 0x2059 <textPrint+0x18d>
     514: e4 13        	cpx	$13                     ; 0x2013 <textPrint+0x147>
     516: d0 0e        	bne	$526 <_ZN12_GLOBAL__N_19FreeChunk6removeEv+0xd6>
     518: a6 58        	ldx	$58                     ; 0x2058 <textPrint+0x18c>
     51a: e4 12        	cpx	$12                     ; 0x2012 <textPrint+0x146>
     51c: d0 08        	bne	$526 <_ZN12_GLOBAL__N_19FreeChunk6removeEv+0xd6>
     51e: a6 14        	ldx	$14                     ; 0x2014 <textPrint+0x148>
     520: a4 15        	ldy	$15                     ; 0x2015 <textPrint+0x149>
     522: 86 58        	stx	$58                     ; 0x2058 <textPrint+0x18c>
     524: 84 59        	sty	$59                     ; 0x2059 <textPrint+0x18d>
     526: 60           	rts

00000527 <__zero_bss>:
     527: a2 01        	ldx	#$1
     529: a0 00        	ldy	#$0
     52b: a9 f3        	lda	#$f3
     52d: 85 12        	sta	$12                     ; 0x2012 <textPrint+0x146>
     52f: a9 6a        	lda	#$6a
     531: 85 13        	sta	$13                     ; 0x2013 <textPrint+0x147>
     533: a9 00        	lda	#$0
     535: 84 14        	sty	$14                     ; 0x2014 <textPrint+0x148>
     537: 4c 8c 69     	jmp	$698c <__memset>

0000053a <__zero_zp_bss>:
     53a: a2 28        	ldx	#$28
     53c: a0 00        	ldy	#$0
     53e: a9 32        	lda	#$32
     540: 85 12        	sta	$12                     ; 0x2012 <textPrint+0x146>
     542: a9 00        	lda	#$0
     544: 85 13        	sta	$13                     ; 0x2013 <textPrint+0x147>
     546: a9 00        	lda	#$0
     548: 84 14        	sty	$14                     ; 0x2014 <textPrint+0x148>
     54a: 4c 8c 69     	jmp	$698c <__memset>

0000054d <__copy_zp_data>:
     54d: a9 02        	lda	#$2
     54f: a2 00        	ldx	#$0
     551: a0 30        	ldy	#$30
     553: 84 12        	sty	$12                     ; 0x2012 <textPrint+0x146>
     555: a0 00        	ldy	#$0
     557: 84 13        	sty	$13                     ; 0x2013 <textPrint+0x147>
     559: a0 00        	ldy	#$0
     55b: 84 14        	sty	$14                     ; 0x2014 <textPrint+0x148>
     55d: a0 03        	ldy	#$3
     55f: 84 15        	sty	$15                     ; 0x2015 <textPrint+0x149>
     561: 4c 60 69     	jmp	$6960 <memcpy>

00000564 <f256Init>:
     564: 64 01        	stz	$1                      ; 0x2001 <textPrint+0x135>
     566: a2 3f        	ldx	#$3f
     568: 8e 00 d0     	stx	$d000                   ; 0xd000 <end_block9+0x650c>
     56b: a2 b3        	ldx	#$b3
     56d: 86 00        	stx	$0                      ; 0x2000 <textPrint+0x134>
     56f: 64 08        	stz	$8                      ; 0x2008 <textPrint+0x13c>
     571: a2 01        	ldx	#$1
     573: 86 09        	stx	$9                      ; 0x2009 <textPrint+0x13d>
     575: e8           	inx
     576: 86 0a        	stx	$a                      ; 0x200a <textPrint+0x13e>
     578: e8           	inx
     579: 86 0b        	stx	$b                      ; 0x200b <textPrint+0x13f>
     57b: e8           	inx
     57c: 86 0c        	stx	$c                      ; 0x200c <textPrint+0x140>
     57e: e8           	inx
     57f: 86 0d        	stx	$d                      ; 0x200d <textPrint+0x141>
     581: 20 99 05     	jsr	$599 <kernelReset>
     584: 20 a2 05     	jsr	$5a2 <graphicsReset>
     587: 20 a6 06     	jsr	$6a6 <textReset>
     58a: 20 20 08     	jsr	$820 <bitmapReset>
     58d: 20 56 0a     	jsr	$a56 <tileReset>
     590: 20 6d 0a     	jsr	$a6d <spriteReset>
     593: 20 d5 0a     	jsr	$ad5 <fileReset>
     596: 4c 2f 0b     	jmp	$b2f <randomReset>

00000599 <kernelReset>:
     599: a2 4d        	ldx	#$4d
     59b: a0 00        	ldy	#$0
     59d: 86 f0        	stx	$f0                     ; 0x20f0 <textPrint+0x224>
     59f: 84 f1        	sty	$f1                     ; 0x20f1 <textPrint+0x225>
     5a1: 60           	rts

000005a2 <graphicsReset>:
     5a2: 18           	clc
     5a3: a5 10        	lda	$10                     ; 0x2010 <textPrint+0x144>
     5a5: 69 fd        	adc	#$fd
     5a7: 85 10        	sta	$10                     ; 0x2010 <textPrint+0x144>
     5a9: a5 11        	lda	$11                     ; 0x2011 <textPrint+0x145>
     5ab: 69 ff        	adc	#$ff
     5ad: 85 11        	sta	$11                     ; 0x2011 <textPrint+0x145>
     5af: 18           	clc
     5b0: a6 10        	ldx	$10                     ; 0x2010 <textPrint+0x144>
     5b2: 86 12        	stx	$12                     ; 0x2012 <textPrint+0x146>
     5b4: 85 13        	sta	$13                     ; 0x2013 <textPrint+0x147>
     5b6: a9 00        	lda	#$0
     5b8: 92 12        	sta	($12)                   ; 0x2012 <textPrint+0x146>
     5ba: 18           	clc
     5bb: a6 10        	ldx	$10                     ; 0x2010 <textPrint+0x144>
     5bd: 86 12        	stx	$12                     ; 0x2012 <textPrint+0x146>
     5bf: a6 11        	ldx	$11                     ; 0x2011 <textPrint+0x145>
     5c1: 86 13        	stx	$13                     ; 0x2013 <textPrint+0x147>
     5c3: b2 12        	lda	($12)                   ; 0x2012 <textPrint+0x146>
     5c5: 85 12        	sta	$12                     ; 0x2012 <textPrint+0x146>
     5c7: a9 00        	lda	#$0
     5c9: a6 12        	ldx	$12                     ; 0x2012 <textPrint+0x146>
     5cb: e0 04        	cpx	#$4
     5cd: e9 00        	sbc	#$0
     5cf: 70 02        	bvs	$5d3 <graphicsReset+0x31>
     5d1: 80 04        	bra	$5d7 <graphicsReset+0x35>
     5d3: 49 80        	eor	#$80
     5d5: 80 02        	bra	$5d9 <graphicsReset+0x37>
     5d7: 80 00        	bra	$5d9 <graphicsReset+0x37>
     5d9: aa           	tax
     5da: 30 03        	bmi	$5df <graphicsReset+0x3d>
     5dc: 4c 86 06     	jmp	$686 <graphicsReset+0xe4>
     5df: 18           	clc
     5e0: a5 10        	lda	$10                     ; 0x2010 <textPrint+0x144>
     5e2: 69 01        	adc	#$1
     5e4: 85 12        	sta	$12                     ; 0x2012 <textPrint+0x146>
     5e6: a5 11        	lda	$11                     ; 0x2011 <textPrint+0x145>
     5e8: 69 00        	adc	#$0
     5ea: 85 13        	sta	$13                     ; 0x2013 <textPrint+0x147>
     5ec: a9 00        	lda	#$0
     5ee: 92 12        	sta	($12)                   ; 0x2012 <textPrint+0x146>
     5f0: a0 01        	ldy	#$1
     5f2: 91 12        	sta	($12),y                 ; 0x2012 <textPrint+0x146>
     5f4: 18           	clc
     5f5: a5 10        	lda	$10                     ; 0x2010 <textPrint+0x144>
     5f7: 69 01        	adc	#$1
     5f9: 85 12        	sta	$12                     ; 0x2012 <textPrint+0x146>
     5fb: a5 11        	lda	$11                     ; 0x2011 <textPrint+0x145>
     5fd: 69 00        	adc	#$0
     5ff: 85 13        	sta	$13                     ; 0x2013 <textPrint+0x147>
     601: b2 12        	lda	($12)                   ; 0x2012 <textPrint+0x146>
     603: 85 14        	sta	$14                     ; 0x2014 <textPrint+0x148>
     605: a0 01        	ldy	#$1
     607: b1 12        	lda	($12),y                 ; 0x2012 <textPrint+0x146>
     609: a6 14        	ldx	$14                     ; 0x2014 <textPrint+0x148>
     60b: e0 00        	cpx	#$0
     60d: e9 01        	sbc	#$1
     60f: 70 02        	bvs	$613 <graphicsReset+0x71>
     611: 80 04        	bra	$617 <graphicsReset+0x75>
     613: 49 80        	eor	#$80
     615: 80 02        	bra	$619 <graphicsReset+0x77>
     617: 80 00        	bra	$619 <graphicsReset+0x77>
     619: aa           	tax
     61a: 30 03        	bmi	$61f <graphicsReset+0x7d>
     61c: 4c 75 06     	jmp	$675 <graphicsReset+0xd3>
     61f: 18           	clc
     620: a6 10        	ldx	$10                     ; 0x2010 <textPrint+0x144>
     622: 86 12        	stx	$12                     ; 0x2012 <textPrint+0x146>
     624: a6 11        	ldx	$11                     ; 0x2011 <textPrint+0x145>
     626: 86 13        	stx	$13                     ; 0x2013 <textPrint+0x147>
     628: b2 12        	lda	($12)                   ; 0x2012 <textPrint+0x146>
     62a: a8           	tay
     62b: 18           	clc
     62c: a5 10        	lda	$10                     ; 0x2010 <textPrint+0x144>
     62e: 69 01        	adc	#$1
     630: 85 14        	sta	$14                     ; 0x2014 <textPrint+0x148>
     632: a5 11        	lda	$11                     ; 0x2011 <textPrint+0x145>
     634: 69 00        	adc	#$0
     636: 85 15        	sta	$15                     ; 0x2015 <textPrint+0x149>
     638: b2 14        	lda	($14)                   ; 0x2014 <textPrint+0x148>
     63a: aa           	tax
     63b: b2 14        	lda	($14)                   ; 0x2014 <textPrint+0x148>
     63d: 85 12        	sta	$12                     ; 0x2012 <textPrint+0x146>
     63f: b2 14        	lda	($14)                   ; 0x2014 <textPrint+0x148>
     641: 85 13        	sta	$13                     ; 0x2013 <textPrint+0x147>
     643: b2 14        	lda	($14)                   ; 0x2014 <textPrint+0x148>
     645: 85 14        	sta	$14                     ; 0x2014 <textPrint+0x148>
     647: 98           	tya
     648: 20 84 14     	jsr	$1484 <graphicsDefineColor>
     64b: 18           	clc
     64c: a5 10        	lda	$10                     ; 0x2010 <textPrint+0x144>
     64e: 69 01        	adc	#$1
     650: 85 12        	sta	$12                     ; 0x2012 <textPrint+0x146>
     652: a5 11        	lda	$11                     ; 0x2011 <textPrint+0x145>
     654: 69 00        	adc	#$0
     656: 85 13        	sta	$13                     ; 0x2013 <textPrint+0x147>
     658: b2 12        	lda	($12)                   ; 0x2012 <textPrint+0x146>
     65a: aa           	tax
     65b: a0 01        	ldy	#$1
     65d: b1 12        	lda	($12),y                 ; 0x2012 <textPrint+0x146>
     65f: e8           	inx
     660: f0 03        	beq	$665 <graphicsReset+0xc3>
     662: 4c 69 06     	jmp	$669 <graphicsReset+0xc7>
     665: 1a           	inc
     666: 4c 69 06     	jmp	$669 <graphicsReset+0xc7>
     669: 85 14        	sta	$14                     ; 0x2014 <textPrint+0x148>
     66b: 8a           	txa
     66c: 92 12        	sta	($12)                   ; 0x2012 <textPrint+0x146>
     66e: a5 14        	lda	$14                     ; 0x2014 <textPrint+0x148>
     670: 91 12        	sta	($12),y                 ; 0x2012 <textPrint+0x146>
     672: 4c f4 05     	jmp	$5f4 <graphicsReset+0x52>
     675: 18           	clc
     676: a6 10        	ldx	$10                     ; 0x2010 <textPrint+0x144>
     678: 86 12        	stx	$12                     ; 0x2012 <textPrint+0x146>
     67a: a6 11        	ldx	$11                     ; 0x2011 <textPrint+0x145>
     67c: 86 13        	stx	$13                     ; 0x2013 <textPrint+0x147>
     67e: b2 12        	lda	($12)                   ; 0x2012 <textPrint+0x146>
     680: 1a           	inc
     681: 92 12        	sta	($12)                   ; 0x2012 <textPrint+0x146>
     683: 4c ba 05     	jmp	$5ba <graphicsReset+0x18>
     686: a2 00        	ldx	#$0
     688: 8a           	txa
     689: 20 8b 16     	jsr	$168b <graphicsSetLayerBitmap>
     68c: a2 01        	ldx	#$1
     68e: 8a           	txa
     68f: 20 8b 16     	jsr	$168b <graphicsSetLayerBitmap>
     692: a2 02        	ldx	#$2
     694: 8a           	txa
     695: 20 8b 16     	jsr	$168b <graphicsSetLayerBitmap>
     698: 18           	clc
     699: a5 10        	lda	$10                     ; 0x2010 <textPrint+0x144>
     69b: 69 03        	adc	#$3
     69d: 85 10        	sta	$10                     ; 0x2010 <textPrint+0x144>
     69f: a5 11        	lda	$11                     ; 0x2011 <textPrint+0x145>
     6a1: 69 00        	adc	#$0
     6a3: 85 11        	sta	$11                     ; 0x2011 <textPrint+0x145>
     6a5: 60           	rts

000006a6 <textReset>:
     6a6: 18           	clc
     6a7: a5 10        	lda	$10                     ; 0x2010 <textPrint+0x144>
     6a9: 69 ff        	adc	#$ff
     6ab: 85 10        	sta	$10                     ; 0x2010 <textPrint+0x144>
     6ad: a5 11        	lda	$11                     ; 0x2011 <textPrint+0x145>
     6af: 69 ff        	adc	#$ff
     6b1: 85 11        	sta	$11                     ; 0x2011 <textPrint+0x145>
     6b3: a6 24        	ldx	$24                     ; 0x2024 <textPrint+0x158>
     6b5: da           	phx
     6b6: a6 25        	ldx	$25                     ; 0x2025 <textPrint+0x159>
     6b8: da           	phx
     6b9: a6 26        	ldx	$26                     ; 0x2026 <textPrint+0x15a>
     6bb: da           	phx
     6bc: 20 a2 0e     	jsr	$ea2 <textSetDouble>
     6bf: 20 38 0f     	jsr	$f38 <textSetCursor>
     6c2: 18           	clc
     6c3: a6 10        	ldx	$10                     ; 0x2010 <textPrint+0x144>
     6c5: 86 12        	stx	$12                     ; 0x2012 <textPrint+0x146>
     6c7: a6 11        	ldx	$11                     ; 0x2011 <textPrint+0x145>
     6c9: 86 13        	stx	$13                     ; 0x2013 <textPrint+0x147>
     6cb: a9 00        	lda	#$0
     6cd: 92 12        	sta	($12)                   ; 0x2012 <textPrint+0x146>
     6cf: 18           	clc
     6d0: a6 10        	ldx	$10                     ; 0x2010 <textPrint+0x144>
     6d2: 86 12        	stx	$12                     ; 0x2012 <textPrint+0x146>
     6d4: a6 11        	ldx	$11                     ; 0x2011 <textPrint+0x145>
     6d6: 86 13        	stx	$13                     ; 0x2013 <textPrint+0x147>
     6d8: b2 12        	lda	($12)                   ; 0x2012 <textPrint+0x146>
     6da: 85 12        	sta	$12                     ; 0x2012 <textPrint+0x146>
     6dc: a9 00        	lda	#$0
     6de: a6 12        	ldx	$12                     ; 0x2012 <textPrint+0x146>
     6e0: e0 10        	cpx	#$10
     6e2: e9 00        	sbc	#$0
     6e4: 70 02        	bvs	$6e8 <textReset+0x42>
     6e6: 80 04        	bra	$6ec <textReset+0x46>
     6e8: 49 80        	eor	#$80
     6ea: 80 02        	bra	$6ee <textReset+0x48>
     6ec: 80 00        	bra	$6ee <textReset+0x48>
     6ee: aa           	tax
     6ef: 30 03        	bmi	$6f4 <textReset+0x4e>
     6f1: 4c 06 08     	jmp	$806 <textReset+0x160>
     6f4: 18           	clc
     6f5: a6 10        	ldx	$10                     ; 0x2010 <textPrint+0x144>
     6f7: 86 24        	stx	$24                     ; 0x2024 <textPrint+0x158>
     6f9: a6 11        	ldx	$11                     ; 0x2011 <textPrint+0x145>
     6fb: 86 25        	stx	$25                     ; 0x2025 <textPrint+0x159>
     6fd: b2 24        	lda	($24)                   ; 0x2024 <textPrint+0x158>
     6ff: 85 14        	sta	$14                     ; 0x2014 <textPrint+0x148>
     701: b2 24        	lda	($24)                   ; 0x2024 <textPrint+0x158>
     703: 0a           	asl
     704: 64 13        	stz	$13                     ; 0x2013 <textPrint+0x147>
     706: 26 13        	rol	$13                     ; 0x2013 <textPrint+0x147>
     708: 18           	clc
     709: 72 24        	adc	($24)                   ; 0x2024 <textPrint+0x158>
     70b: 85 12        	sta	$12                     ; 0x2012 <textPrint+0x146>
     70d: a5 13        	lda	$13                     ; 0x2013 <textPrint+0x147>
     70f: 69 00        	adc	#$0
     711: 85 13        	sta	$13                     ; 0x2013 <textPrint+0x147>
     713: a9 91        	lda	#$91
     715: 18           	clc
     716: 65 12        	adc	$12                     ; 0x2012 <textPrint+0x146>
     718: 85 12        	sta	$12                     ; 0x2012 <textPrint+0x146>
     71a: a9 6a        	lda	#$6a
     71c: 65 13        	adc	$13                     ; 0x2013 <textPrint+0x147>
     71e: 85 13        	sta	$13                     ; 0x2013 <textPrint+0x147>
     720: b2 12        	lda	($12)                   ; 0x2012 <textPrint+0x146>
     722: aa           	tax
     723: b2 24        	lda	($24)                   ; 0x2024 <textPrint+0x158>
     725: 0a           	asl
     726: 64 13        	stz	$13                     ; 0x2013 <textPrint+0x147>
     728: 26 13        	rol	$13                     ; 0x2013 <textPrint+0x147>
     72a: 18           	clc
     72b: 72 24        	adc	($24)                   ; 0x2024 <textPrint+0x158>
     72d: 85 12        	sta	$12                     ; 0x2012 <textPrint+0x146>
     72f: a5 13        	lda	$13                     ; 0x2013 <textPrint+0x147>
     731: 69 00        	adc	#$0
     733: 85 13        	sta	$13                     ; 0x2013 <textPrint+0x147>
     735: 18           	clc
     736: a9 91        	lda	#$91
     738: 65 12        	adc	$12                     ; 0x2012 <textPrint+0x146>
     73a: 85 12        	sta	$12                     ; 0x2012 <textPrint+0x146>
     73c: a9 6a        	lda	#$6a
     73e: 65 13        	adc	$13                     ; 0x2013 <textPrint+0x147>
     740: 85 13        	sta	$13                     ; 0x2013 <textPrint+0x147>
     742: b2 24        	lda	($24)                   ; 0x2024 <textPrint+0x158>
     744: 0a           	asl
     745: 85 15        	sta	$15                     ; 0x2015 <textPrint+0x149>
     747: 64 16        	stz	$16                     ; 0x2016 <textPrint+0x14a>
     749: 26 16        	rol	$16                     ; 0x2016 <textPrint+0x14a>
     74b: a0 01        	ldy	#$1
     74d: b1 12        	lda	($12),y                 ; 0x2012 <textPrint+0x146>
     74f: 85 12        	sta	$12                     ; 0x2012 <textPrint+0x146>
     751: 18           	clc
     752: a5 15        	lda	$15                     ; 0x2015 <textPrint+0x149>
     754: 72 24        	adc	($24)                   ; 0x2024 <textPrint+0x158>
     756: 85 15        	sta	$15                     ; 0x2015 <textPrint+0x149>
     758: a5 16        	lda	$16                     ; 0x2016 <textPrint+0x14a>
     75a: 69 00        	adc	#$0
     75c: 85 13        	sta	$13                     ; 0x2013 <textPrint+0x147>
     75e: a9 91        	lda	#$91
     760: 18           	clc
     761: 65 15        	adc	$15                     ; 0x2015 <textPrint+0x149>
     763: 85 16        	sta	$16                     ; 0x2016 <textPrint+0x14a>
     765: a9 6a        	lda	#$6a
     767: 65 13        	adc	$13                     ; 0x2013 <textPrint+0x147>
     769: 85 17        	sta	$17                     ; 0x2017 <textPrint+0x14b>
     76b: 64 26        	stz	$26                     ; 0x2026 <textPrint+0x15a>
     76d: c8           	iny
     76e: b1 16        	lda	($16),y                 ; 0x2016 <textPrint+0x14a>
     770: 85 13        	sta	$13                     ; 0x2013 <textPrint+0x147>
     772: a5 14        	lda	$14                     ; 0x2014 <textPrint+0x148>
     774: 20 7c 0f     	jsr	$f7c <textDefineForegroundColor>
     777: b2 24        	lda	($24)                   ; 0x2024 <textPrint+0x158>
     779: 0a           	asl
     77a: aa           	tax
     77b: 64 13        	stz	$13                     ; 0x2013 <textPrint+0x147>
     77d: 26 13        	rol	$13                     ; 0x2013 <textPrint+0x147>
     77f: b2 24        	lda	($24)                   ; 0x2024 <textPrint+0x158>
     781: 85 14        	sta	$14                     ; 0x2014 <textPrint+0x148>
     783: 18           	clc
     784: 8a           	txa
     785: 72 24        	adc	($24)                   ; 0x2024 <textPrint+0x158>
     787: 85 12        	sta	$12                     ; 0x2012 <textPrint+0x146>
     789: a5 13        	lda	$13                     ; 0x2013 <textPrint+0x147>
     78b: 69 00        	adc	#$0
     78d: 85 13        	sta	$13                     ; 0x2013 <textPrint+0x147>
     78f: 18           	clc
     790: a9 91        	lda	#$91
     792: 65 12        	adc	$12                     ; 0x2012 <textPrint+0x146>
     794: 85 12        	sta	$12                     ; 0x2012 <textPrint+0x146>
     796: a9 6a        	lda	#$6a
     798: 65 13        	adc	$13                     ; 0x2013 <textPrint+0x147>
     79a: 85 13        	sta	$13                     ; 0x2013 <textPrint+0x147>
     79c: b2 24        	lda	($24)                   ; 0x2024 <textPrint+0x158>
     79e: 0a           	asl
     79f: a8           	tay
     7a0: 64 15        	stz	$15                     ; 0x2015 <textPrint+0x149>
     7a2: 26 15        	rol	$15                     ; 0x2015 <textPrint+0x149>
     7a4: b2 12        	lda	($12)                   ; 0x2012 <textPrint+0x146>
     7a6: aa           	tax
     7a7: 18           	clc
     7a8: 98           	tya
     7a9: 72 24        	adc	($24)                   ; 0x2024 <textPrint+0x158>
     7ab: 85 12        	sta	$12                     ; 0x2012 <textPrint+0x146>
     7ad: a5 15        	lda	$15                     ; 0x2015 <textPrint+0x149>
     7af: 69 00        	adc	#$0
     7b1: 85 13        	sta	$13                     ; 0x2013 <textPrint+0x147>
     7b3: 18           	clc
     7b4: a9 91        	lda	#$91
     7b6: 65 12        	adc	$12                     ; 0x2012 <textPrint+0x146>
     7b8: 85 12        	sta	$12                     ; 0x2012 <textPrint+0x146>
     7ba: a9 6a        	lda	#$6a
     7bc: 65 13        	adc	$13                     ; 0x2013 <textPrint+0x147>
     7be: 85 13        	sta	$13                     ; 0x2013 <textPrint+0x147>
     7c0: b2 24        	lda	($24)                   ; 0x2024 <textPrint+0x158>
     7c2: 0a           	asl
     7c3: 85 16        	sta	$16                     ; 0x2016 <textPrint+0x14a>
     7c5: 26 26        	rol	$26                     ; 0x2026 <textPrint+0x15a>
     7c7: a0 01        	ldy	#$1
     7c9: b1 12        	lda	($12),y                 ; 0x2012 <textPrint+0x146>
     7cb: 85 15        	sta	$15                     ; 0x2015 <textPrint+0x149>
     7cd: 18           	clc
     7ce: a5 16        	lda	$16                     ; 0x2016 <textPrint+0x14a>
     7d0: 72 24        	adc	($24)                   ; 0x2024 <textPrint+0x158>
     7d2: 85 12        	sta	$12                     ; 0x2012 <textPrint+0x146>
     7d4: a5 26        	lda	$26                     ; 0x2026 <textPrint+0x15a>
     7d6: 69 00        	adc	#$0
     7d8: 85 13        	sta	$13                     ; 0x2013 <textPrint+0x147>
     7da: 18           	clc
     7db: a9 91        	lda	#$91
     7dd: 65 12        	adc	$12                     ; 0x2012 <textPrint+0x146>
     7df: 85 12        	sta	$12                     ; 0x2012 <textPrint+0x146>
     7e1: a9 6a        	lda	#$6a
     7e3: 65 13        	adc	$13                     ; 0x2013 <textPrint+0x147>
     7e5: 85 13        	sta	$13                     ; 0x2013 <textPrint+0x147>
     7e7: c8           	iny
     7e8: b1 12        	lda	($12),y                 ; 0x2012 <textPrint+0x146>
     7ea: a4 15        	ldy	$15                     ; 0x2015 <textPrint+0x149>
     7ec: 84 12        	sty	$12                     ; 0x2012 <textPrint+0x146>
     7ee: 85 13        	sta	$13                     ; 0x2013 <textPrint+0x147>
     7f0: a5 14        	lda	$14                     ; 0x2014 <textPrint+0x148>
     7f2: 20 e6 10     	jsr	$10e6 <textDefineBackgroundColor>
     7f5: 18           	clc
     7f6: a6 10        	ldx	$10                     ; 0x2010 <textPrint+0x144>
     7f8: 86 12        	stx	$12                     ; 0x2012 <textPrint+0x146>
     7fa: a6 11        	ldx	$11                     ; 0x2011 <textPrint+0x145>
     7fc: 86 13        	stx	$13                     ; 0x2013 <textPrint+0x147>
     7fe: b2 12        	lda	($12)                   ; 0x2012 <textPrint+0x146>
     800: 1a           	inc
     801: 92 12        	sta	($12)                   ; 0x2012 <textPrint+0x146>
     803: 4c cf 06     	jmp	$6cf <textReset+0x29>
     806: 20 50 12     	jsr	$1250 <textClear>
     809: fa           	plx
     80a: 86 26        	stx	$26                     ; 0x2026 <textPrint+0x15a>
     80c: fa           	plx
     80d: 86 25        	stx	$25                     ; 0x2025 <textPrint+0x159>
     80f: fa           	plx
     810: 86 24        	stx	$24                     ; 0x2024 <textPrint+0x158>
     812: 18           	clc
     813: a5 10        	lda	$10                     ; 0x2010 <textPrint+0x144>
     815: 69 01        	adc	#$1
     817: 85 10        	sta	$10                     ; 0x2010 <textPrint+0x144>
     819: a5 11        	lda	$11                     ; 0x2011 <textPrint+0x145>
     81b: 69 00        	adc	#$0
     81d: 85 11        	sta	$11                     ; 0x2011 <textPrint+0x145>
     81f: 60           	rts

00000820 <bitmapReset>:
     820: 18           	clc
     821: a5 10        	lda	$10                     ; 0x2010 <textPrint+0x144>
     823: 69 f8        	adc	#$f8
     825: 85 10        	sta	$10                     ; 0x2010 <textPrint+0x144>
     827: a5 11        	lda	$11                     ; 0x2011 <textPrint+0x145>
     829: 69 ff        	adc	#$ff
     82b: 85 11        	sta	$11                     ; 0x2011 <textPrint+0x145>
     82d: a9 40        	lda	#$40
     82f: a2 f0        	ldx	#$f0
     831: 86 12        	stx	$12                     ; 0x2012 <textPrint+0x146>
     833: 64 13        	stz	$13                     ; 0x2013 <textPrint+0x147>
     835: a2 01        	ldx	#$1
     837: 20 ad 0b     	jsr	$bad <mathUnsignedMultiply>
     83a: 85 14        	sta	$14                     ; 0x2014 <textPrint+0x148>
     83c: a5 12        	lda	$12                     ; 0x2012 <textPrint+0x146>
     83e: a4 13        	ldy	$13                     ; 0x2013 <textPrint+0x147>
     840: 86 42        	stx	$42                     ; 0x2042 <textPrint+0x176>
     842: 85 43        	sta	$43                     ; 0x2043 <textPrint+0x177>
     844: 84 44        	sty	$44                     ; 0x2044 <textPrint+0x178>
     846: a6 42        	ldx	$42                     ; 0x2042 <textPrint+0x176>
     848: 86 16        	stx	$16                     ; 0x2016 <textPrint+0x14a>
     84a: a6 43        	ldx	$43                     ; 0x2043 <textPrint+0x177>
     84c: 86 15        	stx	$15                     ; 0x2015 <textPrint+0x149>
     84e: a5 44        	lda	$44                     ; 0x2044 <textPrint+0x178>
     850: 18           	clc
     851: a6 10        	ldx	$10                     ; 0x2010 <textPrint+0x144>
     853: 86 12        	stx	$12                     ; 0x2012 <textPrint+0x146>
     855: a6 11        	ldx	$11                     ; 0x2011 <textPrint+0x145>
     857: 86 13        	stx	$13                     ; 0x2013 <textPrint+0x147>
     859: 06 16        	asl	$16                     ; 0x2016 <textPrint+0x14a>
     85b: 26 15        	rol	$15                     ; 0x2015 <textPrint+0x149>
     85d: 2a           	rol
     85e: aa           	tax
     85f: a9 00        	lda	#$0
     861: 2a           	rol
     862: 2c 4e 6a     	bit	$6a4e                   ; 0x6a4e <__set_v>
     865: b0 01        	bcs	$868 <bitmapReset+0x48>
     867: b8           	clv
     868: 06 16        	asl	$16                     ; 0x2016 <textPrint+0x14a>
     86a: 26 15        	rol	$15                     ; 0x2015 <textPrint+0x149>
     86c: 86 17        	stx	$17                     ; 0x2017 <textPrint+0x14b>
     86e: 26 17        	rol	$17                     ; 0x2017 <textPrint+0x14b>
     870: 2a           	rol
     871: a2 01        	ldx	#$1
     873: b0 02        	bcs	$877 <bitmapReset+0x57>
     875: a2 00        	ldx	#$0
     877: 06 16        	asl	$16                     ; 0x2016 <textPrint+0x14a>
     879: 26 15        	rol	$15                     ; 0x2015 <textPrint+0x149>
     87b: a4 17        	ldy	$17                     ; 0x2017 <textPrint+0x14b>
     87d: 84 16        	sty	$16                     ; 0x2016 <textPrint+0x14a>
     87f: 26 16        	rol	$16                     ; 0x2016 <textPrint+0x14a>
     881: 2a           	rol
     882: a0 01        	ldy	#$1
     884: b0 02        	bcs	$888 <bitmapReset+0x68>
     886: a0 00        	ldy	#$0
     888: 84 17        	sty	$17                     ; 0x2017 <textPrint+0x14b>
     88a: a0 02        	ldy	#$2
     88c: 91 12        	sta	($12),y                 ; 0x2012 <textPrint+0x146>
     88e: a9 00        	lda	#$0
     890: 38           	sec
     891: 70 01        	bvs	$894 <bitmapReset+0x74>
     893: 18           	clc
     894: 2a           	rol
     895: e0 01        	cpx	#$1
     897: 2a           	rol
     898: a6 17        	ldx	$17                     ; 0x2017 <textPrint+0x14b>
     89a: e0 01        	cpx	#$1
     89c: 2a           	rol
     89d: a0 03        	ldy	#$3
     89f: 91 12        	sta	($12),y                 ; 0x2012 <textPrint+0x146>
     8a1: a6 14        	ldx	$14                     ; 0x2014 <textPrint+0x148>
     8a3: 86 41        	stx	$41                     ; 0x2041 <textPrint+0x175>
     8a5: a5 15        	lda	$15                     ; 0x2015 <textPrint+0x149>
     8a7: 92 12        	sta	($12)                   ; 0x2012 <textPrint+0x146>
     8a9: 64 40        	stz	$40                     ; 0x2040 <textPrint+0x174>
     8ab: a0 01        	ldy	#$1
     8ad: a5 16        	lda	$16                     ; 0x2016 <textPrint+0x14a>
     8af: 91 12        	sta	($12),y                 ; 0x2012 <textPrint+0x146>
     8b1: b2 12        	lda	($12)                   ; 0x2012 <textPrint+0x146>
     8b3: 85 14        	sta	$14                     ; 0x2014 <textPrint+0x148>
     8b5: b1 12        	lda	($12),y                 ; 0x2012 <textPrint+0x146>
     8b7: a2 20        	ldx	#$20
     8b9: 64 12        	stz	$12                     ; 0x2012 <textPrint+0x146>
     8bb: 86 13        	stx	$13                     ; 0x2013 <textPrint+0x147>
     8bd: aa           	tax
     8be: a5 14        	lda	$14                     ; 0x2014 <textPrint+0x148>
     8c0: 20 ad 0b     	jsr	$bad <mathUnsignedMultiply>
     8c3: 86 15        	stx	$15                     ; 0x2015 <textPrint+0x149>
     8c5: a4 13        	ldy	$13                     ; 0x2013 <textPrint+0x147>
     8c7: a6 41        	ldx	$41                     ; 0x2041 <textPrint+0x175>
     8c9: 86 16        	stx	$16                     ; 0x2016 <textPrint+0x14a>
     8cb: a6 42        	ldx	$42                     ; 0x2042 <textPrint+0x176>
     8cd: 86 13        	stx	$13                     ; 0x2013 <textPrint+0x147>
     8cf: a6 43        	ldx	$43                     ; 0x2043 <textPrint+0x177>
     8d1: 86 14        	stx	$14                     ; 0x2014 <textPrint+0x148>
     8d3: c4 44        	cpy	$44                     ; 0x2044 <textPrint+0x178>
     8d5: f0 02        	beq	$8d9 <bitmapReset+0xb9>
     8d7: 80 25        	bra	$8fe <bitmapReset+0xde>
     8d9: a6 12        	ldx	$12                     ; 0x2012 <textPrint+0x146>
     8db: e4 14        	cpx	$14                     ; 0x2014 <textPrint+0x148>
     8dd: f0 02        	beq	$8e1 <bitmapReset+0xc1>
     8df: 80 19        	bra	$8fa <bitmapReset+0xda>
     8e1: a6 15        	ldx	$15                     ; 0x2015 <textPrint+0x149>
     8e3: e4 13        	cpx	$13                     ; 0x2013 <textPrint+0x147>
     8e5: f0 02        	beq	$8e9 <bitmapReset+0xc9>
     8e7: 80 0d        	bra	$8f6 <bitmapReset+0xd6>
     8e9: c5 16        	cmp	$16                     ; 0x2016 <textPrint+0x14a>
     8eb: f0 02        	beq	$8ef <bitmapReset+0xcf>
     8ed: 80 03        	bra	$8f2 <bitmapReset+0xd2>
     8ef: 4c 50 09     	jmp	$950 <bitmapReset+0x130>
     8f2: 80 00        	bra	$8f4 <bitmapReset+0xd4>
     8f4: 80 02        	bra	$8f8 <bitmapReset+0xd8>
     8f6: 80 00        	bra	$8f8 <bitmapReset+0xd8>
     8f8: 80 02        	bra	$8fc <bitmapReset+0xdc>
     8fa: 80 00        	bra	$8fc <bitmapReset+0xdc>
     8fc: 80 02        	bra	$900 <bitmapReset+0xe0>
     8fe: 80 00        	bra	$900 <bitmapReset+0xe0>
     900: 80 00        	bra	$902 <bitmapReset+0xe2>
     902: 18           	clc
     903: a6 10        	ldx	$10                     ; 0x2010 <textPrint+0x144>
     905: 86 12        	stx	$12                     ; 0x2012 <textPrint+0x146>
     907: a6 11        	ldx	$11                     ; 0x2011 <textPrint+0x145>
     909: 86 13        	stx	$13                     ; 0x2013 <textPrint+0x147>
     90b: b2 12        	lda	($12)                   ; 0x2012 <textPrint+0x146>
     90d: aa           	tax
     90e: a0 01        	ldy	#$1
     910: b1 12        	lda	($12),y                 ; 0x2012 <textPrint+0x146>
     912: 85 14        	sta	$14                     ; 0x2014 <textPrint+0x148>
     914: c8           	iny
     915: b1 12        	lda	($12),y                 ; 0x2012 <textPrint+0x146>
     917: 85 16        	sta	$16                     ; 0x2016 <textPrint+0x14a>
     919: c8           	iny
     91a: b1 12        	lda	($12),y                 ; 0x2012 <textPrint+0x146>
     91c: 85 15        	sta	$15                     ; 0x2015 <textPrint+0x149>
     91e: e8           	inx
     91f: f0 03        	beq	$924 <bitmapReset+0x104>
     921: 4c 3d 09     	jmp	$93d <bitmapReset+0x11d>
     924: e6 14        	inc	$14                     ; 0x2014 <textPrint+0x148>
     926: f0 03        	beq	$92b <bitmapReset+0x10b>
     928: 4c 3a 09     	jmp	$93a <bitmapReset+0x11a>
     92b: e6 16        	inc	$16                     ; 0x2016 <textPrint+0x14a>
     92d: f0 03        	beq	$932 <bitmapReset+0x112>
     92f: 4c 37 09     	jmp	$937 <bitmapReset+0x117>
     932: e6 15        	inc	$15                     ; 0x2015 <textPrint+0x149>
     934: 4c 37 09     	jmp	$937 <bitmapReset+0x117>
     937: 4c 3a 09     	jmp	$93a <bitmapReset+0x11a>
     93a: 4c 3d 09     	jmp	$93d <bitmapReset+0x11d>
     93d: a5 14        	lda	$14                     ; 0x2014 <textPrint+0x148>
     93f: a0 01        	ldy	#$1
     941: 91 12        	sta	($12),y                 ; 0x2012 <textPrint+0x146>
     943: c8           	iny
     944: a5 16        	lda	$16                     ; 0x2016 <textPrint+0x14a>
     946: 91 12        	sta	($12),y                 ; 0x2012 <textPrint+0x146>
     948: a5 15        	lda	$15                     ; 0x2015 <textPrint+0x149>
     94a: c8           	iny
     94b: 91 12        	sta	($12),y                 ; 0x2012 <textPrint+0x146>
     94d: 8a           	txa
     94e: 92 12        	sta	($12)                   ; 0x2012 <textPrint+0x146>
     950: 18           	clc
     951: a6 10        	ldx	$10                     ; 0x2010 <textPrint+0x144>
     953: 86 12        	stx	$12                     ; 0x2012 <textPrint+0x146>
     955: a6 11        	ldx	$11                     ; 0x2011 <textPrint+0x145>
     957: 86 13        	stx	$13                     ; 0x2013 <textPrint+0x147>
     959: b2 12        	lda	($12)                   ; 0x2012 <textPrint+0x146>
     95b: 85 14        	sta	$14                     ; 0x2014 <textPrint+0x148>
     95d: a0 01        	ldy	#$1
     95f: b1 12        	lda	($12),y                 ; 0x2012 <textPrint+0x146>
     961: 64 12        	stz	$12                     ; 0x2012 <textPrint+0x146>
     963: a2 20        	ldx	#$20
     965: 86 13        	stx	$13                     ; 0x2013 <textPrint+0x147>
     967: aa           	tax
     968: a5 14        	lda	$14                     ; 0x2014 <textPrint+0x148>
     96a: 20 ad 0b     	jsr	$bad <mathUnsignedMultiply>
     96d: 18           	clc
     96e: 48           	pha
     96f: a5 10        	lda	$10                     ; 0x2010 <textPrint+0x144>
     971: 69 04        	adc	#$4
     973: 85 16        	sta	$16                     ; 0x2016 <textPrint+0x14a>
     975: a5 11        	lda	$11                     ; 0x2011 <textPrint+0x145>
     977: 69 00        	adc	#$0
     979: 85 17        	sta	$17                     ; 0x2017 <textPrint+0x14b>
     97b: 68           	pla
     97c: 92 16        	sta	($16)                   ; 0x2016 <textPrint+0x14a>
     97e: a0 01        	ldy	#$1
     980: 8a           	txa
     981: 91 16        	sta	($16),y                 ; 0x2016 <textPrint+0x14a>
     983: c8           	iny
     984: a5 12        	lda	$12                     ; 0x2012 <textPrint+0x146>
     986: 91 16        	sta	($16),y                 ; 0x2016 <textPrint+0x14a>
     988: c8           	iny
     989: a5 13        	lda	$13                     ; 0x2013 <textPrint+0x147>
     98b: 91 16        	sta	($16),y                 ; 0x2016 <textPrint+0x14a>
     98d: 38           	sec
     98e: a9 00        	lda	#$0
     990: f2 16        	sbc	($16)                   ; 0x2016 <textPrint+0x14a>
     992: 85 14        	sta	$14                     ; 0x2014 <textPrint+0x148>
     994: a9 00        	lda	#$0
     996: a0 01        	ldy	#$1
     998: f1 16        	sbc	($16),y                 ; 0x2016 <textPrint+0x14a>
     99a: 85 12        	sta	$12                     ; 0x2012 <textPrint+0x146>
     99c: a9 08        	lda	#$8
     99e: c8           	iny
     99f: f1 16        	sbc	($16),y                 ; 0x2016 <textPrint+0x14a>
     9a1: aa           	tax
     9a2: a9 00        	lda	#$0
     9a4: c8           	iny
     9a5: f1 16        	sbc	($16),y                 ; 0x2016 <textPrint+0x14a>
     9a7: a4 14        	ldy	$14                     ; 0x2014 <textPrint+0x148>
     9a9: 84 34        	sty	$34                     ; 0x2034 <textPrint+0x168>
     9ab: a4 12        	ldy	$12                     ; 0x2012 <textPrint+0x146>
     9ad: 84 35        	sty	$35                     ; 0x2035 <textPrint+0x169>
     9af: 86 36        	stx	$36                     ; 0x2036 <textPrint+0x16a>
     9b1: 85 37        	sta	$37                     ; 0x2037 <textPrint+0x16b>
     9b3: a5 34        	lda	$34                     ; 0x2034 <textPrint+0x168>
     9b5: a6 35        	ldx	$35                     ; 0x2035 <textPrint+0x169>
     9b7: 38           	sec
     9b8: f2 16        	sbc	($16)                   ; 0x2016 <textPrint+0x14a>
     9ba: 85 14        	sta	$14                     ; 0x2014 <textPrint+0x148>
     9bc: a0 01        	ldy	#$1
     9be: 8a           	txa
     9bf: f1 16        	sbc	($16),y                 ; 0x2016 <textPrint+0x14a>
     9c1: 85 12        	sta	$12                     ; 0x2012 <textPrint+0x146>
     9c3: a5 36        	lda	$36                     ; 0x2036 <textPrint+0x16a>
     9c5: c8           	iny
     9c6: f1 16        	sbc	($16),y                 ; 0x2016 <textPrint+0x14a>
     9c8: aa           	tax
     9c9: a5 37        	lda	$37                     ; 0x2037 <textPrint+0x16b>
     9cb: c8           	iny
     9cc: f1 16        	sbc	($16),y                 ; 0x2016 <textPrint+0x14a>
     9ce: a4 14        	ldy	$14                     ; 0x2014 <textPrint+0x148>
     9d0: 84 38        	sty	$38                     ; 0x2038 <textPrint+0x16c>
     9d2: a4 12        	ldy	$12                     ; 0x2012 <textPrint+0x146>
     9d4: 84 39        	sty	$39                     ; 0x2039 <textPrint+0x16d>
     9d6: 38           	sec
     9d7: 86 3a        	stx	$3a                     ; 0x203a <textPrint+0x16e>
     9d9: 85 3b        	sta	$3b                     ; 0x203b <textPrint+0x16f>
     9db: a5 38        	lda	$38                     ; 0x2038 <textPrint+0x16c>
     9dd: a6 39        	ldx	$39                     ; 0x2039 <textPrint+0x16d>
     9df: f2 16        	sbc	($16)                   ; 0x2016 <textPrint+0x14a>
     9e1: 85 14        	sta	$14                     ; 0x2014 <textPrint+0x148>
     9e3: a0 01        	ldy	#$1
     9e5: 8a           	txa
     9e6: f1 16        	sbc	($16),y                 ; 0x2016 <textPrint+0x14a>
     9e8: 85 15        	sta	$15                     ; 0x2015 <textPrint+0x149>
     9ea: a5 3a        	lda	$3a                     ; 0x203a <textPrint+0x16e>
     9ec: c8           	iny
     9ed: f1 16        	sbc	($16),y                 ; 0x2016 <textPrint+0x14a>
     9ef: aa           	tax
     9f0: a5 3b        	lda	$3b                     ; 0x203b <textPrint+0x16f>
     9f2: c8           	iny
     9f3: f1 16        	sbc	($16),y                 ; 0x2016 <textPrint+0x14a>
     9f5: a4 14        	ldy	$14                     ; 0x2014 <textPrint+0x148>
     9f7: 84 3c        	sty	$3c                     ; 0x203c <textPrint+0x170>
     9f9: a4 15        	ldy	$15                     ; 0x2015 <textPrint+0x149>
     9fb: 84 3d        	sty	$3d                     ; 0x203d <textPrint+0x171>
     9fd: 86 3e        	stx	$3e                     ; 0x203e <textPrint+0x172>
     9ff: 85 3f        	sta	$3f                     ; 0x203f <textPrint+0x173>
     a01: 64 45        	stz	$45                     ; 0x2045 <textPrint+0x179>
     a03: 64 46        	stz	$46                     ; 0x2046 <textPrint+0x17a>
     a05: 64 47        	stz	$47                     ; 0x2047 <textPrint+0x17b>
     a07: a6 34        	ldx	$34                     ; 0x2034 <textPrint+0x168>
     a09: 8e 01 d1     	stx	$d101                   ; 0xd101 <end_block9+0x660d>
     a0c: a6 35        	ldx	$35                     ; 0x2035 <textPrint+0x169>
     a0e: 8e 02 d1     	stx	$d102                   ; 0xd102 <end_block9+0x660e>
     a11: a6 36        	ldx	$36                     ; 0x2036 <textPrint+0x16a>
     a13: 8e 03 d1     	stx	$d103                   ; 0xd103 <end_block9+0x660f>
     a16: a6 38        	ldx	$38                     ; 0x2038 <textPrint+0x16c>
     a18: 8e 09 d1     	stx	$d109                   ; 0xd109 <end_block9+0x6615>
     a1b: a6 39        	ldx	$39                     ; 0x2039 <textPrint+0x16d>
     a1d: 8e 0a d1     	stx	$d10a                   ; 0xd10a <end_block9+0x6616>
     a20: a6 3a        	ldx	$3a                     ; 0x203a <textPrint+0x16e>
     a22: 8e 0b d1     	stx	$d10b                   ; 0xd10b <end_block9+0x6617>
     a25: a6 3c        	ldx	$3c                     ; 0x203c <textPrint+0x170>
     a27: 8e 11 d1     	stx	$d111                   ; 0xd111 <end_block9+0x661d>
     a2a: a6 3d        	ldx	$3d                     ; 0x203d <textPrint+0x171>
     a2c: 8e 12 d1     	stx	$d112                   ; 0xd112 <end_block9+0x661e>
     a2f: a6 3e        	ldx	$3e                     ; 0x203e <textPrint+0x172>
     a31: 8e 13 d1     	stx	$d113                   ; 0xd113 <end_block9+0x661f>
     a34: a2 00        	ldx	#$0
     a36: 8a           	txa
     a37: 20 c7 0d     	jsr	$dc7 <bitmapSetVisible>
     a3a: a9 01        	lda	#$1
     a3c: a2 00        	ldx	#$0
     a3e: 20 c7 0d     	jsr	$dc7 <bitmapSetVisible>
     a41: a9 02        	lda	#$2
     a43: a2 00        	ldx	#$0
     a45: 20 c7 0d     	jsr	$dc7 <bitmapSetVisible>
     a48: 18           	clc
     a49: a5 10        	lda	$10                     ; 0x2010 <textPrint+0x144>
     a4b: 69 08        	adc	#$8
     a4d: 85 10        	sta	$10                     ; 0x2010 <textPrint+0x144>
     a4f: a5 11        	lda	$11                     ; 0x2011 <textPrint+0x145>
     a51: 69 00        	adc	#$0
     a53: 85 11        	sta	$11                     ; 0x2011 <textPrint+0x145>
     a55: 60           	rts

00000a56 <tileReset>:
     a56: a2 01        	ldx	#$1
     a58: 86 48        	stx	$48                     ; 0x2048 <textPrint+0x17c>
     a5a: 86 49        	stx	$49                     ; 0x2049 <textPrint+0x17d>
     a5c: 86 4a        	stx	$4a                     ; 0x204a <textPrint+0x17e>
     a5e: a9 00        	lda	#$0
     a60: 20 e2 0c     	jsr	$ce2 <tileSetVisible>
     a63: a9 01        	lda	#$1
     a65: 20 e2 0c     	jsr	$ce2 <tileSetVisible>
     a68: a9 02        	lda	#$2
     a6a: 4c e2 0c     	jmp	$ce2 <tileSetVisible>

00000a6d <spriteReset>:
     a6d: 18           	clc
     a6e: a5 10        	lda	$10                     ; 0x2010 <textPrint+0x144>
     a70: 69 ff        	adc	#$ff
     a72: 85 10        	sta	$10                     ; 0x2010 <textPrint+0x144>
     a74: a5 11        	lda	$11                     ; 0x2011 <textPrint+0x145>
     a76: 69 ff        	adc	#$ff
     a78: 85 11        	sta	$11                     ; 0x2011 <textPrint+0x145>
     a7a: 18           	clc
     a7b: a6 10        	ldx	$10                     ; 0x2010 <textPrint+0x144>
     a7d: 86 12        	stx	$12                     ; 0x2012 <textPrint+0x146>
     a7f: 85 13        	sta	$13                     ; 0x2013 <textPrint+0x147>
     a81: a9 00        	lda	#$0
     a83: 92 12        	sta	($12)                   ; 0x2012 <textPrint+0x146>
     a85: 18           	clc
     a86: a6 10        	ldx	$10                     ; 0x2010 <textPrint+0x144>
     a88: 86 12        	stx	$12                     ; 0x2012 <textPrint+0x146>
     a8a: a6 11        	ldx	$11                     ; 0x2011 <textPrint+0x145>
     a8c: 86 13        	stx	$13                     ; 0x2013 <textPrint+0x147>
     a8e: b2 12        	lda	($12)                   ; 0x2012 <textPrint+0x146>
     a90: 85 12        	sta	$12                     ; 0x2012 <textPrint+0x146>
     a92: a9 00        	lda	#$0
     a94: a6 12        	ldx	$12                     ; 0x2012 <textPrint+0x146>
     a96: e0 40        	cpx	#$40
     a98: e9 00        	sbc	#$0
     a9a: 70 02        	bvs	$a9e <spriteReset+0x31>
     a9c: 80 04        	bra	$aa2 <spriteReset+0x35>
     a9e: 49 80        	eor	#$80
     aa0: 80 02        	bra	$aa4 <spriteReset+0x37>
     aa2: 80 00        	bra	$aa4 <spriteReset+0x37>
     aa4: aa           	tax
     aa5: 10 20        	bpl	$ac7 <spriteReset+0x5a>
     aa7: 80 00        	bra	$aa9 <spriteReset+0x3c>
     aa9: 18           	clc
     aaa: a6 10        	ldx	$10                     ; 0x2010 <textPrint+0x144>
     aac: 86 12        	stx	$12                     ; 0x2012 <textPrint+0x146>
     aae: a6 11        	ldx	$11                     ; 0x2011 <textPrint+0x145>
     ab0: 86 13        	stx	$13                     ; 0x2013 <textPrint+0x147>
     ab2: b2 12        	lda	($12)                   ; 0x2012 <textPrint+0x146>
     ab4: 20 66 0c     	jsr	$c66 <spriteSetVisible>
     ab7: 18           	clc
     ab8: a6 10        	ldx	$10                     ; 0x2010 <textPrint+0x144>
     aba: 86 12        	stx	$12                     ; 0x2012 <textPrint+0x146>
     abc: a6 11        	ldx	$11                     ; 0x2011 <textPrint+0x145>
     abe: 86 13        	stx	$13                     ; 0x2013 <textPrint+0x147>
     ac0: b2 12        	lda	($12)                   ; 0x2012 <textPrint+0x146>
     ac2: 1a           	inc
     ac3: 92 12        	sta	($12)                   ; 0x2012 <textPrint+0x146>
     ac5: 80 be        	bra	$a85 <spriteReset+0x18>
     ac7: 18           	clc
     ac8: a5 10        	lda	$10                     ; 0x2010 <textPrint+0x144>
     aca: 69 01        	adc	#$1
     acc: 85 10        	sta	$10                     ; 0x2010 <textPrint+0x144>
     ace: a5 11        	lda	$11                     ; 0x2011 <textPrint+0x145>
     ad0: 69 00        	adc	#$0
     ad2: 85 11        	sta	$11                     ; 0x2011 <textPrint+0x145>
     ad4: 60           	rts

00000ad5 <fileReset>:
     ad5: 18           	clc
     ad6: a5 10        	lda	$10                     ; 0x2010 <textPrint+0x144>
     ad8: 69 ff        	adc	#$ff
     ada: 85 10        	sta	$10                     ; 0x2010 <textPrint+0x144>
     adc: a5 11        	lda	$11                     ; 0x2011 <textPrint+0x145>
     ade: 69 ff        	adc	#$ff
     ae0: 85 11        	sta	$11                     ; 0x2011 <textPrint+0x145>
     ae2: 18           	clc
     ae3: a6 10        	ldx	$10                     ; 0x2010 <textPrint+0x144>
     ae5: 86 12        	stx	$12                     ; 0x2012 <textPrint+0x146>
     ae7: 85 13        	sta	$13                     ; 0x2013 <textPrint+0x147>
     ae9: a9 00        	lda	#$0
     aeb: 92 12        	sta	($12)                   ; 0x2012 <textPrint+0x146>
     aed: 18           	clc
     aee: a6 10        	ldx	$10                     ; 0x2010 <textPrint+0x144>
     af0: 86 12        	stx	$12                     ; 0x2012 <textPrint+0x146>
     af2: a6 11        	ldx	$11                     ; 0x2011 <textPrint+0x145>
     af4: 86 13        	stx	$13                     ; 0x2013 <textPrint+0x147>
     af6: b2 12        	lda	($12)                   ; 0x2012 <textPrint+0x146>
     af8: 85 12        	sta	$12                     ; 0x2012 <textPrint+0x146>
     afa: a9 00        	lda	#$0
     afc: a6 12        	ldx	$12                     ; 0x2012 <textPrint+0x146>
     afe: e0 08        	cpx	#$8
     b00: e9 00        	sbc	#$0
     b02: 70 02        	bvs	$b06 <fileReset+0x31>
     b04: 80 04        	bra	$b0a <fileReset+0x35>
     b06: 49 80        	eor	#$80
     b08: 80 02        	bra	$b0c <fileReset+0x37>
     b0a: 80 00        	bra	$b0c <fileReset+0x37>
     b0c: aa           	tax
     b0d: 10 12        	bpl	$b21 <fileReset+0x4c>
     b0f: 80 00        	bra	$b11 <fileReset+0x3c>
     b11: 18           	clc
     b12: a6 10        	ldx	$10                     ; 0x2010 <textPrint+0x144>
     b14: 86 12        	stx	$12                     ; 0x2012 <textPrint+0x146>
     b16: a6 11        	ldx	$11                     ; 0x2011 <textPrint+0x145>
     b18: 86 13        	stx	$13                     ; 0x2013 <textPrint+0x147>
     b1a: b2 12        	lda	($12)                   ; 0x2012 <textPrint+0x146>
     b1c: 1a           	inc
     b1d: 92 12        	sta	($12)                   ; 0x2012 <textPrint+0x146>
     b1f: 80 cc        	bra	$aed <fileReset+0x18>
     b21: 18           	clc
     b22: a5 10        	lda	$10                     ; 0x2010 <textPrint+0x144>
     b24: 69 01        	adc	#$1
     b26: 85 10        	sta	$10                     ; 0x2010 <textPrint+0x144>
     b28: a5 11        	lda	$11                     ; 0x2011 <textPrint+0x145>
     b2a: 69 00        	adc	#$0
     b2c: 85 11        	sta	$11                     ; 0x2011 <textPrint+0x145>
     b2e: 60           	rts

00000b2f <randomReset>:
     b2f: 18           	clc
     b30: a5 10        	lda	$10                     ; 0x2010 <textPrint+0x144>
     b32: 69 f6        	adc	#$f6
     b34: 85 10        	sta	$10                     ; 0x2010 <textPrint+0x144>
     b36: a5 11        	lda	$11                     ; 0x2011 <textPrint+0x145>
     b38: 69 ff        	adc	#$ff
     b3a: 85 11        	sta	$11                     ; 0x2011 <textPrint+0x145>
     b3c: 18           	clc
     b3d: a5 10        	lda	$10                     ; 0x2010 <textPrint+0x144>
     b3f: 69 02        	adc	#$2
     b41: aa           	tax
     b42: a5 11        	lda	$11                     ; 0x2011 <textPrint+0x145>
     b44: 69 00        	adc	#$0
     b46: a8           	tay
     b47: 18           	clc
     b48: a5 10        	lda	$10                     ; 0x2010 <textPrint+0x144>
     b4a: 69 02        	adc	#$2
     b4c: 85 12        	sta	$12                     ; 0x2012 <textPrint+0x146>
     b4e: a5 11        	lda	$11                     ; 0x2011 <textPrint+0x145>
     b50: 69 00        	adc	#$0
     b52: 85 13        	sta	$13                     ; 0x2013 <textPrint+0x147>
     b54: 86 fb        	stx	$fb                     ; 0x20fb <textPrint+0x22f>
     b56: 84 fc        	sty	$fc                     ; 0x20fc <textPrint+0x230>
     b58: a2 08        	ldx	#$8
     b5a: 86 fd        	stx	$fd                     ; 0x20fd <textPrint+0x231>
     b5c: 18           	clc
     b5d: a5 10        	lda	$10                     ; 0x2010 <textPrint+0x144>
     b5f: 69 01        	adc	#$1
     b61: 85 14        	sta	$14                     ; 0x2014 <textPrint+0x148>
     b63: a5 11        	lda	$11                     ; 0x2011 <textPrint+0x145>
     b65: 69 00        	adc	#$0
     b67: 85 15        	sta	$15                     ; 0x2015 <textPrint+0x149>
     b69: a2 f3        	ldx	#$f3
     b6b: 86 16        	stx	$16                     ; 0x2016 <textPrint+0x14a>
     b6d: a2 6a        	ldx	#$6a
     b6f: 86 17        	stx	$17                     ; 0x2017 <textPrint+0x14b>
     b71: 20 dc ff     	jsr	$ffdc <end_block9+0x94e8>
     b74: 92 14        	sta	($14)                   ; 0x2014 <textPrint+0x148>
     b76: a9 00        	lda	#$0
     b78: 6a           	ror
     b79: 85 16        	sta	$16                     ; 0x2016 <textPrint+0x14a>
     b7b: b2 14        	lda	($14)                   ; 0x2014 <textPrint+0x148>
     b7d: 18           	clc
     b7e: a6 10        	ldx	$10                     ; 0x2010 <textPrint+0x144>
     b80: 86 14        	stx	$14                     ; 0x2014 <textPrint+0x148>
     b82: a6 11        	ldx	$11                     ; 0x2011 <textPrint+0x145>
     b84: 86 15        	stx	$15                     ; 0x2015 <textPrint+0x149>
     b86: 92 14        	sta	($14)                   ; 0x2014 <textPrint+0x148>
     b88: a0 06        	ldy	#$6
     b8a: b1 12        	lda	($12),y                 ; 0x2012 <textPrint+0x146>
     b8c: 85 14        	sta	$14                     ; 0x2014 <textPrint+0x148>
     b8e: c8           	iny
     b8f: b1 12        	lda	($12),y                 ; 0x2012 <textPrint+0x146>
     b91: 85 12        	sta	$12                     ; 0x2012 <textPrint+0x146>
     b93: 64 13        	stz	$13                     ; 0x2013 <textPrint+0x147>
     b95: a2 00        	ldx	#$0
     b97: a5 14        	lda	$14                     ; 0x2014 <textPrint+0x148>
     b99: 20 ad 0b     	jsr	$bad <mathUnsignedMultiply>
     b9c: 20 26 0c     	jsr	$c26 <randomSeed>
     b9f: 18           	clc
     ba0: a5 10        	lda	$10                     ; 0x2010 <textPrint+0x144>
     ba2: 69 0a        	adc	#$a
     ba4: 85 10        	sta	$10                     ; 0x2010 <textPrint+0x144>
     ba6: a5 11        	lda	$11                     ; 0x2011 <textPrint+0x145>
     ba8: 69 00        	adc	#$0
     baa: 85 11        	sta	$11                     ; 0x2011 <textPrint+0x145>
     bac: 60           	rts

00000bad <mathUnsignedMultiply>:
     bad: 48           	pha
     bae: 18           	clc
     baf: a5 10        	lda	$10                     ; 0x2010 <textPrint+0x144>
     bb1: 69 fc        	adc	#$fc
     bb3: 85 10        	sta	$10                     ; 0x2010 <textPrint+0x144>
     bb5: a5 11        	lda	$11                     ; 0x2011 <textPrint+0x145>
     bb7: 69 ff        	adc	#$ff
     bb9: 85 11        	sta	$11                     ; 0x2011 <textPrint+0x145>
     bbb: 86 14        	stx	$14                     ; 0x2014 <textPrint+0x148>
     bbd: a6 12        	ldx	$12                     ; 0x2012 <textPrint+0x146>
     bbf: 18           	clc
     bc0: a5 10        	lda	$10                     ; 0x2010 <textPrint+0x144>
     bc2: 69 02        	adc	#$2
     bc4: 85 16        	sta	$16                     ; 0x2016 <textPrint+0x14a>
     bc6: a5 11        	lda	$11                     ; 0x2011 <textPrint+0x145>
     bc8: 69 00        	adc	#$0
     bca: 85 17        	sta	$17                     ; 0x2017 <textPrint+0x14b>
     bcc: 68           	pla
     bcd: 92 16        	sta	($16)                   ; 0x2016 <textPrint+0x14a>
     bcf: a0 01        	ldy	#$1
     bd1: a5 14        	lda	$14                     ; 0x2014 <textPrint+0x148>
     bd3: 91 16        	sta	($16),y                 ; 0x2016 <textPrint+0x14a>
     bd5: 18           	clc
     bd6: a5 10        	lda	$10                     ; 0x2010 <textPrint+0x144>
     bd8: 85 14        	sta	$14                     ; 0x2014 <textPrint+0x148>
     bda: a5 11        	lda	$11                     ; 0x2011 <textPrint+0x145>
     bdc: 85 15        	sta	$15                     ; 0x2015 <textPrint+0x149>
     bde: 8a           	txa
     bdf: 92 14        	sta	($14)                   ; 0x2014 <textPrint+0x148>
     be1: a5 13        	lda	$13                     ; 0x2013 <textPrint+0x147>
     be3: 91 14        	sta	($14),y                 ; 0x2014 <textPrint+0x148>
     be5: b2 16        	lda	($16)                   ; 0x2016 <textPrint+0x14a>
     be7: 85 13        	sta	$13                     ; 0x2013 <textPrint+0x147>
     be9: b1 16        	lda	($16),y                 ; 0x2016 <textPrint+0x14a>
     beb: a6 13        	ldx	$13                     ; 0x2013 <textPrint+0x147>
     bed: 8e 00 de     	stx	$de00                   ; 0xde00 <end_block9+0x730c>
     bf0: 8d 01 de     	sta	$de01                   ; 0xde01 <end_block9+0x730d>
     bf3: b2 14        	lda	($14)                   ; 0x2014 <textPrint+0x148>
     bf5: 85 13        	sta	$13                     ; 0x2013 <textPrint+0x147>
     bf7: b1 14        	lda	($14),y                 ; 0x2014 <textPrint+0x148>
     bf9: a6 13        	ldx	$13                     ; 0x2013 <textPrint+0x147>
     bfb: 8e 02 de     	stx	$de02                   ; 0xde02 <end_block9+0x730e>
     bfe: 8d 03 de     	sta	$de03                   ; 0xde03 <end_block9+0x730f>
     c01: ae 10 de     	ldx	$de10                   ; 0xde10 <end_block9+0x731c>
     c04: 86 14        	stx	$14                     ; 0x2014 <textPrint+0x148>
     c06: ad 11 de     	lda	$de11                   ; 0xde11 <end_block9+0x731d>
     c09: ac 12 de     	ldy	$de12                   ; 0xde12 <end_block9+0x731e>
     c0c: ae 13 de     	ldx	$de13                   ; 0xde13 <end_block9+0x731f>
     c0f: 84 12        	sty	$12                     ; 0x2012 <textPrint+0x146>
     c11: 86 13        	stx	$13                     ; 0x2013 <textPrint+0x147>
     c13: aa           	tax
     c14: a5 14        	lda	$14                     ; 0x2014 <textPrint+0x148>
     c16: 48           	pha
     c17: 18           	clc
     c18: a5 10        	lda	$10                     ; 0x2010 <textPrint+0x144>
     c1a: 69 04        	adc	#$4
     c1c: 85 10        	sta	$10                     ; 0x2010 <textPrint+0x144>
     c1e: a5 11        	lda	$11                     ; 0x2011 <textPrint+0x145>
     c20: 69 00        	adc	#$0
     c22: 85 11        	sta	$11                     ; 0x2011 <textPrint+0x145>
     c24: 68           	pla
     c25: 60           	rts

00000c26 <randomSeed>:
     c26: 48           	pha
     c27: 18           	clc
     c28: a5 10        	lda	$10                     ; 0x2010 <textPrint+0x144>
     c2a: 69 fe        	adc	#$fe
     c2c: 85 10        	sta	$10                     ; 0x2010 <textPrint+0x144>
     c2e: a5 11        	lda	$11                     ; 0x2011 <textPrint+0x145>
     c30: 69 ff        	adc	#$ff
     c32: 85 11        	sta	$11                     ; 0x2011 <textPrint+0x145>
     c34: 68           	pla
     c35: 18           	clc
     c36: a4 10        	ldy	$10                     ; 0x2010 <textPrint+0x144>
     c38: 84 12        	sty	$12                     ; 0x2012 <textPrint+0x146>
     c3a: a4 11        	ldy	$11                     ; 0x2011 <textPrint+0x145>
     c3c: 84 13        	sty	$13                     ; 0x2013 <textPrint+0x147>
     c3e: 92 12        	sta	($12)                   ; 0x2012 <textPrint+0x146>
     c40: a0 01        	ldy	#$1
     c42: 8a           	txa
     c43: 91 12        	sta	($12),y                 ; 0x2012 <textPrint+0x146>
     c45: b2 12        	lda	($12)                   ; 0x2012 <textPrint+0x146>
     c47: 85 14        	sta	$14                     ; 0x2014 <textPrint+0x148>
     c49: b1 12        	lda	($12),y                 ; 0x2012 <textPrint+0x146>
     c4b: a6 14        	ldx	$14                     ; 0x2014 <textPrint+0x148>
     c4d: 8e a4 d6     	stx	$d6a4                   ; 0xd6a4 <end_block9+0x6bb0>
     c50: 8d a5 d6     	sta	$d6a5                   ; 0xd6a5 <end_block9+0x6bb1>
     c53: a2 03        	ldx	#$3
     c55: 8e a6 d6     	stx	$d6a6                   ; 0xd6a6 <end_block9+0x6bb2>
     c58: 18           	clc
     c59: a5 10        	lda	$10                     ; 0x2010 <textPrint+0x144>
     c5b: 69 02        	adc	#$2
     c5d: 85 10        	sta	$10                     ; 0x2010 <textPrint+0x144>
     c5f: a5 11        	lda	$11                     ; 0x2011 <textPrint+0x145>
     c61: 69 00        	adc	#$0
     c63: 85 11        	sta	$11                     ; 0x2011 <textPrint+0x145>
     c65: 60           	rts

00000c66 <spriteSetVisible>:
     c66: 48           	pha
     c67: 18           	clc
     c68: a5 10        	lda	$10                     ; 0x2010 <textPrint+0x144>
     c6a: 69 fc        	adc	#$fc
     c6c: 85 10        	sta	$10                     ; 0x2010 <textPrint+0x144>
     c6e: a5 11        	lda	$11                     ; 0x2011 <textPrint+0x145>
     c70: 69 ff        	adc	#$ff
     c72: 85 11        	sta	$11                     ; 0x2011 <textPrint+0x145>
     c74: 18           	clc
     c75: a5 10        	lda	$10                     ; 0x2010 <textPrint+0x144>
     c77: 69 03        	adc	#$3
     c79: 85 14        	sta	$14                     ; 0x2014 <textPrint+0x148>
     c7b: a5 11        	lda	$11                     ; 0x2011 <textPrint+0x145>
     c7d: 69 00        	adc	#$0
     c7f: 85 15        	sta	$15                     ; 0x2015 <textPrint+0x149>
     c81: 68           	pla
     c82: 92 14        	sta	($14)                   ; 0x2014 <textPrint+0x148>
     c84: 18           	clc
     c85: a5 10        	lda	$10                     ; 0x2010 <textPrint+0x144>
     c87: 69 02        	adc	#$2
     c89: 85 12        	sta	$12                     ; 0x2012 <textPrint+0x146>
     c8b: a5 11        	lda	$11                     ; 0x2011 <textPrint+0x145>
     c8d: 69 00        	adc	#$0
     c8f: 85 13        	sta	$13                     ; 0x2013 <textPrint+0x147>
     c91: a9 00        	lda	#$0
     c93: 92 12        	sta	($12)                   ; 0x2012 <textPrint+0x146>
     c95: b2 14        	lda	($14)                   ; 0x2014 <textPrint+0x148>
     c97: 85 14        	sta	$14                     ; 0x2014 <textPrint+0x148>
     c99: 06 14        	asl	$14                     ; 0x2014 <textPrint+0x148>
     c9b: a9 00        	lda	#$0
     c9d: 2a           	rol
     c9e: 06 14        	asl	$14                     ; 0x2014 <textPrint+0x148>
     ca0: 2a           	rol
     ca1: 06 14        	asl	$14                     ; 0x2014 <textPrint+0x148>
     ca3: 2a           	rol
     ca4: aa           	tax
     ca5: a5 14        	lda	$14                     ; 0x2014 <textPrint+0x148>
     ca7: 18           	clc
     ca8: 69 00        	adc	#$0
     caa: 85 16        	sta	$16                     ; 0x2016 <textPrint+0x14a>
     cac: 8a           	txa
     cad: 69 d9        	adc	#$d9
     caf: 85 17        	sta	$17                     ; 0x2017 <textPrint+0x14b>
     cb1: 18           	clc
     cb2: a6 10        	ldx	$10                     ; 0x2010 <textPrint+0x144>
     cb4: 86 14        	stx	$14                     ; 0x2014 <textPrint+0x148>
     cb6: a6 11        	ldx	$11                     ; 0x2011 <textPrint+0x145>
     cb8: 86 15        	stx	$15                     ; 0x2015 <textPrint+0x149>
     cba: a5 16        	lda	$16                     ; 0x2016 <textPrint+0x14a>
     cbc: 92 14        	sta	($14)                   ; 0x2014 <textPrint+0x148>
     cbe: a0 01        	ldy	#$1
     cc0: a5 17        	lda	$17                     ; 0x2017 <textPrint+0x14b>
     cc2: 91 14        	sta	($14),y                 ; 0x2014 <textPrint+0x148>
     cc4: b2 12        	lda	($12)                   ; 0x2012 <textPrint+0x146>
     cc6: 85 16        	sta	$16                     ; 0x2016 <textPrint+0x14a>
     cc8: b2 14        	lda	($14)                   ; 0x2014 <textPrint+0x148>
     cca: 85 12        	sta	$12                     ; 0x2012 <textPrint+0x146>
     ccc: b1 14        	lda	($14),y                 ; 0x2014 <textPrint+0x148>
     cce: 85 13        	sta	$13                     ; 0x2013 <textPrint+0x147>
     cd0: a5 16        	lda	$16                     ; 0x2016 <textPrint+0x14a>
     cd2: 92 12        	sta	($12)                   ; 0x2012 <textPrint+0x146>
     cd4: 18           	clc
     cd5: a5 10        	lda	$10                     ; 0x2010 <textPrint+0x144>
     cd7: 69 04        	adc	#$4
     cd9: 85 10        	sta	$10                     ; 0x2010 <textPrint+0x144>
     cdb: a5 11        	lda	$11                     ; 0x2011 <textPrint+0x145>
     cdd: 69 00        	adc	#$0
     cdf: 85 11        	sta	$11                     ; 0x2011 <textPrint+0x145>
     ce1: 60           	rts

00000ce2 <tileSetVisible>:
     ce2: 48           	pha
     ce3: 18           	clc
     ce4: a5 10        	lda	$10                     ; 0x2010 <textPrint+0x144>
     ce6: 69 fe        	adc	#$fe
     ce8: 85 10        	sta	$10                     ; 0x2010 <textPrint+0x144>
     cea: a5 11        	lda	$11                     ; 0x2011 <textPrint+0x145>
     cec: 69 ff        	adc	#$ff
     cee: 85 11        	sta	$11                     ; 0x2011 <textPrint+0x145>
     cf0: 18           	clc
     cf1: a5 10        	lda	$10                     ; 0x2010 <textPrint+0x144>
     cf3: 69 01        	adc	#$1
     cf5: 85 12        	sta	$12                     ; 0x2012 <textPrint+0x146>
     cf7: a5 11        	lda	$11                     ; 0x2011 <textPrint+0x145>
     cf9: 69 00        	adc	#$0
     cfb: 85 13        	sta	$13                     ; 0x2013 <textPrint+0x147>
     cfd: 68           	pla
     cfe: 92 12        	sta	($12)                   ; 0x2012 <textPrint+0x146>
     d00: 18           	clc
     d01: a6 10        	ldx	$10                     ; 0x2010 <textPrint+0x144>
     d03: 86 14        	stx	$14                     ; 0x2014 <textPrint+0x148>
     d05: a6 11        	ldx	$11                     ; 0x2011 <textPrint+0x145>
     d07: 86 15        	stx	$15                     ; 0x2015 <textPrint+0x149>
     d09: a9 00        	lda	#$0
     d0b: 92 14        	sta	($14)                   ; 0x2014 <textPrint+0x148>
     d0d: b2 12        	lda	($12)                   ; 0x2012 <textPrint+0x146>
     d0f: f0 1c        	beq	$d2d <tileSetVisible+0x4b>
     d11: 80 00        	bra	$d13 <tileSetVisible+0x31>
     d13: c9 01        	cmp	#$1
     d15: f0 02        	beq	$d19 <tileSetVisible+0x37>
     d17: 80 02        	bra	$d1b <tileSetVisible+0x39>
     d19: 80 42        	bra	$d5d <tileSetVisible+0x7b>
     d1b: 80 00        	bra	$d1d <tileSetVisible+0x3b>
     d1d: 80 00        	bra	$d1f <tileSetVisible+0x3d>
     d1f: c9 02        	cmp	#$2
     d21: f0 02        	beq	$d25 <tileSetVisible+0x43>
     d23: 80 03        	bra	$d28 <tileSetVisible+0x46>
     d25: 4c 8c 0d     	jmp	$d8c <tileSetVisible+0xaa>
     d28: 80 00        	bra	$d2a <tileSetVisible+0x48>
     d2a: 4c b9 0d     	jmp	$db9 <tileSetVisible+0xd7>
     d2d: a9 01        	lda	#$1
     d2f: 25 48        	and	$48                     ; 0x2048 <textPrint+0x17c>
     d31: 0a           	asl
     d32: 0a           	asl
     d33: 0a           	asl
     d34: c9 08        	cmp	#$8
     d36: f0 02        	beq	$d3a <tileSetVisible+0x58>
     d38: 80 02        	bra	$d3c <tileSetVisible+0x5a>
     d3a: 80 04        	bra	$d40 <tileSetVisible+0x5e>
     d3c: 80 00        	bra	$d3e <tileSetVisible+0x5c>
     d3e: 80 04        	bra	$d44 <tileSetVisible+0x62>
     d40: a9 01        	lda	#$1
     d42: 80 04        	bra	$d48 <tileSetVisible+0x66>
     d44: a9 00        	lda	#$0
     d46: 80 00        	bra	$d48 <tileSetVisible+0x66>
     d48: 0a           	asl
     d49: 0a           	asl
     d4a: 0a           	asl
     d4b: 0a           	asl
     d4c: 18           	clc
     d4d: a6 10        	ldx	$10                     ; 0x2010 <textPrint+0x144>
     d4f: 86 12        	stx	$12                     ; 0x2012 <textPrint+0x146>
     d51: a6 11        	ldx	$11                     ; 0x2011 <textPrint+0x145>
     d53: 86 13        	stx	$13                     ; 0x2013 <textPrint+0x147>
     d55: 12 12        	ora	($12)                   ; 0x2012 <textPrint+0x146>
     d57: 8d 00 d2     	sta	$d200                   ; 0xd200 <end_block9+0x670c>
     d5a: 4c b9 0d     	jmp	$db9 <tileSetVisible+0xd7>
     d5d: a9 01        	lda	#$1
     d5f: 25 49        	and	$49                     ; 0x2049 <textPrint+0x17d>
     d61: 0a           	asl
     d62: 0a           	asl
     d63: 0a           	asl
     d64: c9 08        	cmp	#$8
     d66: f0 02        	beq	$d6a <tileSetVisible+0x88>
     d68: 80 02        	bra	$d6c <tileSetVisible+0x8a>
     d6a: 80 04        	bra	$d70 <tileSetVisible+0x8e>
     d6c: 80 00        	bra	$d6e <tileSetVisible+0x8c>
     d6e: 80 04        	bra	$d74 <tileSetVisible+0x92>
     d70: a9 01        	lda	#$1
     d72: 80 04        	bra	$d78 <tileSetVisible+0x96>
     d74: a9 00        	lda	#$0
     d76: 80 00        	bra	$d78 <tileSetVisible+0x96>
     d78: 0a           	asl
     d79: 0a           	asl
     d7a: 0a           	asl
     d7b: 0a           	asl
     d7c: 18           	clc
     d7d: a6 10        	ldx	$10                     ; 0x2010 <textPrint+0x144>
     d7f: 86 12        	stx	$12                     ; 0x2012 <textPrint+0x146>
     d81: a6 11        	ldx	$11                     ; 0x2011 <textPrint+0x145>
     d83: 86 13        	stx	$13                     ; 0x2013 <textPrint+0x147>
     d85: 12 12        	ora	($12)                   ; 0x2012 <textPrint+0x146>
     d87: 8d 0c d2     	sta	$d20c                   ; 0xd20c <end_block9+0x6718>
     d8a: 80 2d        	bra	$db9 <tileSetVisible+0xd7>
     d8c: a9 01        	lda	#$1
     d8e: 25 4a        	and	$4a                     ; 0x204a <textPrint+0x17e>
     d90: 0a           	asl
     d91: 0a           	asl
     d92: 0a           	asl
     d93: c9 08        	cmp	#$8
     d95: f0 02        	beq	$d99 <tileSetVisible+0xb7>
     d97: 80 02        	bra	$d9b <tileSetVisible+0xb9>
     d99: 80 04        	bra	$d9f <tileSetVisible+0xbd>
     d9b: 80 00        	bra	$d9d <tileSetVisible+0xbb>
     d9d: 80 04        	bra	$da3 <tileSetVisible+0xc1>
     d9f: a9 01        	lda	#$1
     da1: 80 04        	bra	$da7 <tileSetVisible+0xc5>
     da3: a9 00        	lda	#$0
     da5: 80 00        	bra	$da7 <tileSetVisible+0xc5>
     da7: 0a           	asl
     da8: 0a           	asl
     da9: 0a           	asl
     daa: 0a           	asl
     dab: 18           	clc
     dac: a6 10        	ldx	$10                     ; 0x2010 <textPrint+0x144>
     dae: 86 12        	stx	$12                     ; 0x2012 <textPrint+0x146>
     db0: a6 11        	ldx	$11                     ; 0x2011 <textPrint+0x145>
     db2: 86 13        	stx	$13                     ; 0x2013 <textPrint+0x147>
     db4: 12 12        	ora	($12)                   ; 0x2012 <textPrint+0x146>
     db6: 8d 18 d2     	sta	$d218                   ; 0xd218 <end_block9+0x6724>
     db9: 18           	clc
     dba: a5 10        	lda	$10                     ; 0x2010 <textPrint+0x144>
     dbc: 69 02        	adc	#$2
     dbe: 85 10        	sta	$10                     ; 0x2010 <textPrint+0x144>
     dc0: a5 11        	lda	$11                     ; 0x2011 <textPrint+0x145>
     dc2: 69 00        	adc	#$0
     dc4: 85 11        	sta	$11                     ; 0x2011 <textPrint+0x145>
     dc6: 60           	rts

00000dc7 <bitmapSetVisible>:
     dc7: 48           	pha
     dc8: 18           	clc
     dc9: a5 10        	lda	$10                     ; 0x2010 <textPrint+0x144>
     dcb: 69 fe        	adc	#$fe
     dcd: 85 10        	sta	$10                     ; 0x2010 <textPrint+0x144>
     dcf: a5 11        	lda	$11                     ; 0x2011 <textPrint+0x145>
     dd1: 69 ff        	adc	#$ff
     dd3: 85 11        	sta	$11                     ; 0x2011 <textPrint+0x145>
     dd5: 18           	clc
     dd6: a5 10        	lda	$10                     ; 0x2010 <textPrint+0x144>
     dd8: 69 01        	adc	#$1
     dda: 85 12        	sta	$12                     ; 0x2012 <textPrint+0x146>
     ddc: a5 11        	lda	$11                     ; 0x2011 <textPrint+0x145>
     dde: 69 00        	adc	#$0
     de0: 85 13        	sta	$13                     ; 0x2013 <textPrint+0x147>
     de2: 68           	pla
     de3: 92 12        	sta	($12)                   ; 0x2012 <textPrint+0x146>
     de5: 18           	clc
     de6: a4 10        	ldy	$10                     ; 0x2010 <textPrint+0x144>
     de8: 84 14        	sty	$14                     ; 0x2014 <textPrint+0x148>
     dea: a4 11        	ldy	$11                     ; 0x2011 <textPrint+0x145>
     dec: 84 15        	sty	$15                     ; 0x2015 <textPrint+0x149>
     dee: 8a           	txa
     def: 92 14        	sta	($14)                   ; 0x2014 <textPrint+0x148>
     df1: b2 12        	lda	($12)                   ; 0x2012 <textPrint+0x146>
     df3: f0 1c        	beq	$e11 <bitmapSetVisible+0x4a>
     df5: 80 00        	bra	$df7 <bitmapSetVisible+0x30>
     df7: c9 01        	cmp	#$1
     df9: f0 02        	beq	$dfd <bitmapSetVisible+0x36>
     dfb: 80 02        	bra	$dff <bitmapSetVisible+0x38>
     dfd: 80 3f        	bra	$e3e <bitmapSetVisible+0x77>
     dff: 80 00        	bra	$e01 <bitmapSetVisible+0x3a>
     e01: 80 00        	bra	$e03 <bitmapSetVisible+0x3c>
     e03: c9 02        	cmp	#$2
     e05: f0 02        	beq	$e09 <bitmapSetVisible+0x42>
     e07: 80 03        	bra	$e0c <bitmapSetVisible+0x45>
     e09: 4c 6a 0e     	jmp	$e6a <bitmapSetVisible+0xa3>
     e0c: 80 00        	bra	$e0e <bitmapSetVisible+0x47>
     e0e: 4c 94 0e     	jmp	$e94 <bitmapSetVisible+0xcd>
     e11: 18           	clc
     e12: a6 10        	ldx	$10                     ; 0x2010 <textPrint+0x144>
     e14: 86 12        	stx	$12                     ; 0x2012 <textPrint+0x146>
     e16: a6 11        	ldx	$11                     ; 0x2011 <textPrint+0x145>
     e18: 86 13        	stx	$13                     ; 0x2013 <textPrint+0x147>
     e1a: b2 12        	lda	($12)                   ; 0x2012 <textPrint+0x146>
     e1c: f0 18        	beq	$e36 <bitmapSetVisible+0x6f>
     e1e: 80 00        	bra	$e20 <bitmapSetVisible+0x59>
     e20: 18           	clc
     e21: a5 10        	lda	$10                     ; 0x2010 <textPrint+0x144>
     e23: 69 01        	adc	#$1
     e25: 85 12        	sta	$12                     ; 0x2012 <textPrint+0x146>
     e27: a5 11        	lda	$11                     ; 0x2011 <textPrint+0x145>
     e29: 69 00        	adc	#$0
     e2b: 85 13        	sta	$13                     ; 0x2013 <textPrint+0x147>
     e2d: b2 12        	lda	($12)                   ; 0x2012 <textPrint+0x146>
     e2f: aa           	tax
     e30: a9 01        	lda	#$1
     e32: 15 45        	ora	$45,x                   ; 0x2045 <textPrint+0x179>
     e34: 80 02        	bra	$e38 <bitmapSetVisible+0x71>
     e36: a9 00        	lda	#$0
     e38: 8d 00 d1     	sta	$d100                   ; 0xd100 <end_block9+0x660c>
     e3b: 4c 94 0e     	jmp	$e94 <bitmapSetVisible+0xcd>
     e3e: 18           	clc
     e3f: a6 10        	ldx	$10                     ; 0x2010 <textPrint+0x144>
     e41: 86 12        	stx	$12                     ; 0x2012 <textPrint+0x146>
     e43: a6 11        	ldx	$11                     ; 0x2011 <textPrint+0x145>
     e45: 86 13        	stx	$13                     ; 0x2013 <textPrint+0x147>
     e47: b2 12        	lda	($12)                   ; 0x2012 <textPrint+0x146>
     e49: f0 18        	beq	$e63 <bitmapSetVisible+0x9c>
     e4b: 80 00        	bra	$e4d <bitmapSetVisible+0x86>
     e4d: 18           	clc
     e4e: a5 10        	lda	$10                     ; 0x2010 <textPrint+0x144>
     e50: 69 01        	adc	#$1
     e52: 85 12        	sta	$12                     ; 0x2012 <textPrint+0x146>
     e54: a5 11        	lda	$11                     ; 0x2011 <textPrint+0x145>
     e56: 69 00        	adc	#$0
     e58: 85 13        	sta	$13                     ; 0x2013 <textPrint+0x147>
     e5a: b2 12        	lda	($12)                   ; 0x2012 <textPrint+0x146>
     e5c: aa           	tax
     e5d: a9 01        	lda	#$1
     e5f: 15 45        	ora	$45,x                   ; 0x2045 <textPrint+0x179>
     e61: 80 02        	bra	$e65 <bitmapSetVisible+0x9e>
     e63: a9 00        	lda	#$0
     e65: 8d 08 d1     	sta	$d108                   ; 0xd108 <end_block9+0x6614>
     e68: 80 2a        	bra	$e94 <bitmapSetVisible+0xcd>
     e6a: 18           	clc
     e6b: a6 10        	ldx	$10                     ; 0x2010 <textPrint+0x144>
     e6d: 86 12        	stx	$12                     ; 0x2012 <textPrint+0x146>
     e6f: a6 11        	ldx	$11                     ; 0x2011 <textPrint+0x145>
     e71: 86 13        	stx	$13                     ; 0x2013 <textPrint+0x147>
     e73: b2 12        	lda	($12)                   ; 0x2012 <textPrint+0x146>
     e75: f0 18        	beq	$e8f <bitmapSetVisible+0xc8>
     e77: 80 00        	bra	$e79 <bitmapSetVisible+0xb2>
     e79: 18           	clc
     e7a: a5 10        	lda	$10                     ; 0x2010 <textPrint+0x144>
     e7c: 69 01        	adc	#$1
     e7e: 85 12        	sta	$12                     ; 0x2012 <textPrint+0x146>
     e80: a5 11        	lda	$11                     ; 0x2011 <textPrint+0x145>
     e82: 69 00        	adc	#$0
     e84: 85 13        	sta	$13                     ; 0x2013 <textPrint+0x147>
     e86: b2 12        	lda	($12)                   ; 0x2012 <textPrint+0x146>
     e88: aa           	tax
     e89: a9 01        	lda	#$1
     e8b: 15 45        	ora	$45,x                   ; 0x2045 <textPrint+0x179>
     e8d: 80 02        	bra	$e91 <bitmapSetVisible+0xca>
     e8f: a9 00        	lda	#$0
     e91: 8d 10 d1     	sta	$d110                   ; 0xd110 <end_block9+0x661c>
     e94: 18           	clc
     e95: a5 10        	lda	$10                     ; 0x2010 <textPrint+0x144>
     e97: 69 02        	adc	#$2
     e99: 85 10        	sta	$10                     ; 0x2010 <textPrint+0x144>
     e9b: a5 11        	lda	$11                     ; 0x2011 <textPrint+0x145>
     e9d: 69 00        	adc	#$0
     e9f: 85 11        	sta	$11                     ; 0x2011 <textPrint+0x145>
     ea1: 60           	rts

00000ea2 <textSetDouble>:
     ea2: 18           	clc
     ea3: a5 10        	lda	$10                     ; 0x2010 <textPrint+0x144>
     ea5: 69 fe        	adc	#$fe
     ea7: 85 10        	sta	$10                     ; 0x2010 <textPrint+0x144>
     ea9: a5 11        	lda	$11                     ; 0x2011 <textPrint+0x145>
     eab: 69 ff        	adc	#$ff
     ead: 85 11        	sta	$11                     ; 0x2011 <textPrint+0x145>
     eaf: 18           	clc
     eb0: a5 10        	lda	$10                     ; 0x2010 <textPrint+0x144>
     eb2: 69 01        	adc	#$1
     eb4: 85 12        	sta	$12                     ; 0x2012 <textPrint+0x146>
     eb6: a5 11        	lda	$11                     ; 0x2011 <textPrint+0x145>
     eb8: 69 00        	adc	#$0
     eba: 85 13        	sta	$13                     ; 0x2013 <textPrint+0x147>
     ebc: a9 00        	lda	#$0
     ebe: 92 12        	sta	($12)                   ; 0x2012 <textPrint+0x146>
     ec0: 18           	clc
     ec1: a6 10        	ldx	$10                     ; 0x2010 <textPrint+0x144>
     ec3: 86 14        	stx	$14                     ; 0x2014 <textPrint+0x148>
     ec5: a6 11        	ldx	$11                     ; 0x2011 <textPrint+0x145>
     ec7: 86 15        	stx	$15                     ; 0x2015 <textPrint+0x149>
     ec9: 1a           	inc
     eca: 92 14        	sta	($14)                   ; 0x2014 <textPrint+0x148>
     ecc: ad 01 d0     	lda	$d001                   ; 0xd001 <end_block9+0x650d>
     ecf: 29 f9        	and	#$f9
     ed1: aa           	tax
     ed2: b2 12        	lda	($12)                   ; 0x2012 <textPrint+0x146>
     ed4: 85 16        	sta	$16                     ; 0x2016 <textPrint+0x14a>
     ed6: 06 16        	asl	$16                     ; 0x2016 <textPrint+0x14a>
     ed8: 8a           	txa
     ed9: 05 16        	ora	$16                     ; 0x2016 <textPrint+0x14a>
     edb: aa           	tax
     edc: b2 14        	lda	($14)                   ; 0x2014 <textPrint+0x148>
     ede: 0a           	asl
     edf: 85 14        	sta	$14                     ; 0x2014 <textPrint+0x148>
     ee1: 06 14        	asl	$14                     ; 0x2014 <textPrint+0x148>
     ee3: 8a           	txa
     ee4: 05 14        	ora	$14                     ; 0x2014 <textPrint+0x148>
     ee6: 8d 01 d0     	sta	$d001                   ; 0xd001 <end_block9+0x650d>
     ee9: b2 12        	lda	($12)                   ; 0x2012 <textPrint+0x146>
     eeb: f0 02        	beq	$eef <textSetDouble+0x4d>
     eed: 80 02        	bra	$ef1 <textSetDouble+0x4f>
     eef: 80 04        	bra	$ef5 <textSetDouble+0x53>
     ef1: 80 00        	bra	$ef3 <textSetDouble+0x51>
     ef3: 80 02        	bra	$ef7 <textSetDouble+0x55>
     ef5: 80 02        	bra	$ef9 <textSetDouble+0x57>
     ef7: 80 02        	bra	$efb <textSetDouble+0x59>
     ef9: 80 04        	bra	$eff <textSetDouble+0x5d>
     efb: a2 28        	ldx	#$28
     efd: 80 04        	bra	$f03 <textSetDouble+0x61>
     eff: a2 50        	ldx	#$50
     f01: 80 00        	bra	$f03 <textSetDouble+0x61>
     f03: 86 30        	stx	$30                     ; 0x2030 <textPrint+0x164>
     f05: 18           	clc
     f06: a6 10        	ldx	$10                     ; 0x2010 <textPrint+0x144>
     f08: 86 12        	stx	$12                     ; 0x2012 <textPrint+0x146>
     f0a: a6 11        	ldx	$11                     ; 0x2011 <textPrint+0x145>
     f0c: 86 13        	stx	$13                     ; 0x2013 <textPrint+0x147>
     f0e: b2 12        	lda	($12)                   ; 0x2012 <textPrint+0x146>
     f10: f0 02        	beq	$f14 <textSetDouble+0x72>
     f12: 80 02        	bra	$f16 <textSetDouble+0x74>
     f14: 80 04        	bra	$f1a <textSetDouble+0x78>
     f16: 80 00        	bra	$f18 <textSetDouble+0x76>
     f18: 80 02        	bra	$f1c <textSetDouble+0x7a>
     f1a: 80 02        	bra	$f1e <textSetDouble+0x7c>
     f1c: 80 02        	bra	$f20 <textSetDouble+0x7e>
     f1e: 80 04        	bra	$f24 <textSetDouble+0x82>
     f20: a2 1e        	ldx	#$1e
     f22: 80 04        	bra	$f28 <textSetDouble+0x86>
     f24: a2 3c        	ldx	#$3c
     f26: 80 00        	bra	$f28 <textSetDouble+0x86>
     f28: 86 31        	stx	$31                     ; 0x2031 <textPrint+0x165>
     f2a: 18           	clc
     f2b: a5 10        	lda	$10                     ; 0x2010 <textPrint+0x144>
     f2d: 69 02        	adc	#$2
     f2f: 85 10        	sta	$10                     ; 0x2010 <textPrint+0x144>
     f31: a5 11        	lda	$11                     ; 0x2011 <textPrint+0x145>
     f33: 69 00        	adc	#$0
     f35: 85 11        	sta	$11                     ; 0x2011 <textPrint+0x145>
     f37: 60           	rts

00000f38 <textSetCursor>:
     f38: 18           	clc
     f39: a5 10        	lda	$10                     ; 0x2010 <textPrint+0x144>
     f3b: 69 ff        	adc	#$ff
     f3d: 85 10        	sta	$10                     ; 0x2010 <textPrint+0x144>
     f3f: a5 11        	lda	$11                     ; 0x2011 <textPrint+0x145>
     f41: 69 ff        	adc	#$ff
     f43: 85 11        	sta	$11                     ; 0x2011 <textPrint+0x145>
     f45: 18           	clc
     f46: a6 10        	ldx	$10                     ; 0x2010 <textPrint+0x144>
     f48: 86 12        	stx	$12                     ; 0x2012 <textPrint+0x146>
     f4a: 85 13        	sta	$13                     ; 0x2013 <textPrint+0x147>
     f4c: a9 00        	lda	#$0
     f4e: 92 12        	sta	($12)                   ; 0x2012 <textPrint+0x146>
     f50: b2 12        	lda	($12)                   ; 0x2012 <textPrint+0x146>
     f52: d0 07        	bne	$f5b <textSetCursor+0x23>
     f54: 80 00        	bra	$f56 <textSetCursor+0x1e>
     f56: 9c 10 d0     	stz	$d010                   ; 0xd010 <end_block9+0x651c>
     f59: 80 13        	bra	$f6e <textSetCursor+0x36>
     f5b: a2 03        	ldx	#$3
     f5d: 8e 10 d0     	stx	$d010                   ; 0xd010 <end_block9+0x651c>
     f60: 18           	clc
     f61: a6 10        	ldx	$10                     ; 0x2010 <textPrint+0x144>
     f63: 86 12        	stx	$12                     ; 0x2012 <textPrint+0x146>
     f65: a6 11        	ldx	$11                     ; 0x2011 <textPrint+0x145>
     f67: 86 13        	stx	$13                     ; 0x2013 <textPrint+0x147>
     f69: b2 12        	lda	($12)                   ; 0x2012 <textPrint+0x146>
     f6b: 8d 12 d0     	sta	$d012                   ; 0xd012 <end_block9+0x651e>
     f6e: 18           	clc
     f6f: a5 10        	lda	$10                     ; 0x2010 <textPrint+0x144>
     f71: 69 01        	adc	#$1
     f73: 85 10        	sta	$10                     ; 0x2010 <textPrint+0x144>
     f75: a5 11        	lda	$11                     ; 0x2011 <textPrint+0x145>
     f77: 69 00        	adc	#$0
     f79: 85 11        	sta	$11                     ; 0x2011 <textPrint+0x145>
     f7b: 60           	rts

00000f7c <textDefineForegroundColor>:
     f7c: 48           	pha
     f7d: 18           	clc
     f7e: a5 10        	lda	$10                     ; 0x2010 <textPrint+0x144>
     f80: 69 f8        	adc	#$f8
     f82: 85 10        	sta	$10                     ; 0x2010 <textPrint+0x144>
     f84: a5 11        	lda	$11                     ; 0x2011 <textPrint+0x145>
     f86: 69 ff        	adc	#$ff
     f88: 85 11        	sta	$11                     ; 0x2011 <textPrint+0x145>
     f8a: 68           	pla
     f8b: a4 24        	ldy	$24                     ; 0x2024 <textPrint+0x158>
     f8d: 5a           	phy
     f8e: a4 25        	ldy	$25                     ; 0x2025 <textPrint+0x159>
     f90: 5a           	phy
     f91: a4 26        	ldy	$26                     ; 0x2026 <textPrint+0x15a>
     f93: 5a           	phy
     f94: a4 27        	ldy	$27                     ; 0x2027 <textPrint+0x15b>
     f96: 5a           	phy
     f97: 48           	pha
     f98: a5 28        	lda	$28                     ; 0x2028 <textPrint+0x15c>
     f9a: a0 01        	ldy	#$1
     f9c: 91 10        	sta	($10),y                 ; 0x2010 <textPrint+0x144>
     f9e: a5 29        	lda	$29                     ; 0x2029 <textPrint+0x15d>
     fa0: 88           	dey
     fa1: 91 10        	sta	($10),y                 ; 0x2010 <textPrint+0x144>
     fa3: 86 14        	stx	$14                     ; 0x2014 <textPrint+0x148>
     fa5: a4 12        	ldy	$12                     ; 0x2012 <textPrint+0x146>
     fa7: a6 13        	ldx	$13                     ; 0x2013 <textPrint+0x147>
     fa9: 18           	clc
     faa: a5 10        	lda	$10                     ; 0x2010 <textPrint+0x144>
     fac: 69 07        	adc	#$7
     fae: 85 12        	sta	$12                     ; 0x2012 <textPrint+0x146>
     fb0: a5 11        	lda	$11                     ; 0x2011 <textPrint+0x145>
     fb2: 69 00        	adc	#$0
     fb4: 85 13        	sta	$13                     ; 0x2013 <textPrint+0x147>
     fb6: 68           	pla
     fb7: 92 12        	sta	($12)                   ; 0x2012 <textPrint+0x146>
     fb9: 18           	clc
     fba: a5 10        	lda	$10                     ; 0x2010 <textPrint+0x144>
     fbc: 69 06        	adc	#$6
     fbe: 85 24        	sta	$24                     ; 0x2024 <textPrint+0x158>
     fc0: a5 11        	lda	$11                     ; 0x2011 <textPrint+0x145>
     fc2: 69 00        	adc	#$0
     fc4: 85 25        	sta	$25                     ; 0x2025 <textPrint+0x159>
     fc6: a5 14        	lda	$14                     ; 0x2014 <textPrint+0x148>
     fc8: 92 24        	sta	($24)                   ; 0x2024 <textPrint+0x158>
     fca: 18           	clc
     fcb: a5 10        	lda	$10                     ; 0x2010 <textPrint+0x144>
     fcd: 69 05        	adc	#$5
     fcf: 85 26        	sta	$26                     ; 0x2026 <textPrint+0x15a>
     fd1: a5 11        	lda	$11                     ; 0x2011 <textPrint+0x145>
     fd3: 69 00        	adc	#$0
     fd5: 85 27        	sta	$27                     ; 0x2027 <textPrint+0x15b>
     fd7: 98           	tya
     fd8: 92 26        	sta	($26)                   ; 0x2026 <textPrint+0x15a>
     fda: 18           	clc
     fdb: a5 10        	lda	$10                     ; 0x2010 <textPrint+0x144>
     fdd: 69 04        	adc	#$4
     fdf: 85 28        	sta	$28                     ; 0x2028 <textPrint+0x15c>
     fe1: a5 11        	lda	$11                     ; 0x2011 <textPrint+0x145>
     fe3: 69 00        	adc	#$0
     fe5: 85 29        	sta	$29                     ; 0x2029 <textPrint+0x15d>
     fe7: 8a           	txa
     fe8: 92 28        	sta	($28)                   ; 0x2028 <textPrint+0x15c>
     fea: b2 12        	lda	($12)                   ; 0x2012 <textPrint+0x146>
     fec: a2 04        	ldx	#$4
     fee: 86 12        	stx	$12                     ; 0x2012 <textPrint+0x146>
     ff0: 64 13        	stz	$13                     ; 0x2013 <textPrint+0x147>
     ff2: a2 00        	ldx	#$0
     ff4: 20 ad 0b     	jsr	$bad <mathUnsignedMultiply>
     ff7: 85 12        	sta	$12                     ; 0x2012 <textPrint+0x146>
     ff9: 86 13        	stx	$13                     ; 0x2013 <textPrint+0x147>
     ffb: 18           	clc
     ffc: a9 00        	lda	#$0
     ffe: 65 12        	adc	$12                     ; 0x2012 <textPrint+0x146>
    1000: 85 14        	sta	$14                     ; 0x2014 <textPrint+0x148>
    1002: a9 d8        	lda	#$d8
    1004: 65 13        	adc	$13                     ; 0x2013 <textPrint+0x147>
    1006: aa           	tax
    1007: 18           	clc
    1008: a5 10        	lda	$10                     ; 0x2010 <textPrint+0x144>
    100a: 69 02        	adc	#$2
    100c: 85 12        	sta	$12                     ; 0x2012 <textPrint+0x146>
    100e: a5 11        	lda	$11                     ; 0x2011 <textPrint+0x145>
    1010: 69 00        	adc	#$0
    1012: 85 13        	sta	$13                     ; 0x2013 <textPrint+0x147>
    1014: a5 14        	lda	$14                     ; 0x2014 <textPrint+0x148>
    1016: 92 12        	sta	($12)                   ; 0x2012 <textPrint+0x146>
    1018: a0 01        	ldy	#$1
    101a: 8a           	txa
    101b: 91 12        	sta	($12),y                 ; 0x2012 <textPrint+0x146>
    101d: b2 28        	lda	($28)                   ; 0x2028 <textPrint+0x15c>
    101f: 85 18        	sta	$18                     ; 0x2018 <textPrint+0x14c>
    1021: b2 12        	lda	($12)                   ; 0x2012 <textPrint+0x146>
    1023: 85 14        	sta	$14                     ; 0x2014 <textPrint+0x148>
    1025: b1 12        	lda	($12),y                 ; 0x2012 <textPrint+0x146>
    1027: 85 15        	sta	$15                     ; 0x2015 <textPrint+0x149>
    1029: a6 14        	ldx	$14                     ; 0x2014 <textPrint+0x148>
    102b: 86 16        	stx	$16                     ; 0x2016 <textPrint+0x14a>
    102d: 85 17        	sta	$17                     ; 0x2017 <textPrint+0x14b>
    102f: e6 16        	inc	$16                     ; 0x2016 <textPrint+0x14a>
    1031: f0 03        	beq	$1036 <textDefineForegroundColor+0xba>
    1033: 4c 3b 10     	jmp	$103b <textDefineForegroundColor+0xbf>
    1036: e6 17        	inc	$17                     ; 0x2017 <textPrint+0x14b>
    1038: 4c 3b 10     	jmp	$103b <textDefineForegroundColor+0xbf>
    103b: a5 16        	lda	$16                     ; 0x2016 <textPrint+0x14a>
    103d: 92 12        	sta	($12)                   ; 0x2012 <textPrint+0x146>
    103f: a5 17        	lda	$17                     ; 0x2017 <textPrint+0x14b>
    1041: 91 12        	sta	($12),y                 ; 0x2012 <textPrint+0x146>
    1043: a5 18        	lda	$18                     ; 0x2018 <textPrint+0x14c>
    1045: 92 14        	sta	($14)                   ; 0x2014 <textPrint+0x148>
    1047: b2 26        	lda	($26)                   ; 0x2026 <textPrint+0x15a>
    1049: 85 18        	sta	$18                     ; 0x2018 <textPrint+0x14c>
    104b: b2 12        	lda	($12)                   ; 0x2012 <textPrint+0x146>
    104d: 85 14        	sta	$14                     ; 0x2014 <textPrint+0x148>
    104f: b1 12        	lda	($12),y                 ; 0x2012 <textPrint+0x146>
    1051: 85 15        	sta	$15                     ; 0x2015 <textPrint+0x149>
    1053: a6 14        	ldx	$14                     ; 0x2014 <textPrint+0x148>
    1055: 86 16        	stx	$16                     ; 0x2016 <textPrint+0x14a>
    1057: 85 17        	sta	$17                     ; 0x2017 <textPrint+0x14b>
    1059: e6 16        	inc	$16                     ; 0x2016 <textPrint+0x14a>
    105b: f0 03        	beq	$1060 <textDefineForegroundColor+0xe4>
    105d: 4c 65 10     	jmp	$1065 <textDefineForegroundColor+0xe9>
    1060: e6 17        	inc	$17                     ; 0x2017 <textPrint+0x14b>
    1062: 4c 65 10     	jmp	$1065 <textDefineForegroundColor+0xe9>
    1065: a5 16        	lda	$16                     ; 0x2016 <textPrint+0x14a>
    1067: 92 12        	sta	($12)                   ; 0x2012 <textPrint+0x146>
    1069: a5 17        	lda	$17                     ; 0x2017 <textPrint+0x14b>
    106b: 91 12        	sta	($12),y                 ; 0x2012 <textPrint+0x146>
    106d: a5 18        	lda	$18                     ; 0x2018 <textPrint+0x14c>
    106f: 92 14        	sta	($14)                   ; 0x2014 <textPrint+0x148>
    1071: b2 24        	lda	($24)                   ; 0x2024 <textPrint+0x158>
    1073: 85 18        	sta	$18                     ; 0x2018 <textPrint+0x14c>
    1075: b2 12        	lda	($12)                   ; 0x2012 <textPrint+0x146>
    1077: 85 14        	sta	$14                     ; 0x2014 <textPrint+0x148>
    1079: b1 12        	lda	($12),y                 ; 0x2012 <textPrint+0x146>
    107b: 85 15        	sta	$15                     ; 0x2015 <textPrint+0x149>
    107d: a6 14        	ldx	$14                     ; 0x2014 <textPrint+0x148>
    107f: 86 16        	stx	$16                     ; 0x2016 <textPrint+0x14a>
    1081: 85 17        	sta	$17                     ; 0x2017 <textPrint+0x14b>
    1083: e6 16        	inc	$16                     ; 0x2016 <textPrint+0x14a>
    1085: f0 03        	beq	$108a <textDefineForegroundColor+0x10e>
    1087: 4c 8f 10     	jmp	$108f <textDefineForegroundColor+0x113>
    108a: e6 17        	inc	$17                     ; 0x2017 <textPrint+0x14b>
    108c: 4c 8f 10     	jmp	$108f <textDefineForegroundColor+0x113>
    108f: a5 16        	lda	$16                     ; 0x2016 <textPrint+0x14a>
    1091: 92 12        	sta	($12)                   ; 0x2012 <textPrint+0x146>
    1093: a5 17        	lda	$17                     ; 0x2017 <textPrint+0x14b>
    1095: 91 12        	sta	($12),y                 ; 0x2012 <textPrint+0x146>
    1097: a5 18        	lda	$18                     ; 0x2018 <textPrint+0x14c>
    1099: 92 14        	sta	($14)                   ; 0x2014 <textPrint+0x148>
    109b: b2 12        	lda	($12)                   ; 0x2012 <textPrint+0x146>
    109d: 85 14        	sta	$14                     ; 0x2014 <textPrint+0x148>
    109f: b1 12        	lda	($12),y                 ; 0x2012 <textPrint+0x146>
    10a1: 85 15        	sta	$15                     ; 0x2015 <textPrint+0x149>
    10a3: a6 14        	ldx	$14                     ; 0x2014 <textPrint+0x148>
    10a5: 86 16        	stx	$16                     ; 0x2016 <textPrint+0x14a>
    10a7: 85 17        	sta	$17                     ; 0x2017 <textPrint+0x14b>
    10a9: e6 16        	inc	$16                     ; 0x2016 <textPrint+0x14a>
    10ab: f0 03        	beq	$10b0 <textDefineForegroundColor+0x134>
    10ad: 4c b5 10     	jmp	$10b5 <textDefineForegroundColor+0x139>
    10b0: e6 17        	inc	$17                     ; 0x2017 <textPrint+0x14b>
    10b2: 4c b5 10     	jmp	$10b5 <textDefineForegroundColor+0x139>
    10b5: a5 16        	lda	$16                     ; 0x2016 <textPrint+0x14a>
    10b7: 92 12        	sta	($12)                   ; 0x2012 <textPrint+0x146>
    10b9: a5 17        	lda	$17                     ; 0x2017 <textPrint+0x14b>
    10bb: 91 12        	sta	($12),y                 ; 0x2012 <textPrint+0x146>
    10bd: a9 ff        	lda	#$ff
    10bf: 92 14        	sta	($14)                   ; 0x2014 <textPrint+0x148>
    10c1: a0 00        	ldy	#$0
    10c3: b1 10        	lda	($10),y                 ; 0x2010 <textPrint+0x144>
    10c5: 85 29        	sta	$29                     ; 0x2029 <textPrint+0x15d>
    10c7: c8           	iny
    10c8: b1 10        	lda	($10),y                 ; 0x2010 <textPrint+0x144>
    10ca: 85 28        	sta	$28                     ; 0x2028 <textPrint+0x15c>
    10cc: fa           	plx
    10cd: 86 27        	stx	$27                     ; 0x2027 <textPrint+0x15b>
    10cf: fa           	plx
    10d0: 86 26        	stx	$26                     ; 0x2026 <textPrint+0x15a>
    10d2: fa           	plx
    10d3: 86 25        	stx	$25                     ; 0x2025 <textPrint+0x159>
    10d5: fa           	plx
    10d6: 86 24        	stx	$24                     ; 0x2024 <textPrint+0x158>
    10d8: 18           	clc
    10d9: a5 10        	lda	$10                     ; 0x2010 <textPrint+0x144>
    10db: 69 08        	adc	#$8
    10dd: 85 10        	sta	$10                     ; 0x2010 <textPrint+0x144>
    10df: a5 11        	lda	$11                     ; 0x2011 <textPrint+0x145>
    10e1: 69 00        	adc	#$0
    10e3: 85 11        	sta	$11                     ; 0x2011 <textPrint+0x145>
    10e5: 60           	rts

000010e6 <textDefineBackgroundColor>:
    10e6: 48           	pha
    10e7: 18           	clc
    10e8: a5 10        	lda	$10                     ; 0x2010 <textPrint+0x144>
    10ea: 69 f8        	adc	#$f8
    10ec: 85 10        	sta	$10                     ; 0x2010 <textPrint+0x144>
    10ee: a5 11        	lda	$11                     ; 0x2011 <textPrint+0x145>
    10f0: 69 ff        	adc	#$ff
    10f2: 85 11        	sta	$11                     ; 0x2011 <textPrint+0x145>
    10f4: 68           	pla
    10f5: a4 24        	ldy	$24                     ; 0x2024 <textPrint+0x158>
    10f7: 5a           	phy
    10f8: a4 25        	ldy	$25                     ; 0x2025 <textPrint+0x159>
    10fa: 5a           	phy
    10fb: a4 26        	ldy	$26                     ; 0x2026 <textPrint+0x15a>
    10fd: 5a           	phy
    10fe: a4 27        	ldy	$27                     ; 0x2027 <textPrint+0x15b>
    1100: 5a           	phy
    1101: 48           	pha
    1102: a5 28        	lda	$28                     ; 0x2028 <textPrint+0x15c>
    1104: a0 01        	ldy	#$1
    1106: 91 10        	sta	($10),y                 ; 0x2010 <textPrint+0x144>
    1108: a5 29        	lda	$29                     ; 0x2029 <textPrint+0x15d>
    110a: 88           	dey
    110b: 91 10        	sta	($10),y                 ; 0x2010 <textPrint+0x144>
    110d: 86 14        	stx	$14                     ; 0x2014 <textPrint+0x148>
    110f: a4 12        	ldy	$12                     ; 0x2012 <textPrint+0x146>
    1111: a6 13        	ldx	$13                     ; 0x2013 <textPrint+0x147>
    1113: 18           	clc
    1114: a5 10        	lda	$10                     ; 0x2010 <textPrint+0x144>
    1116: 69 07        	adc	#$7
    1118: 85 12        	sta	$12                     ; 0x2012 <textPrint+0x146>
    111a: a5 11        	lda	$11                     ; 0x2011 <textPrint+0x145>
    111c: 69 00        	adc	#$0
    111e: 85 13        	sta	$13                     ; 0x2013 <textPrint+0x147>
    1120: 68           	pla
    1121: 92 12        	sta	($12)                   ; 0x2012 <textPrint+0x146>
    1123: 18           	clc
    1124: a5 10        	lda	$10                     ; 0x2010 <textPrint+0x144>
    1126: 69 06        	adc	#$6
    1128: 85 24        	sta	$24                     ; 0x2024 <textPrint+0x158>
    112a: a5 11        	lda	$11                     ; 0x2011 <textPrint+0x145>
    112c: 69 00        	adc	#$0
    112e: 85 25        	sta	$25                     ; 0x2025 <textPrint+0x159>
    1130: a5 14        	lda	$14                     ; 0x2014 <textPrint+0x148>
    1132: 92 24        	sta	($24)                   ; 0x2024 <textPrint+0x158>
    1134: 18           	clc
    1135: a5 10        	lda	$10                     ; 0x2010 <textPrint+0x144>
    1137: 69 05        	adc	#$5
    1139: 85 26        	sta	$26                     ; 0x2026 <textPrint+0x15a>
    113b: a5 11        	lda	$11                     ; 0x2011 <textPrint+0x145>
    113d: 69 00        	adc	#$0
    113f: 85 27        	sta	$27                     ; 0x2027 <textPrint+0x15b>
    1141: 98           	tya
    1142: 92 26        	sta	($26)                   ; 0x2026 <textPrint+0x15a>
    1144: 18           	clc
    1145: a5 10        	lda	$10                     ; 0x2010 <textPrint+0x144>
    1147: 69 04        	adc	#$4
    1149: 85 28        	sta	$28                     ; 0x2028 <textPrint+0x15c>
    114b: a5 11        	lda	$11                     ; 0x2011 <textPrint+0x145>
    114d: 69 00        	adc	#$0
    114f: 85 29        	sta	$29                     ; 0x2029 <textPrint+0x15d>
    1151: 8a           	txa
    1152: 92 28        	sta	($28)                   ; 0x2028 <textPrint+0x15c>
    1154: b2 12        	lda	($12)                   ; 0x2012 <textPrint+0x146>
    1156: a2 04        	ldx	#$4
    1158: 86 12        	stx	$12                     ; 0x2012 <textPrint+0x146>
    115a: 64 13        	stz	$13                     ; 0x2013 <textPrint+0x147>
    115c: a2 00        	ldx	#$0
    115e: 20 ad 0b     	jsr	$bad <mathUnsignedMultiply>
    1161: 85 12        	sta	$12                     ; 0x2012 <textPrint+0x146>
    1163: 86 13        	stx	$13                     ; 0x2013 <textPrint+0x147>
    1165: 18           	clc
    1166: a9 40        	lda	#$40
    1168: 65 12        	adc	$12                     ; 0x2012 <textPrint+0x146>
    116a: aa           	tax
    116b: a9 d8        	lda	#$d8
    116d: 65 13        	adc	$13                     ; 0x2013 <textPrint+0x147>
    116f: 85 14        	sta	$14                     ; 0x2014 <textPrint+0x148>
    1171: 18           	clc
    1172: a5 10        	lda	$10                     ; 0x2010 <textPrint+0x144>
    1174: 69 02        	adc	#$2
    1176: 85 12        	sta	$12                     ; 0x2012 <textPrint+0x146>
    1178: a5 11        	lda	$11                     ; 0x2011 <textPrint+0x145>
    117a: 69 00        	adc	#$0
    117c: 85 13        	sta	$13                     ; 0x2013 <textPrint+0x147>
    117e: 8a           	txa
    117f: 92 12        	sta	($12)                   ; 0x2012 <textPrint+0x146>
    1181: a0 01        	ldy	#$1
    1183: a5 14        	lda	$14                     ; 0x2014 <textPrint+0x148>
    1185: 91 12        	sta	($12),y                 ; 0x2012 <textPrint+0x146>
    1187: b2 28        	lda	($28)                   ; 0x2028 <textPrint+0x15c>
    1189: 85 18        	sta	$18                     ; 0x2018 <textPrint+0x14c>
    118b: b2 12        	lda	($12)                   ; 0x2012 <textPrint+0x146>
    118d: 85 14        	sta	$14                     ; 0x2014 <textPrint+0x148>
    118f: b1 12        	lda	($12),y                 ; 0x2012 <textPrint+0x146>
    1191: 85 15        	sta	$15                     ; 0x2015 <textPrint+0x149>
    1193: a6 14        	ldx	$14                     ; 0x2014 <textPrint+0x148>
    1195: 86 16        	stx	$16                     ; 0x2016 <textPrint+0x14a>
    1197: 85 17        	sta	$17                     ; 0x2017 <textPrint+0x14b>
    1199: e6 16        	inc	$16                     ; 0x2016 <textPrint+0x14a>
    119b: f0 03        	beq	$11a0 <textDefineBackgroundColor+0xba>
    119d: 4c a5 11     	jmp	$11a5 <textDefineBackgroundColor+0xbf>
    11a0: e6 17        	inc	$17                     ; 0x2017 <textPrint+0x14b>
    11a2: 4c a5 11     	jmp	$11a5 <textDefineBackgroundColor+0xbf>
    11a5: a5 16        	lda	$16                     ; 0x2016 <textPrint+0x14a>
    11a7: 92 12        	sta	($12)                   ; 0x2012 <textPrint+0x146>
    11a9: a5 17        	lda	$17                     ; 0x2017 <textPrint+0x14b>
    11ab: 91 12        	sta	($12),y                 ; 0x2012 <textPrint+0x146>
    11ad: a5 18        	lda	$18                     ; 0x2018 <textPrint+0x14c>
    11af: 92 14        	sta	($14)                   ; 0x2014 <textPrint+0x148>
    11b1: b2 26        	lda	($26)                   ; 0x2026 <textPrint+0x15a>
    11b3: 85 18        	sta	$18                     ; 0x2018 <textPrint+0x14c>
    11b5: b2 12        	lda	($12)                   ; 0x2012 <textPrint+0x146>
    11b7: 85 14        	sta	$14                     ; 0x2014 <textPrint+0x148>
    11b9: b1 12        	lda	($12),y                 ; 0x2012 <textPrint+0x146>
    11bb: 85 15        	sta	$15                     ; 0x2015 <textPrint+0x149>
    11bd: a6 14        	ldx	$14                     ; 0x2014 <textPrint+0x148>
    11bf: 86 16        	stx	$16                     ; 0x2016 <textPrint+0x14a>
    11c1: 85 17        	sta	$17                     ; 0x2017 <textPrint+0x14b>
    11c3: e6 16        	inc	$16                     ; 0x2016 <textPrint+0x14a>
    11c5: f0 03        	beq	$11ca <textDefineBackgroundColor+0xe4>
    11c7: 4c cf 11     	jmp	$11cf <textDefineBackgroundColor+0xe9>
    11ca: e6 17        	inc	$17                     ; 0x2017 <textPrint+0x14b>
    11cc: 4c cf 11     	jmp	$11cf <textDefineBackgroundColor+0xe9>
    11cf: a5 16        	lda	$16                     ; 0x2016 <textPrint+0x14a>
    11d1: 92 12        	sta	($12)                   ; 0x2012 <textPrint+0x146>
    11d3: a5 17        	lda	$17                     ; 0x2017 <textPrint+0x14b>
    11d5: 91 12        	sta	($12),y                 ; 0x2012 <textPrint+0x146>
    11d7: a5 18        	lda	$18                     ; 0x2018 <textPrint+0x14c>
    11d9: 92 14        	sta	($14)                   ; 0x2014 <textPrint+0x148>
    11db: b2 24        	lda	($24)                   ; 0x2024 <textPrint+0x158>
    11dd: 85 18        	sta	$18                     ; 0x2018 <textPrint+0x14c>
    11df: b2 12        	lda	($12)                   ; 0x2012 <textPrint+0x146>
    11e1: 85 14        	sta	$14                     ; 0x2014 <textPrint+0x148>
    11e3: b1 12        	lda	($12),y                 ; 0x2012 <textPrint+0x146>
    11e5: 85 15        	sta	$15                     ; 0x2015 <textPrint+0x149>
    11e7: a6 14        	ldx	$14                     ; 0x2014 <textPrint+0x148>
    11e9: 86 16        	stx	$16                     ; 0x2016 <textPrint+0x14a>
    11eb: 85 17        	sta	$17                     ; 0x2017 <textPrint+0x14b>
    11ed: e6 16        	inc	$16                     ; 0x2016 <textPrint+0x14a>
    11ef: f0 03        	beq	$11f4 <textDefineBackgroundColor+0x10e>
    11f1: 4c f9 11     	jmp	$11f9 <textDefineBackgroundColor+0x113>
    11f4: e6 17        	inc	$17                     ; 0x2017 <textPrint+0x14b>
    11f6: 4c f9 11     	jmp	$11f9 <textDefineBackgroundColor+0x113>
    11f9: a5 16        	lda	$16                     ; 0x2016 <textPrint+0x14a>
    11fb: 92 12        	sta	($12)                   ; 0x2012 <textPrint+0x146>
    11fd: a5 17        	lda	$17                     ; 0x2017 <textPrint+0x14b>
    11ff: 91 12        	sta	($12),y                 ; 0x2012 <textPrint+0x146>
    1201: a5 18        	lda	$18                     ; 0x2018 <textPrint+0x14c>
    1203: 92 14        	sta	($14)                   ; 0x2014 <textPrint+0x148>
    1205: b2 12        	lda	($12)                   ; 0x2012 <textPrint+0x146>
    1207: 85 14        	sta	$14                     ; 0x2014 <textPrint+0x148>
    1209: b1 12        	lda	($12),y                 ; 0x2012 <textPrint+0x146>
    120b: 85 15        	sta	$15                     ; 0x2015 <textPrint+0x149>
    120d: a6 14        	ldx	$14                     ; 0x2014 <textPrint+0x148>
    120f: 86 16        	stx	$16                     ; 0x2016 <textPrint+0x14a>
    1211: 85 17        	sta	$17                     ; 0x2017 <textPrint+0x14b>
    1213: e6 16        	inc	$16                     ; 0x2016 <textPrint+0x14a>
    1215: f0 03        	beq	$121a <textDefineBackgroundColor+0x134>
    1217: 4c 1f 12     	jmp	$121f <textDefineBackgroundColor+0x139>
    121a: e6 17        	inc	$17                     ; 0x2017 <textPrint+0x14b>
    121c: 4c 1f 12     	jmp	$121f <textDefineBackgroundColor+0x139>
    121f: a5 16        	lda	$16                     ; 0x2016 <textPrint+0x14a>
    1221: 92 12        	sta	($12)                   ; 0x2012 <textPrint+0x146>
    1223: a5 17        	lda	$17                     ; 0x2017 <textPrint+0x14b>
    1225: 91 12        	sta	($12),y                 ; 0x2012 <textPrint+0x146>
    1227: a9 ff        	lda	#$ff
    1229: 92 14        	sta	($14)                   ; 0x2014 <textPrint+0x148>
    122b: a0 00        	ldy	#$0
    122d: b1 10        	lda	($10),y                 ; 0x2010 <textPrint+0x144>
    122f: 85 29        	sta	$29                     ; 0x2029 <textPrint+0x15d>
    1231: c8           	iny
    1232: b1 10        	lda	($10),y                 ; 0x2010 <textPrint+0x144>
    1234: 85 28        	sta	$28                     ; 0x2028 <textPrint+0x15c>
    1236: fa           	plx
    1237: 86 27        	stx	$27                     ; 0x2027 <textPrint+0x15b>
    1239: fa           	plx
    123a: 86 26        	stx	$26                     ; 0x2026 <textPrint+0x15a>
    123c: fa           	plx
    123d: 86 25        	stx	$25                     ; 0x2025 <textPrint+0x159>
    123f: fa           	plx
    1240: 86 24        	stx	$24                     ; 0x2024 <textPrint+0x158>
    1242: 18           	clc
    1243: a5 10        	lda	$10                     ; 0x2010 <textPrint+0x144>
    1245: 69 08        	adc	#$8
    1247: 85 10        	sta	$10                     ; 0x2010 <textPrint+0x144>
    1249: a5 11        	lda	$11                     ; 0x2011 <textPrint+0x145>
    124b: 69 00        	adc	#$0
    124d: 85 11        	sta	$11                     ; 0x2011 <textPrint+0x145>
    124f: 60           	rts

00001250 <textClear>:
    1250: 18           	clc
    1251: a5 10        	lda	$10                     ; 0x2010 <textPrint+0x144>
    1253: 69 f9        	adc	#$f9
    1255: 85 10        	sta	$10                     ; 0x2010 <textPrint+0x144>
    1257: a5 11        	lda	$11                     ; 0x2011 <textPrint+0x145>
    1259: 69 ff        	adc	#$ff
    125b: 85 11        	sta	$11                     ; 0x2011 <textPrint+0x145>
    125d: a5 01        	lda	$1                      ; 0x2001 <textPrint+0x135>
    125f: 18           	clc
    1260: 48           	pha
    1261: a5 10        	lda	$10                     ; 0x2010 <textPrint+0x144>
    1263: 69 06        	adc	#$6
    1265: 85 12        	sta	$12                     ; 0x2012 <textPrint+0x146>
    1267: a5 11        	lda	$11                     ; 0x2011 <textPrint+0x145>
    1269: 69 00        	adc	#$0
    126b: 85 13        	sta	$13                     ; 0x2013 <textPrint+0x147>
    126d: 68           	pla
    126e: 92 12        	sta	($12)                   ; 0x2012 <textPrint+0x146>
    1270: a5 30        	lda	$30                     ; 0x2030 <textPrint+0x164>
    1272: a6 31        	ldx	$31                     ; 0x2031 <textPrint+0x165>
    1274: 86 12        	stx	$12                     ; 0x2012 <textPrint+0x146>
    1276: 64 13        	stz	$13                     ; 0x2013 <textPrint+0x147>
    1278: a2 00        	ldx	#$0
    127a: 20 ad 0b     	jsr	$bad <mathUnsignedMultiply>
    127d: 18           	clc
    127e: 48           	pha
    127f: a5 10        	lda	$10                     ; 0x2010 <textPrint+0x144>
    1281: 69 02        	adc	#$2
    1283: 85 12        	sta	$12                     ; 0x2012 <textPrint+0x146>
    1285: a5 11        	lda	$11                     ; 0x2011 <textPrint+0x145>
    1287: 69 00        	adc	#$0
    1289: 85 13        	sta	$13                     ; 0x2013 <textPrint+0x147>
    128b: 68           	pla
    128c: 92 12        	sta	($12)                   ; 0x2012 <textPrint+0x146>
    128e: a0 01        	ldy	#$1
    1290: 8a           	txa
    1291: 91 12        	sta	($12),y                 ; 0x2012 <textPrint+0x146>
    1293: 18           	clc
    1294: a6 10        	ldx	$10                     ; 0x2010 <textPrint+0x144>
    1296: 86 12        	stx	$12                     ; 0x2012 <textPrint+0x146>
    1298: a6 11        	ldx	$11                     ; 0x2011 <textPrint+0x145>
    129a: 86 13        	stx	$13                     ; 0x2013 <textPrint+0x147>
    129c: a9 00        	lda	#$0
    129e: 92 12        	sta	($12)                   ; 0x2012 <textPrint+0x146>
    12a0: a9 c0        	lda	#$c0
    12a2: 91 12        	sta	($12),y                 ; 0x2012 <textPrint+0x146>
    12a4: a2 02        	ldx	#$2
    12a6: 86 01        	stx	$1                      ; 0x2001 <textPrint+0x135>
    12a8: 18           	clc
    12a9: a5 10        	lda	$10                     ; 0x2010 <textPrint+0x144>
    12ab: 69 04        	adc	#$4
    12ad: 85 12        	sta	$12                     ; 0x2012 <textPrint+0x146>
    12af: a5 11        	lda	$11                     ; 0x2011 <textPrint+0x145>
    12b1: 69 00        	adc	#$0
    12b3: 85 13        	sta	$13                     ; 0x2013 <textPrint+0x147>
    12b5: a9 00        	lda	#$0
    12b7: 92 12        	sta	($12)                   ; 0x2012 <textPrint+0x146>
    12b9: 91 12        	sta	($12),y                 ; 0x2012 <textPrint+0x146>
    12bb: 18           	clc
    12bc: a5 10        	lda	$10                     ; 0x2010 <textPrint+0x144>
    12be: 69 04        	adc	#$4
    12c0: 85 12        	sta	$12                     ; 0x2012 <textPrint+0x146>
    12c2: a5 11        	lda	$11                     ; 0x2011 <textPrint+0x145>
    12c4: 69 00        	adc	#$0
    12c6: 85 13        	sta	$13                     ; 0x2013 <textPrint+0x147>
    12c8: b2 12        	lda	($12)                   ; 0x2012 <textPrint+0x146>
    12ca: 85 14        	sta	$14                     ; 0x2014 <textPrint+0x148>
    12cc: a0 01        	ldy	#$1
    12ce: b1 12        	lda	($12),y                 ; 0x2012 <textPrint+0x146>
    12d0: aa           	tax
    12d1: 18           	clc
    12d2: a5 10        	lda	$10                     ; 0x2010 <textPrint+0x144>
    12d4: 69 02        	adc	#$2
    12d6: 85 12        	sta	$12                     ; 0x2012 <textPrint+0x146>
    12d8: a5 11        	lda	$11                     ; 0x2011 <textPrint+0x145>
    12da: 69 00        	adc	#$0
    12dc: 85 13        	sta	$13                     ; 0x2013 <textPrint+0x147>
    12de: a5 14        	lda	$14                     ; 0x2014 <textPrint+0x148>
    12e0: d2 12        	cmp	($12)                   ; 0x2012 <textPrint+0x146>
    12e2: 8a           	txa
    12e3: f1 12        	sbc	($12),y                 ; 0x2012 <textPrint+0x146>
    12e5: 70 02        	bvs	$12e9 <textClear+0x99>
    12e7: 80 04        	bra	$12ed <textClear+0x9d>
    12e9: 49 80        	eor	#$80
    12eb: 80 02        	bra	$12ef <textClear+0x9f>
    12ed: 80 00        	bra	$12ef <textClear+0x9f>
    12ef: aa           	tax
    12f0: 30 03        	bmi	$12f5 <textClear+0xa5>
    12f2: 4c 50 13     	jmp	$1350 <textClear+0x100>
    12f5: 18           	clc
    12f6: a6 10        	ldx	$10                     ; 0x2010 <textPrint+0x144>
    12f8: 86 12        	stx	$12                     ; 0x2012 <textPrint+0x146>
    12fa: a6 11        	ldx	$11                     ; 0x2011 <textPrint+0x145>
    12fc: 86 13        	stx	$13                     ; 0x2013 <textPrint+0x147>
    12fe: b2 12        	lda	($12)                   ; 0x2012 <textPrint+0x146>
    1300: 85 14        	sta	$14                     ; 0x2014 <textPrint+0x148>
    1302: a0 01        	ldy	#$1
    1304: b1 12        	lda	($12),y                 ; 0x2012 <textPrint+0x146>
    1306: 85 15        	sta	$15                     ; 0x2015 <textPrint+0x149>
    1308: a6 14        	ldx	$14                     ; 0x2014 <textPrint+0x148>
    130a: 86 16        	stx	$16                     ; 0x2016 <textPrint+0x14a>
    130c: 85 17        	sta	$17                     ; 0x2017 <textPrint+0x14b>
    130e: e6 16        	inc	$16                     ; 0x2016 <textPrint+0x14a>
    1310: f0 03        	beq	$1315 <textClear+0xc5>
    1312: 4c 1a 13     	jmp	$131a <textClear+0xca>
    1315: e6 17        	inc	$17                     ; 0x2017 <textPrint+0x14b>
    1317: 4c 1a 13     	jmp	$131a <textClear+0xca>
    131a: a5 16        	lda	$16                     ; 0x2016 <textPrint+0x14a>
    131c: 92 12        	sta	($12)                   ; 0x2012 <textPrint+0x146>
    131e: a5 17        	lda	$17                     ; 0x2017 <textPrint+0x14b>
    1320: 91 12        	sta	($12),y                 ; 0x2012 <textPrint+0x146>
    1322: a9 20        	lda	#$20
    1324: 92 14        	sta	($14)                   ; 0x2014 <textPrint+0x148>
    1326: 18           	clc
    1327: a5 10        	lda	$10                     ; 0x2010 <textPrint+0x144>
    1329: 69 04        	adc	#$4
    132b: 85 12        	sta	$12                     ; 0x2012 <textPrint+0x146>
    132d: a5 11        	lda	$11                     ; 0x2011 <textPrint+0x145>
    132f: 69 00        	adc	#$0
    1331: 85 13        	sta	$13                     ; 0x2013 <textPrint+0x147>
    1333: b2 12        	lda	($12)                   ; 0x2012 <textPrint+0x146>
    1335: aa           	tax
    1336: a0 01        	ldy	#$1
    1338: b1 12        	lda	($12),y                 ; 0x2012 <textPrint+0x146>
    133a: e8           	inx
    133b: f0 03        	beq	$1340 <textClear+0xf0>
    133d: 4c 44 13     	jmp	$1344 <textClear+0xf4>
    1340: 1a           	inc
    1341: 4c 44 13     	jmp	$1344 <textClear+0xf4>
    1344: 85 14        	sta	$14                     ; 0x2014 <textPrint+0x148>
    1346: 8a           	txa
    1347: 92 12        	sta	($12)                   ; 0x2012 <textPrint+0x146>
    1349: a5 14        	lda	$14                     ; 0x2014 <textPrint+0x148>
    134b: 91 12        	sta	($12),y                 ; 0x2012 <textPrint+0x146>
    134d: 4c bb 12     	jmp	$12bb <textClear+0x6b>
    1350: a2 03        	ldx	#$3
    1352: 86 01        	stx	$1                      ; 0x2001 <textPrint+0x135>
    1354: 18           	clc
    1355: a6 10        	ldx	$10                     ; 0x2010 <textPrint+0x144>
    1357: 86 12        	stx	$12                     ; 0x2012 <textPrint+0x146>
    1359: a6 11        	ldx	$11                     ; 0x2011 <textPrint+0x145>
    135b: 86 13        	stx	$13                     ; 0x2013 <textPrint+0x147>
    135d: a9 00        	lda	#$0
    135f: 92 12        	sta	($12)                   ; 0x2012 <textPrint+0x146>
    1361: a0 01        	ldy	#$1
    1363: a9 c0        	lda	#$c0
    1365: 91 12        	sta	($12),y                 ; 0x2012 <textPrint+0x146>
    1367: 18           	clc
    1368: a5 10        	lda	$10                     ; 0x2010 <textPrint+0x144>
    136a: 69 04        	adc	#$4
    136c: 85 12        	sta	$12                     ; 0x2012 <textPrint+0x146>
    136e: a5 11        	lda	$11                     ; 0x2011 <textPrint+0x145>
    1370: 69 00        	adc	#$0
    1372: 85 13        	sta	$13                     ; 0x2013 <textPrint+0x147>
    1374: a9 00        	lda	#$0
    1376: 92 12        	sta	($12)                   ; 0x2012 <textPrint+0x146>
    1378: 91 12        	sta	($12),y                 ; 0x2012 <textPrint+0x146>
    137a: 18           	clc
    137b: a5 10        	lda	$10                     ; 0x2010 <textPrint+0x144>
    137d: 69 04        	adc	#$4
    137f: 85 12        	sta	$12                     ; 0x2012 <textPrint+0x146>
    1381: a5 11        	lda	$11                     ; 0x2011 <textPrint+0x145>
    1383: 69 00        	adc	#$0
    1385: 85 13        	sta	$13                     ; 0x2013 <textPrint+0x147>
    1387: b2 12        	lda	($12)                   ; 0x2012 <textPrint+0x146>
    1389: 85 14        	sta	$14                     ; 0x2014 <textPrint+0x148>
    138b: a0 01        	ldy	#$1
    138d: b1 12        	lda	($12),y                 ; 0x2012 <textPrint+0x146>
    138f: aa           	tax
    1390: 18           	clc
    1391: a5 10        	lda	$10                     ; 0x2010 <textPrint+0x144>
    1393: 69 02        	adc	#$2
    1395: 85 12        	sta	$12                     ; 0x2012 <textPrint+0x146>
    1397: a5 11        	lda	$11                     ; 0x2011 <textPrint+0x145>
    1399: 69 00        	adc	#$0
    139b: 85 13        	sta	$13                     ; 0x2013 <textPrint+0x147>
    139d: a5 14        	lda	$14                     ; 0x2014 <textPrint+0x148>
    139f: d2 12        	cmp	($12)                   ; 0x2012 <textPrint+0x146>
    13a1: 8a           	txa
    13a2: f1 12        	sbc	($12),y                 ; 0x2012 <textPrint+0x146>
    13a4: 70 02        	bvs	$13a8 <textClear+0x158>
    13a6: 80 04        	bra	$13ac <textClear+0x15c>
    13a8: 49 80        	eor	#$80
    13aa: 80 02        	bra	$13ae <textClear+0x15e>
    13ac: 80 00        	bra	$13ae <textClear+0x15e>
    13ae: aa           	tax
    13af: 30 03        	bmi	$13b4 <textClear+0x164>
    13b1: 4c 0f 14     	jmp	$140f <textClear+0x1bf>
    13b4: 18           	clc
    13b5: a6 10        	ldx	$10                     ; 0x2010 <textPrint+0x144>
    13b7: 86 12        	stx	$12                     ; 0x2012 <textPrint+0x146>
    13b9: a6 11        	ldx	$11                     ; 0x2011 <textPrint+0x145>
    13bb: 86 13        	stx	$13                     ; 0x2013 <textPrint+0x147>
    13bd: b2 12        	lda	($12)                   ; 0x2012 <textPrint+0x146>
    13bf: 85 14        	sta	$14                     ; 0x2014 <textPrint+0x148>
    13c1: a0 01        	ldy	#$1
    13c3: b1 12        	lda	($12),y                 ; 0x2012 <textPrint+0x146>
    13c5: 85 15        	sta	$15                     ; 0x2015 <textPrint+0x149>
    13c7: a6 14        	ldx	$14                     ; 0x2014 <textPrint+0x148>
    13c9: 86 16        	stx	$16                     ; 0x2016 <textPrint+0x14a>
    13cb: 85 17        	sta	$17                     ; 0x2017 <textPrint+0x14b>
    13cd: e6 16        	inc	$16                     ; 0x2016 <textPrint+0x14a>
    13cf: f0 03        	beq	$13d4 <textClear+0x184>
    13d1: 4c d9 13     	jmp	$13d9 <textClear+0x189>
    13d4: e6 17        	inc	$17                     ; 0x2017 <textPrint+0x14b>
    13d6: 4c d9 13     	jmp	$13d9 <textClear+0x189>
    13d9: a5 16        	lda	$16                     ; 0x2016 <textPrint+0x14a>
    13db: 92 12        	sta	($12)                   ; 0x2012 <textPrint+0x146>
    13dd: a5 17        	lda	$17                     ; 0x2017 <textPrint+0x14b>
    13df: 91 12        	sta	($12),y                 ; 0x2012 <textPrint+0x146>
    13e1: a9 f0        	lda	#$f0
    13e3: 92 14        	sta	($14)                   ; 0x2014 <textPrint+0x148>
    13e5: 18           	clc
    13e6: a5 10        	lda	$10                     ; 0x2010 <textPrint+0x144>
    13e8: 69 04        	adc	#$4
    13ea: 85 12        	sta	$12                     ; 0x2012 <textPrint+0x146>
    13ec: a5 11        	lda	$11                     ; 0x2011 <textPrint+0x145>
    13ee: 69 00        	adc	#$0
    13f0: 85 13        	sta	$13                     ; 0x2013 <textPrint+0x147>
    13f2: b2 12        	lda	($12)                   ; 0x2012 <textPrint+0x146>
    13f4: aa           	tax
    13f5: a0 01        	ldy	#$1
    13f7: b1 12        	lda	($12),y                 ; 0x2012 <textPrint+0x146>
    13f9: e8           	inx
    13fa: f0 03        	beq	$13ff <textClear+0x1af>
    13fc: 4c 03 14     	jmp	$1403 <textClear+0x1b3>
    13ff: 1a           	inc
    1400: 4c 03 14     	jmp	$1403 <textClear+0x1b3>
    1403: 85 14        	sta	$14                     ; 0x2014 <textPrint+0x148>
    1405: 8a           	txa
    1406: 92 12        	sta	($12)                   ; 0x2012 <textPrint+0x146>
    1408: a5 14        	lda	$14                     ; 0x2014 <textPrint+0x148>
    140a: 91 12        	sta	($12),y                 ; 0x2012 <textPrint+0x146>
    140c: 4c 7a 13     	jmp	$137a <textClear+0x12a>
    140f: 18           	clc
    1410: a5 10        	lda	$10                     ; 0x2010 <textPrint+0x144>
    1412: 69 06        	adc	#$6
    1414: 85 12        	sta	$12                     ; 0x2012 <textPrint+0x146>
    1416: a5 11        	lda	$11                     ; 0x2011 <textPrint+0x145>
    1418: 69 00        	adc	#$0
    141a: 85 13        	sta	$13                     ; 0x2013 <textPrint+0x147>
    141c: b2 12        	lda	($12)                   ; 0x2012 <textPrint+0x146>
    141e: 85 01        	sta	$1                      ; 0x2001 <textPrint+0x135>
    1420: a2 00        	ldx	#$0
    1422: 8a           	txa
    1423: 20 34 14     	jsr	$1434 <textGotoXY>
    1426: 18           	clc
    1427: a5 10        	lda	$10                     ; 0x2010 <textPrint+0x144>
    1429: 69 07        	adc	#$7
    142b: 85 10        	sta	$10                     ; 0x2010 <textPrint+0x144>
    142d: a5 11        	lda	$11                     ; 0x2011 <textPrint+0x145>
    142f: 69 00        	adc	#$0
    1431: 85 11        	sta	$11                     ; 0x2011 <textPrint+0x145>
    1433: 60           	rts

00001434 <textGotoXY>:
    1434: 48           	pha
    1435: 18           	clc
    1436: a5 10        	lda	$10                     ; 0x2010 <textPrint+0x144>
    1438: 69 fe        	adc	#$fe
    143a: 85 10        	sta	$10                     ; 0x2010 <textPrint+0x144>
    143c: a5 11        	lda	$11                     ; 0x2011 <textPrint+0x145>
    143e: 69 ff        	adc	#$ff
    1440: 85 11        	sta	$11                     ; 0x2011 <textPrint+0x145>
    1442: 18           	clc
    1443: a5 10        	lda	$10                     ; 0x2010 <textPrint+0x144>
    1445: 69 01        	adc	#$1
    1447: 85 12        	sta	$12                     ; 0x2012 <textPrint+0x146>
    1449: a5 11        	lda	$11                     ; 0x2011 <textPrint+0x145>
    144b: 69 00        	adc	#$0
    144d: 85 13        	sta	$13                     ; 0x2013 <textPrint+0x147>
    144f: 68           	pla
    1450: 92 12        	sta	($12)                   ; 0x2012 <textPrint+0x146>
    1452: 18           	clc
    1453: a4 10        	ldy	$10                     ; 0x2010 <textPrint+0x144>
    1455: 84 14        	sty	$14                     ; 0x2014 <textPrint+0x148>
    1457: a4 11        	ldy	$11                     ; 0x2011 <textPrint+0x145>
    1459: 84 15        	sty	$15                     ; 0x2015 <textPrint+0x149>
    145b: 8a           	txa
    145c: 92 14        	sta	($14)                   ; 0x2014 <textPrint+0x148>
    145e: b2 12        	lda	($12)                   ; 0x2012 <textPrint+0x146>
    1460: 85 32        	sta	$32                     ; 0x2032 <textPrint+0x166>
    1462: a6 32        	ldx	$32                     ; 0x2032 <textPrint+0x166>
    1464: 8e 14 d0     	stx	$d014                   ; 0xd014 <end_block9+0x6520>
    1467: 9c 15 d0     	stz	$d015                   ; 0xd015 <end_block9+0x6521>
    146a: b2 14        	lda	($14)                   ; 0x2014 <textPrint+0x148>
    146c: 85 33        	sta	$33                     ; 0x2033 <textPrint+0x167>
    146e: a6 33        	ldx	$33                     ; 0x2033 <textPrint+0x167>
    1470: 8e 16 d0     	stx	$d016                   ; 0xd016 <end_block9+0x6522>
    1473: 9c 17 d0     	stz	$d017                   ; 0xd017 <end_block9+0x6523>
    1476: 18           	clc
    1477: a5 10        	lda	$10                     ; 0x2010 <textPrint+0x144>
    1479: 69 02        	adc	#$2
    147b: 85 10        	sta	$10                     ; 0x2010 <textPrint+0x144>
    147d: a5 11        	lda	$11                     ; 0x2011 <textPrint+0x145>
    147f: 69 00        	adc	#$0
    1481: 85 11        	sta	$11                     ; 0x2011 <textPrint+0x145>
    1483: 60           	rts

00001484 <graphicsDefineColor>:
    1484: 48           	pha
    1485: 18           	clc
    1486: a5 10        	lda	$10                     ; 0x2010 <textPrint+0x144>
    1488: 69 f6        	adc	#$f6
    148a: 85 10        	sta	$10                     ; 0x2010 <textPrint+0x144>
    148c: a5 11        	lda	$11                     ; 0x2011 <textPrint+0x145>
    148e: 69 ff        	adc	#$ff
    1490: 85 11        	sta	$11                     ; 0x2011 <textPrint+0x145>
    1492: 86 18        	stx	$18                     ; 0x2018 <textPrint+0x14c>
    1494: a4 13        	ldy	$13                     ; 0x2013 <textPrint+0x147>
    1496: a6 14        	ldx	$14                     ; 0x2014 <textPrint+0x148>
    1498: 18           	clc
    1499: a5 10        	lda	$10                     ; 0x2010 <textPrint+0x144>
    149b: 69 09        	adc	#$9
    149d: 85 16        	sta	$16                     ; 0x2016 <textPrint+0x14a>
    149f: a5 11        	lda	$11                     ; 0x2011 <textPrint+0x145>
    14a1: 69 00        	adc	#$0
    14a3: 85 17        	sta	$17                     ; 0x2017 <textPrint+0x14b>
    14a5: 68           	pla
    14a6: 92 16        	sta	($16)                   ; 0x2016 <textPrint+0x14a>
    14a8: 18           	clc
    14a9: a5 10        	lda	$10                     ; 0x2010 <textPrint+0x144>
    14ab: 69 08        	adc	#$8
    14ad: 85 14        	sta	$14                     ; 0x2014 <textPrint+0x148>
    14af: a5 11        	lda	$11                     ; 0x2011 <textPrint+0x145>
    14b1: 69 00        	adc	#$0
    14b3: 85 15        	sta	$15                     ; 0x2015 <textPrint+0x149>
    14b5: a5 18        	lda	$18                     ; 0x2018 <textPrint+0x14c>
    14b7: 92 14        	sta	($14)                   ; 0x2014 <textPrint+0x148>
    14b9: 18           	clc
    14ba: a5 10        	lda	$10                     ; 0x2010 <textPrint+0x144>
    14bc: 69 07        	adc	#$7
    14be: 85 14        	sta	$14                     ; 0x2014 <textPrint+0x148>
    14c0: a5 11        	lda	$11                     ; 0x2011 <textPrint+0x145>
    14c2: 69 00        	adc	#$0
    14c4: 85 15        	sta	$15                     ; 0x2015 <textPrint+0x149>
    14c6: a5 12        	lda	$12                     ; 0x2012 <textPrint+0x146>
    14c8: 92 14        	sta	($14)                   ; 0x2014 <textPrint+0x148>
    14ca: 18           	clc
    14cb: a5 10        	lda	$10                     ; 0x2010 <textPrint+0x144>
    14cd: 69 06        	adc	#$6
    14cf: 85 14        	sta	$14                     ; 0x2014 <textPrint+0x148>
    14d1: a5 11        	lda	$11                     ; 0x2011 <textPrint+0x145>
    14d3: 69 00        	adc	#$0
    14d5: 85 15        	sta	$15                     ; 0x2015 <textPrint+0x149>
    14d7: 98           	tya
    14d8: 92 14        	sta	($14)                   ; 0x2014 <textPrint+0x148>
    14da: 18           	clc
    14db: a5 10        	lda	$10                     ; 0x2010 <textPrint+0x144>
    14dd: 69 05        	adc	#$5
    14df: 85 14        	sta	$14                     ; 0x2014 <textPrint+0x148>
    14e1: a5 11        	lda	$11                     ; 0x2011 <textPrint+0x145>
    14e3: 69 00        	adc	#$0
    14e5: 85 15        	sta	$15                     ; 0x2015 <textPrint+0x149>
    14e7: 8a           	txa
    14e8: 92 14        	sta	($14)                   ; 0x2014 <textPrint+0x148>
    14ea: a5 01        	lda	$1                      ; 0x2001 <textPrint+0x135>
    14ec: 18           	clc
    14ed: 48           	pha
    14ee: a5 10        	lda	$10                     ; 0x2010 <textPrint+0x144>
    14f0: 69 04        	adc	#$4
    14f2: 85 14        	sta	$14                     ; 0x2014 <textPrint+0x148>
    14f4: a5 11        	lda	$11                     ; 0x2011 <textPrint+0x145>
    14f6: 69 00        	adc	#$0
    14f8: 85 15        	sta	$15                     ; 0x2015 <textPrint+0x149>
    14fa: 68           	pla
    14fb: 92 14        	sta	($14)                   ; 0x2014 <textPrint+0x148>
    14fd: b2 16        	lda	($16)                   ; 0x2016 <textPrint+0x14a>
    14ff: c9 04        	cmp	#$4
    1501: 90 03        	bcc	$1506 <graphicsDefineColor+0x82>
    1503: 4c 5d 15     	jmp	$155d <graphicsDefineColor+0xd9>
    1506: 0a           	asl
    1507: aa           	tax
    1508: 7c 4f 6a     	jmp	($6a4f,x)               ; 0x6a4f <__set_v+0x1>
    150b: 18           	clc
    150c: a6 10        	ldx	$10                     ; 0x2010 <textPrint+0x144>
    150e: 86 12        	stx	$12                     ; 0x2012 <textPrint+0x146>
    1510: a6 11        	ldx	$11                     ; 0x2011 <textPrint+0x145>
    1512: 86 13        	stx	$13                     ; 0x2013 <textPrint+0x147>
    1514: a9 00        	lda	#$0
    1516: 92 12        	sta	($12)                   ; 0x2012 <textPrint+0x146>
    1518: a0 01        	ldy	#$1
    151a: a9 d0        	lda	#$d0
    151c: 91 12        	sta	($12),y                 ; 0x2012 <textPrint+0x146>
    151e: 80 3d        	bra	$155d <graphicsDefineColor+0xd9>
    1520: 18           	clc
    1521: a6 10        	ldx	$10                     ; 0x2010 <textPrint+0x144>
    1523: 86 12        	stx	$12                     ; 0x2012 <textPrint+0x146>
    1525: a6 11        	ldx	$11                     ; 0x2011 <textPrint+0x145>
    1527: 86 13        	stx	$13                     ; 0x2013 <textPrint+0x147>
    1529: a9 00        	lda	#$0
    152b: 92 12        	sta	($12)                   ; 0x2012 <textPrint+0x146>
    152d: a0 01        	ldy	#$1
    152f: a9 d4        	lda	#$d4
    1531: 91 12        	sta	($12),y                 ; 0x2012 <textPrint+0x146>
    1533: 80 28        	bra	$155d <graphicsDefineColor+0xd9>
    1535: 18           	clc
    1536: a6 10        	ldx	$10                     ; 0x2010 <textPrint+0x144>
    1538: 86 12        	stx	$12                     ; 0x2012 <textPrint+0x146>
    153a: a6 11        	ldx	$11                     ; 0x2011 <textPrint+0x145>
    153c: 86 13        	stx	$13                     ; 0x2013 <textPrint+0x147>
    153e: a9 00        	lda	#$0
    1540: 92 12        	sta	($12)                   ; 0x2012 <textPrint+0x146>
    1542: a0 01        	ldy	#$1
    1544: a9 d8        	lda	#$d8
    1546: 91 12        	sta	($12),y                 ; 0x2012 <textPrint+0x146>
    1548: 80 13        	bra	$155d <graphicsDefineColor+0xd9>
    154a: 18           	clc
    154b: a6 10        	ldx	$10                     ; 0x2010 <textPrint+0x144>
    154d: 86 12        	stx	$12                     ; 0x2012 <textPrint+0x146>
    154f: a6 11        	ldx	$11                     ; 0x2011 <textPrint+0x145>
    1551: 86 13        	stx	$13                     ; 0x2013 <textPrint+0x147>
    1553: a9 00        	lda	#$0
    1555: 92 12        	sta	($12)                   ; 0x2012 <textPrint+0x146>
    1557: a0 01        	ldy	#$1
    1559: a9 dc        	lda	#$dc
    155b: 91 12        	sta	($12),y                 ; 0x2012 <textPrint+0x146>
    155d: a2 01        	ldx	#$1
    155f: 86 01        	stx	$1                      ; 0x2001 <textPrint+0x135>
    1561: 18           	clc
    1562: a6 10        	ldx	$10                     ; 0x2010 <textPrint+0x144>
    1564: 86 12        	stx	$12                     ; 0x2012 <textPrint+0x146>
    1566: a6 11        	ldx	$11                     ; 0x2011 <textPrint+0x145>
    1568: 86 13        	stx	$13                     ; 0x2013 <textPrint+0x147>
    156a: a0 01        	ldy	#$1
    156c: 18           	clc
    156d: a5 10        	lda	$10                     ; 0x2010 <textPrint+0x144>
    156f: 69 08        	adc	#$8
    1571: 85 14        	sta	$14                     ; 0x2014 <textPrint+0x148>
    1573: a5 11        	lda	$11                     ; 0x2011 <textPrint+0x145>
    1575: 69 00        	adc	#$0
    1577: 85 15        	sta	$15                     ; 0x2015 <textPrint+0x149>
    1579: b2 14        	lda	($14)                   ; 0x2014 <textPrint+0x148>
    157b: 0a           	asl
    157c: 64 14        	stz	$14                     ; 0x2014 <textPrint+0x148>
    157e: 26 14        	rol	$14                     ; 0x2014 <textPrint+0x148>
    1580: 0a           	asl
    1581: 26 14        	rol	$14                     ; 0x2014 <textPrint+0x148>
    1583: 18           	clc
    1584: 72 12        	adc	($12)                   ; 0x2012 <textPrint+0x146>
    1586: aa           	tax
    1587: a5 14        	lda	$14                     ; 0x2014 <textPrint+0x148>
    1589: 71 12        	adc	($12),y                 ; 0x2012 <textPrint+0x146>
    158b: 85 14        	sta	$14                     ; 0x2014 <textPrint+0x148>
    158d: 18           	clc
    158e: a5 10        	lda	$10                     ; 0x2010 <textPrint+0x144>
    1590: 69 02        	adc	#$2
    1592: 85 12        	sta	$12                     ; 0x2012 <textPrint+0x146>
    1594: a5 11        	lda	$11                     ; 0x2011 <textPrint+0x145>
    1596: 69 00        	adc	#$0
    1598: 85 13        	sta	$13                     ; 0x2013 <textPrint+0x147>
    159a: 8a           	txa
    159b: 92 12        	sta	($12)                   ; 0x2012 <textPrint+0x146>
    159d: a5 14        	lda	$14                     ; 0x2014 <textPrint+0x148>
    159f: 91 12        	sta	($12),y                 ; 0x2012 <textPrint+0x146>
    15a1: 18           	clc
    15a2: a5 10        	lda	$10                     ; 0x2010 <textPrint+0x144>
    15a4: 69 05        	adc	#$5
    15a6: 85 14        	sta	$14                     ; 0x2014 <textPrint+0x148>
    15a8: a5 11        	lda	$11                     ; 0x2011 <textPrint+0x145>
    15aa: 69 00        	adc	#$0
    15ac: 85 15        	sta	$15                     ; 0x2015 <textPrint+0x149>
    15ae: b2 14        	lda	($14)                   ; 0x2014 <textPrint+0x148>
    15b0: 85 18        	sta	$18                     ; 0x2018 <textPrint+0x14c>
    15b2: b2 12        	lda	($12)                   ; 0x2012 <textPrint+0x146>
    15b4: 85 14        	sta	$14                     ; 0x2014 <textPrint+0x148>
    15b6: b1 12        	lda	($12),y                 ; 0x2012 <textPrint+0x146>
    15b8: 85 15        	sta	$15                     ; 0x2015 <textPrint+0x149>
    15ba: a6 14        	ldx	$14                     ; 0x2014 <textPrint+0x148>
    15bc: 86 16        	stx	$16                     ; 0x2016 <textPrint+0x14a>
    15be: 85 17        	sta	$17                     ; 0x2017 <textPrint+0x14b>
    15c0: e6 16        	inc	$16                     ; 0x2016 <textPrint+0x14a>
    15c2: f0 03        	beq	$15c7 <graphicsDefineColor+0x143>
    15c4: 4c cc 15     	jmp	$15cc <graphicsDefineColor+0x148>
    15c7: e6 17        	inc	$17                     ; 0x2017 <textPrint+0x14b>
    15c9: 4c cc 15     	jmp	$15cc <graphicsDefineColor+0x148>
    15cc: a5 16        	lda	$16                     ; 0x2016 <textPrint+0x14a>
    15ce: 92 12        	sta	($12)                   ; 0x2012 <textPrint+0x146>
    15d0: a5 17        	lda	$17                     ; 0x2017 <textPrint+0x14b>
    15d2: 91 12        	sta	($12),y                 ; 0x2012 <textPrint+0x146>
    15d4: a5 18        	lda	$18                     ; 0x2018 <textPrint+0x14c>
    15d6: 92 14        	sta	($14)                   ; 0x2014 <textPrint+0x148>
    15d8: 18           	clc
    15d9: a5 10        	lda	$10                     ; 0x2010 <textPrint+0x144>
    15db: 69 06        	adc	#$6
    15dd: 85 14        	sta	$14                     ; 0x2014 <textPrint+0x148>
    15df: a5 11        	lda	$11                     ; 0x2011 <textPrint+0x145>
    15e1: 69 00        	adc	#$0
    15e3: 85 15        	sta	$15                     ; 0x2015 <textPrint+0x149>
    15e5: b2 14        	lda	($14)                   ; 0x2014 <textPrint+0x148>
    15e7: 85 18        	sta	$18                     ; 0x2018 <textPrint+0x14c>
    15e9: b2 12        	lda	($12)                   ; 0x2012 <textPrint+0x146>
    15eb: 85 14        	sta	$14                     ; 0x2014 <textPrint+0x148>
    15ed: b1 12        	lda	($12),y                 ; 0x2012 <textPrint+0x146>
    15ef: 85 15        	sta	$15                     ; 0x2015 <textPrint+0x149>
    15f1: a6 14        	ldx	$14                     ; 0x2014 <textPrint+0x148>
    15f3: 86 16        	stx	$16                     ; 0x2016 <textPrint+0x14a>
    15f5: 85 17        	sta	$17                     ; 0x2017 <textPrint+0x14b>
    15f7: e6 16        	inc	$16                     ; 0x2016 <textPrint+0x14a>
    15f9: f0 03        	beq	$15fe <graphicsDefineColor+0x17a>
    15fb: 4c 03 16     	jmp	$1603 <graphicsDefineColor+0x17f>
    15fe: e6 17        	inc	$17                     ; 0x2017 <textPrint+0x14b>
    1600: 4c 03 16     	jmp	$1603 <graphicsDefineColor+0x17f>
    1603: a5 16        	lda	$16                     ; 0x2016 <textPrint+0x14a>
    1605: 92 12        	sta	($12)                   ; 0x2012 <textPrint+0x146>
    1607: a5 17        	lda	$17                     ; 0x2017 <textPrint+0x14b>
    1609: 91 12        	sta	($12),y                 ; 0x2012 <textPrint+0x146>
    160b: a5 18        	lda	$18                     ; 0x2018 <textPrint+0x14c>
    160d: 92 14        	sta	($14)                   ; 0x2014 <textPrint+0x148>
    160f: 18           	clc
    1610: a5 10        	lda	$10                     ; 0x2010 <textPrint+0x144>
    1612: 69 07        	adc	#$7
    1614: 85 14        	sta	$14                     ; 0x2014 <textPrint+0x148>
    1616: a5 11        	lda	$11                     ; 0x2011 <textPrint+0x145>
    1618: 69 00        	adc	#$0
    161a: 85 15        	sta	$15                     ; 0x2015 <textPrint+0x149>
    161c: b2 14        	lda	($14)                   ; 0x2014 <textPrint+0x148>
    161e: 85 18        	sta	$18                     ; 0x2018 <textPrint+0x14c>
    1620: b2 12        	lda	($12)                   ; 0x2012 <textPrint+0x146>
    1622: 85 14        	sta	$14                     ; 0x2014 <textPrint+0x148>
    1624: b1 12        	lda	($12),y                 ; 0x2012 <textPrint+0x146>
    1626: 85 15        	sta	$15                     ; 0x2015 <textPrint+0x149>
    1628: a6 14        	ldx	$14                     ; 0x2014 <textPrint+0x148>
    162a: 86 16        	stx	$16                     ; 0x2016 <textPrint+0x14a>
    162c: 85 17        	sta	$17                     ; 0x2017 <textPrint+0x14b>
    162e: e6 16        	inc	$16                     ; 0x2016 <textPrint+0x14a>
    1630: f0 03        	beq	$1635 <graphicsDefineColor+0x1b1>
    1632: 4c 3a 16     	jmp	$163a <graphicsDefineColor+0x1b6>
    1635: e6 17        	inc	$17                     ; 0x2017 <textPrint+0x14b>
    1637: 4c 3a 16     	jmp	$163a <graphicsDefineColor+0x1b6>
    163a: a5 16        	lda	$16                     ; 0x2016 <textPrint+0x14a>
    163c: 92 12        	sta	($12)                   ; 0x2012 <textPrint+0x146>
    163e: a5 17        	lda	$17                     ; 0x2017 <textPrint+0x14b>
    1640: 91 12        	sta	($12),y                 ; 0x2012 <textPrint+0x146>
    1642: a5 18        	lda	$18                     ; 0x2018 <textPrint+0x14c>
    1644: 92 14        	sta	($14)                   ; 0x2014 <textPrint+0x148>
    1646: b2 12        	lda	($12)                   ; 0x2012 <textPrint+0x146>
    1648: 85 14        	sta	$14                     ; 0x2014 <textPrint+0x148>
    164a: b1 12        	lda	($12),y                 ; 0x2012 <textPrint+0x146>
    164c: 85 15        	sta	$15                     ; 0x2015 <textPrint+0x149>
    164e: a6 14        	ldx	$14                     ; 0x2014 <textPrint+0x148>
    1650: 86 16        	stx	$16                     ; 0x2016 <textPrint+0x14a>
    1652: 85 17        	sta	$17                     ; 0x2017 <textPrint+0x14b>
    1654: e6 16        	inc	$16                     ; 0x2016 <textPrint+0x14a>
    1656: f0 03        	beq	$165b <graphicsDefineColor+0x1d7>
    1658: 4c 60 16     	jmp	$1660 <graphicsDefineColor+0x1dc>
    165b: e6 17        	inc	$17                     ; 0x2017 <textPrint+0x14b>
    165d: 4c 60 16     	jmp	$1660 <graphicsDefineColor+0x1dc>
    1660: a5 16        	lda	$16                     ; 0x2016 <textPrint+0x14a>
    1662: 92 12        	sta	($12)                   ; 0x2012 <textPrint+0x146>
    1664: a5 17        	lda	$17                     ; 0x2017 <textPrint+0x14b>
    1666: 91 12        	sta	($12),y                 ; 0x2012 <textPrint+0x146>
    1668: a9 ff        	lda	#$ff
    166a: 92 14        	sta	($14)                   ; 0x2014 <textPrint+0x148>
    166c: 18           	clc
    166d: a5 10        	lda	$10                     ; 0x2010 <textPrint+0x144>
    166f: 69 04        	adc	#$4
    1671: 85 12        	sta	$12                     ; 0x2012 <textPrint+0x146>
    1673: a5 11        	lda	$11                     ; 0x2011 <textPrint+0x145>
    1675: 69 00        	adc	#$0
    1677: 85 13        	sta	$13                     ; 0x2013 <textPrint+0x147>
    1679: b2 12        	lda	($12)                   ; 0x2012 <textPrint+0x146>
    167b: 85 01        	sta	$1                      ; 0x2001 <textPrint+0x135>
    167d: 18           	clc
    167e: a5 10        	lda	$10                     ; 0x2010 <textPrint+0x144>
    1680: 69 0a        	adc	#$a
    1682: 85 10        	sta	$10                     ; 0x2010 <textPrint+0x144>
    1684: a5 11        	lda	$11                     ; 0x2011 <textPrint+0x145>
    1686: 69 00        	adc	#$0
    1688: 85 11        	sta	$11                     ; 0x2011 <textPrint+0x145>
    168a: 60           	rts

0000168b <graphicsSetLayerBitmap>:
    168b: 48           	pha
    168c: 18           	clc
    168d: a5 10        	lda	$10                     ; 0x2010 <textPrint+0x144>
    168f: 69 fe        	adc	#$fe
    1691: 85 10        	sta	$10                     ; 0x2010 <textPrint+0x144>
    1693: a5 11        	lda	$11                     ; 0x2011 <textPrint+0x145>
    1695: 69 ff        	adc	#$ff
    1697: 85 11        	sta	$11                     ; 0x2011 <textPrint+0x145>
    1699: 18           	clc
    169a: a5 10        	lda	$10                     ; 0x2010 <textPrint+0x144>
    169c: 69 01        	adc	#$1
    169e: 85 12        	sta	$12                     ; 0x2012 <textPrint+0x146>
    16a0: a5 11        	lda	$11                     ; 0x2011 <textPrint+0x145>
    16a2: 69 00        	adc	#$0
    16a4: 85 13        	sta	$13                     ; 0x2013 <textPrint+0x147>
    16a6: 68           	pla
    16a7: 92 12        	sta	($12)                   ; 0x2012 <textPrint+0x146>
    16a9: 18           	clc
    16aa: a4 10        	ldy	$10                     ; 0x2010 <textPrint+0x144>
    16ac: 84 14        	sty	$14                     ; 0x2014 <textPrint+0x148>
    16ae: a4 11        	ldy	$11                     ; 0x2011 <textPrint+0x145>
    16b0: 84 15        	sty	$15                     ; 0x2015 <textPrint+0x149>
    16b2: 8a           	txa
    16b3: 92 14        	sta	($14)                   ; 0x2014 <textPrint+0x148>
    16b5: b2 12        	lda	($12)                   ; 0x2012 <textPrint+0x146>
    16b7: f0 1a        	beq	$16d3 <graphicsSetLayerBitmap+0x48>
    16b9: 80 00        	bra	$16bb <graphicsSetLayerBitmap+0x30>
    16bb: c9 01        	cmp	#$1
    16bd: f0 02        	beq	$16c1 <graphicsSetLayerBitmap+0x36>
    16bf: 80 02        	bra	$16c3 <graphicsSetLayerBitmap+0x38>
    16c1: 80 25        	bra	$16e8 <graphicsSetLayerBitmap+0x5d>
    16c3: 80 00        	bra	$16c5 <graphicsSetLayerBitmap+0x3a>
    16c5: 80 00        	bra	$16c7 <graphicsSetLayerBitmap+0x3c>
    16c7: c9 02        	cmp	#$2
    16c9: f0 02        	beq	$16cd <graphicsSetLayerBitmap+0x42>
    16cb: 80 02        	bra	$16cf <graphicsSetLayerBitmap+0x44>
    16cd: 80 39        	bra	$1708 <graphicsSetLayerBitmap+0x7d>
    16cf: 80 00        	bra	$16d1 <graphicsSetLayerBitmap+0x46>
    16d1: 80 43        	bra	$1716 <graphicsSetLayerBitmap+0x8b>
    16d3: ad 02 d0     	lda	$d002                   ; 0xd002 <end_block9+0x650e>
    16d6: 29 f0        	and	#$f0
    16d8: 18           	clc
    16d9: a6 10        	ldx	$10                     ; 0x2010 <textPrint+0x144>
    16db: 86 12        	stx	$12                     ; 0x2012 <textPrint+0x146>
    16dd: a6 11        	ldx	$11                     ; 0x2011 <textPrint+0x145>
    16df: 86 13        	stx	$13                     ; 0x2013 <textPrint+0x147>
    16e1: 12 12        	ora	($12)                   ; 0x2012 <textPrint+0x146>
    16e3: 8d 02 d0     	sta	$d002                   ; 0xd002 <end_block9+0x650e>
    16e6: 80 2e        	bra	$1716 <graphicsSetLayerBitmap+0x8b>
    16e8: ad 02 d0     	lda	$d002                   ; 0xd002 <end_block9+0x650e>
    16eb: 29 0f        	and	#$f
    16ed: aa           	tax
    16ee: 18           	clc
    16ef: a4 10        	ldy	$10                     ; 0x2010 <textPrint+0x144>
    16f1: 84 12        	sty	$12                     ; 0x2012 <textPrint+0x146>
    16f3: a4 11        	ldy	$11                     ; 0x2011 <textPrint+0x145>
    16f5: 84 13        	sty	$13                     ; 0x2013 <textPrint+0x147>
    16f7: b2 12        	lda	($12)                   ; 0x2012 <textPrint+0x146>
    16f9: 0a           	asl
    16fa: 0a           	asl
    16fb: 0a           	asl
    16fc: 85 12        	sta	$12                     ; 0x2012 <textPrint+0x146>
    16fe: 06 12        	asl	$12                     ; 0x2012 <textPrint+0x146>
    1700: 8a           	txa
    1701: 05 12        	ora	$12                     ; 0x2012 <textPrint+0x146>
    1703: 8d 02 d0     	sta	$d002                   ; 0xd002 <end_block9+0x650e>
    1706: 80 0e        	bra	$1716 <graphicsSetLayerBitmap+0x8b>
    1708: 18           	clc
    1709: a6 10        	ldx	$10                     ; 0x2010 <textPrint+0x144>
    170b: 86 12        	stx	$12                     ; 0x2012 <textPrint+0x146>
    170d: a6 11        	ldx	$11                     ; 0x2011 <textPrint+0x145>
    170f: 86 13        	stx	$13                     ; 0x2013 <textPrint+0x147>
    1711: b2 12        	lda	($12)                   ; 0x2012 <textPrint+0x146>
    1713: 8d 03 d0     	sta	$d003                   ; 0xd003 <end_block9+0x650f>
    1716: 18           	clc
    1717: a5 10        	lda	$10                     ; 0x2010 <textPrint+0x144>
    1719: 69 02        	adc	#$2
    171b: 85 10        	sta	$10                     ; 0x2010 <textPrint+0x144>
    171d: a5 11        	lda	$11                     ; 0x2011 <textPrint+0x145>
    171f: 69 00        	adc	#$0
    1721: 85 11        	sta	$11                     ; 0x2011 <textPrint+0x145>
    1723: 60           	rts

00001724 <f256Reset>:
    1724: 78           	sei
    1725: a2 07        	ldx	#$7
    1727: 86 0f        	stx	$f                      ; 0x200f <textPrint+0x143>
    1729: a2 de        	ldx	#$de
    172b: 8e a2 d6     	stx	$d6a2                   ; 0xd6a2 <end_block9+0x6bae>
    172e: a2 ad        	ldx	#$ad
    1730: 8e a3 d6     	stx	$d6a3                   ; 0xd6a3 <end_block9+0x6baf>
    1733: a2 f0        	ldx	#$f0
    1735: 8e a0 d6     	stx	$d6a0                   ; 0xd6a0 <end_block9+0x6bac>
    1738: 9c a0 d6     	stz	$d6a0                   ; 0xd6a0 <end_block9+0x6bac>
    173b: 6c fc ff     	jmp	($fffc)                 ; 0xfffc <end_block9+0x9508>
    173e: 60           	rts

0000173f <FAR_PEEK>:
    173f: 48           	pha
    1740: 18           	clc
    1741: a5 10        	lda	$10                     ; 0x2010 <textPrint+0x144>
    1743: 69 f9        	adc	#$f9
    1745: 85 10        	sta	$10                     ; 0x2010 <textPrint+0x144>
    1747: a5 11        	lda	$11                     ; 0x2011 <textPrint+0x145>
    1749: 69 ff        	adc	#$ff
    174b: 85 11        	sta	$11                     ; 0x2011 <textPrint+0x145>
    174d: 18           	clc
    174e: a5 10        	lda	$10                     ; 0x2010 <textPrint+0x144>
    1750: 69 03        	adc	#$3
    1752: 85 14        	sta	$14                     ; 0x2014 <textPrint+0x148>
    1754: a5 11        	lda	$11                     ; 0x2011 <textPrint+0x145>
    1756: 69 00        	adc	#$0
    1758: 85 15        	sta	$15                     ; 0x2015 <textPrint+0x149>
    175a: 68           	pla
    175b: 92 14        	sta	($14)                   ; 0x2014 <textPrint+0x148>
    175d: a0 01        	ldy	#$1
    175f: 8a           	txa
    1760: 91 14        	sta	($14),y                 ; 0x2014 <textPrint+0x148>
    1762: c8           	iny
    1763: a5 12        	lda	$12                     ; 0x2012 <textPrint+0x146>
    1765: 91 14        	sta	($14),y                 ; 0x2014 <textPrint+0x148>
    1767: c8           	iny
    1768: a5 13        	lda	$13                     ; 0x2013 <textPrint+0x147>
    176a: 91 14        	sta	($14),y                 ; 0x2014 <textPrint+0x148>
    176c: a5 0f        	lda	$f                      ; 0x200f <textPrint+0x143>
    176e: 18           	clc
    176f: a6 10        	ldx	$10                     ; 0x2010 <textPrint+0x144>
    1771: 86 12        	stx	$12                     ; 0x2012 <textPrint+0x146>
    1773: a6 11        	ldx	$11                     ; 0x2011 <textPrint+0x145>
    1775: 86 13        	stx	$13                     ; 0x2013 <textPrint+0x147>
    1777: 92 12        	sta	($12)                   ; 0x2012 <textPrint+0x146>
    1779: 78           	sei
    177a: a0 01        	ldy	#$1
    177c: b1 14        	lda	($14),y                 ; 0x2014 <textPrint+0x148>
    177e: aa           	tax
    177f: c8           	iny
    1780: b1 14        	lda	($14),y                 ; 0x2014 <textPrint+0x148>
    1782: 85 16        	sta	$16                     ; 0x2016 <textPrint+0x14a>
    1784: 8a           	txa
    1785: 0a           	asl
    1786: 26 16        	rol	$16                     ; 0x2016 <textPrint+0x14a>
    1788: 0a           	asl
    1789: 26 16        	rol	$16                     ; 0x2016 <textPrint+0x14a>
    178b: a6 16        	ldx	$16                     ; 0x2016 <textPrint+0x14a>
    178d: 0a           	asl
    178e: 8a           	txa
    178f: 2a           	rol
    1790: 18           	clc
    1791: 48           	pha
    1792: a5 10        	lda	$10                     ; 0x2010 <textPrint+0x144>
    1794: 69 02        	adc	#$2
    1796: 85 16        	sta	$16                     ; 0x2016 <textPrint+0x14a>
    1798: a5 11        	lda	$11                     ; 0x2011 <textPrint+0x145>
    179a: 69 00        	adc	#$0
    179c: 85 17        	sta	$17                     ; 0x2017 <textPrint+0x14b>
    179e: 68           	pla
    179f: 92 16        	sta	($16)                   ; 0x2016 <textPrint+0x14a>
    17a1: b2 14        	lda	($14)                   ; 0x2014 <textPrint+0x148>
    17a3: 92 14        	sta	($14)                   ; 0x2014 <textPrint+0x148>
    17a5: a9 1f        	lda	#$1f
    17a7: 88           	dey
    17a8: 31 14        	and	($14),y                 ; 0x2014 <textPrint+0x148>
    17aa: 91 14        	sta	($14),y                 ; 0x2014 <textPrint+0x148>
    17ac: a9 00        	lda	#$0
    17ae: c8           	iny
    17af: 91 14        	sta	($14),y                 ; 0x2014 <textPrint+0x148>
    17b1: 18           	clc
    17b2: c8           	iny
    17b3: 91 14        	sta	($14),y                 ; 0x2014 <textPrint+0x148>
    17b5: b2 16        	lda	($16)                   ; 0x2016 <textPrint+0x14a>
    17b7: 85 0f        	sta	$f                      ; 0x200f <textPrint+0x143>
    17b9: b2 14        	lda	($14)                   ; 0x2014 <textPrint+0x148>
    17bb: 85 16        	sta	$16                     ; 0x2016 <textPrint+0x14a>
    17bd: a0 01        	ldy	#$1
    17bf: b1 14        	lda	($14),y                 ; 0x2014 <textPrint+0x148>
    17c1: 85 14        	sta	$14                     ; 0x2014 <textPrint+0x148>
    17c3: a5 16        	lda	$16                     ; 0x2016 <textPrint+0x14a>
    17c5: 69 00        	adc	#$0
    17c7: aa           	tax
    17c8: a5 14        	lda	$14                     ; 0x2014 <textPrint+0x148>
    17ca: 69 e0        	adc	#$e0
    17cc: 86 14        	stx	$14                     ; 0x2014 <textPrint+0x148>
    17ce: 85 15        	sta	$15                     ; 0x2015 <textPrint+0x149>
    17d0: b2 14        	lda	($14)                   ; 0x2014 <textPrint+0x148>
    17d2: 18           	clc
    17d3: 48           	pha
    17d4: a5 10        	lda	$10                     ; 0x2010 <textPrint+0x144>
    17d6: 69 01        	adc	#$1
    17d8: 85 14        	sta	$14                     ; 0x2014 <textPrint+0x148>
    17da: a5 11        	lda	$11                     ; 0x2011 <textPrint+0x145>
    17dc: 69 00        	adc	#$0
    17de: 85 15        	sta	$15                     ; 0x2015 <textPrint+0x149>
    17e0: 68           	pla
    17e1: 92 14        	sta	($14)                   ; 0x2014 <textPrint+0x148>
    17e3: b2 12        	lda	($12)                   ; 0x2012 <textPrint+0x146>
    17e5: 85 0f        	sta	$f                      ; 0x200f <textPrint+0x143>
    17e7: 58           	cli
    17e8: b2 14        	lda	($14)                   ; 0x2014 <textPrint+0x148>
    17ea: 48           	pha
    17eb: 18           	clc
    17ec: a5 10        	lda	$10                     ; 0x2010 <textPrint+0x144>
    17ee: 69 07        	adc	#$7
    17f0: 85 10        	sta	$10                     ; 0x2010 <textPrint+0x144>
    17f2: a5 11        	lda	$11                     ; 0x2011 <textPrint+0x145>
    17f4: 69 00        	adc	#$0
    17f6: 85 11        	sta	$11                     ; 0x2011 <textPrint+0x145>
    17f8: 68           	pla
    17f9: 60           	rts

000017fa <FAR_POKE>:
    17fa: 48           	pha
    17fb: 18           	clc
    17fc: a5 10        	lda	$10                     ; 0x2010 <textPrint+0x144>
    17fe: 69 f9        	adc	#$f9
    1800: 85 10        	sta	$10                     ; 0x2010 <textPrint+0x144>
    1802: a5 11        	lda	$11                     ; 0x2011 <textPrint+0x145>
    1804: 69 ff        	adc	#$ff
    1806: 85 11        	sta	$11                     ; 0x2011 <textPrint+0x145>
    1808: 86 14        	stx	$14                     ; 0x2014 <textPrint+0x148>
    180a: a6 13        	ldx	$13                     ; 0x2013 <textPrint+0x147>
    180c: 18           	clc
    180d: a5 10        	lda	$10                     ; 0x2010 <textPrint+0x144>
    180f: 69 03        	adc	#$3
    1811: 85 1a        	sta	$1a                     ; 0x201a <textPrint+0x14e>
    1813: a5 11        	lda	$11                     ; 0x2011 <textPrint+0x145>
    1815: 69 00        	adc	#$0
    1817: 85 1b        	sta	$1b                     ; 0x201b <textPrint+0x14f>
    1819: 68           	pla
    181a: 92 1a        	sta	($1a)                   ; 0x201a <textPrint+0x14e>
    181c: a0 01        	ldy	#$1
    181e: a5 14        	lda	$14                     ; 0x2014 <textPrint+0x148>
    1820: 91 1a        	sta	($1a),y                 ; 0x201a <textPrint+0x14e>
    1822: c8           	iny
    1823: a5 12        	lda	$12                     ; 0x2012 <textPrint+0x146>
    1825: 91 1a        	sta	($1a),y                 ; 0x201a <textPrint+0x14e>
    1827: c8           	iny
    1828: 8a           	txa
    1829: 91 1a        	sta	($1a),y                 ; 0x201a <textPrint+0x14e>
    182b: 18           	clc
    182c: a5 10        	lda	$10                     ; 0x2010 <textPrint+0x144>
    182e: 69 02        	adc	#$2
    1830: 85 16        	sta	$16                     ; 0x2016 <textPrint+0x14a>
    1832: a5 11        	lda	$11                     ; 0x2011 <textPrint+0x145>
    1834: 69 00        	adc	#$0
    1836: 85 17        	sta	$17                     ; 0x2017 <textPrint+0x14b>
    1838: a9 00        	lda	#$0
    183a: 92 16        	sta	($16)                   ; 0x2016 <textPrint+0x14a>
    183c: a5 0f        	lda	$f                      ; 0x200f <textPrint+0x143>
    183e: 18           	clc
    183f: a6 10        	ldx	$10                     ; 0x2010 <textPrint+0x144>
    1841: 86 14        	stx	$14                     ; 0x2014 <textPrint+0x148>
    1843: a6 11        	ldx	$11                     ; 0x2011 <textPrint+0x145>
    1845: 86 15        	stx	$15                     ; 0x2015 <textPrint+0x149>
    1847: 92 14        	sta	($14)                   ; 0x2014 <textPrint+0x148>
    1849: 78           	sei
    184a: a0 01        	ldy	#$1
    184c: b1 1a        	lda	($1a),y                 ; 0x201a <textPrint+0x14e>
    184e: aa           	tax
    184f: c8           	iny
    1850: b1 1a        	lda	($1a),y                 ; 0x201a <textPrint+0x14e>
    1852: 85 18        	sta	$18                     ; 0x2018 <textPrint+0x14c>
    1854: 8a           	txa
    1855: 0a           	asl
    1856: 26 18        	rol	$18                     ; 0x2018 <textPrint+0x14c>
    1858: 0a           	asl
    1859: 26 18        	rol	$18                     ; 0x2018 <textPrint+0x14c>
    185b: a6 18        	ldx	$18                     ; 0x2018 <textPrint+0x14c>
    185d: 0a           	asl
    185e: 8a           	txa
    185f: 2a           	rol
    1860: 18           	clc
    1861: 48           	pha
    1862: a5 10        	lda	$10                     ; 0x2010 <textPrint+0x144>
    1864: 69 01        	adc	#$1
    1866: 85 18        	sta	$18                     ; 0x2018 <textPrint+0x14c>
    1868: a5 11        	lda	$11                     ; 0x2011 <textPrint+0x145>
    186a: 69 00        	adc	#$0
    186c: 85 19        	sta	$19                     ; 0x2019 <textPrint+0x14d>
    186e: 68           	pla
    186f: 92 18        	sta	($18)                   ; 0x2018 <textPrint+0x14c>
    1871: b2 1a        	lda	($1a)                   ; 0x201a <textPrint+0x14e>
    1873: 92 1a        	sta	($1a)                   ; 0x201a <textPrint+0x14e>
    1875: a9 1f        	lda	#$1f
    1877: 88           	dey
    1878: 31 1a        	and	($1a),y                 ; 0x201a <textPrint+0x14e>
    187a: 91 1a        	sta	($1a),y                 ; 0x201a <textPrint+0x14e>
    187c: 18           	clc
    187d: c8           	iny
    187e: a9 00        	lda	#$0
    1880: 91 1a        	sta	($1a),y                 ; 0x201a <textPrint+0x14e>
    1882: c8           	iny
    1883: 91 1a        	sta	($1a),y                 ; 0x201a <textPrint+0x14e>
    1885: b2 18        	lda	($18)                   ; 0x2018 <textPrint+0x14c>
    1887: 85 0f        	sta	$f                      ; 0x200f <textPrint+0x143>
    1889: b2 16        	lda	($16)                   ; 0x2016 <textPrint+0x14a>
    188b: 85 16        	sta	$16                     ; 0x2016 <textPrint+0x14a>
    188d: b2 1a        	lda	($1a)                   ; 0x201a <textPrint+0x14e>
    188f: 85 13        	sta	$13                     ; 0x2013 <textPrint+0x147>
    1891: a0 01        	ldy	#$1
    1893: b1 1a        	lda	($1a),y                 ; 0x201a <textPrint+0x14e>
    1895: 85 12        	sta	$12                     ; 0x2012 <textPrint+0x146>
    1897: a5 13        	lda	$13                     ; 0x2013 <textPrint+0x147>
    1899: 69 00        	adc	#$0
    189b: aa           	tax
    189c: a5 12        	lda	$12                     ; 0x2012 <textPrint+0x146>
    189e: 69 e0        	adc	#$e0
    18a0: 86 12        	stx	$12                     ; 0x2012 <textPrint+0x146>
    18a2: 85 13        	sta	$13                     ; 0x2013 <textPrint+0x147>
    18a4: a5 16        	lda	$16                     ; 0x2016 <textPrint+0x14a>
    18a6: 92 12        	sta	($12)                   ; 0x2012 <textPrint+0x146>
    18a8: b2 14        	lda	($14)                   ; 0x2014 <textPrint+0x148>
    18aa: 85 0f        	sta	$f                      ; 0x200f <textPrint+0x143>
    18ac: 58           	cli
    18ad: 18           	clc
    18ae: a5 10        	lda	$10                     ; 0x2010 <textPrint+0x144>
    18b0: 69 07        	adc	#$7
    18b2: 85 10        	sta	$10                     ; 0x2010 <textPrint+0x144>
    18b4: a5 11        	lda	$11                     ; 0x2011 <textPrint+0x145>
    18b6: 69 00        	adc	#$0
    18b8: 85 11        	sta	$11                     ; 0x2011 <textPrint+0x145>
    18ba: 60           	rts

000018bb <main>:
    18bb: 18           	clc
    18bc: a5 10        	lda	$10                     ; 0x2010 <textPrint+0x144>
    18be: 69 fe        	adc	#$fe
    18c0: 85 10        	sta	$10                     ; 0x2010 <textPrint+0x144>
    18c2: a5 11        	lda	$11                     ; 0x2011 <textPrint+0x145>
    18c4: 69 ff        	adc	#$ff
    18c6: 85 11        	sta	$11                     ; 0x2011 <textPrint+0x145>
    18c8: 18           	clc
    18c9: a6 10        	ldx	$10                     ; 0x2010 <textPrint+0x144>
    18cb: 86 12        	stx	$12                     ; 0x2012 <textPrint+0x146>
    18cd: 85 13        	sta	$13                     ; 0x2013 <textPrint+0x147>
    18cf: a9 00        	lda	#$0
    18d1: 92 12        	sta	($12)                   ; 0x2012 <textPrint+0x146>
    18d3: a0 01        	ldy	#$1
    18d5: 91 12        	sta	($12),y                 ; 0x2012 <textPrint+0x146>
    18d7: 20 64 05     	jsr	$564 <f256Init>
    18da: a5 fa        	lda	$fa                     ; 0x20fa <textPrint+0x22e>
    18dc: 4a           	lsr
    18dd: a6 f8        	ldx	$f8                     ; 0x20f8 <textPrint+0x22c>
    18df: a4 f9        	ldy	$f9                     ; 0x20f9 <textPrint+0x22d>
    18e1: 86 12        	stx	$12                     ; 0x2012 <textPrint+0x146>
    18e3: 84 13        	sty	$13                     ; 0x2013 <textPrint+0x147>
    18e5: a2 00        	ldx	#$0
    18e7: 20 00 19     	jsr	$1900 <f256main>
    18ea: 20 24 17     	jsr	$1724 <f256Reset>
    18ed: a2 00        	ldx	#$0
    18ef: 8a           	txa
    18f0: 48           	pha
    18f1: 18           	clc
    18f2: a5 10        	lda	$10                     ; 0x2010 <textPrint+0x144>
    18f4: 69 02        	adc	#$2
    18f6: 85 10        	sta	$10                     ; 0x2010 <textPrint+0x144>
    18f8: a5 11        	lda	$11                     ; 0x2011 <textPrint+0x145>
    18fa: 69 00        	adc	#$0
    18fc: 85 11        	sta	$11                     ; 0x2011 <textPrint+0x145>
    18fe: 68           	pla
    18ff: 60           	rts

00001900 <f256main>:
    1900: 48           	pha
    1901: 18           	clc
    1902: a5 10        	lda	$10                     ; 0x2010 <textPrint+0x144>
    1904: 69 f8        	adc	#$f8
    1906: 85 10        	sta	$10                     ; 0x2010 <textPrint+0x144>
    1908: a5 11        	lda	$11                     ; 0x2011 <textPrint+0x145>
    190a: 69 ff        	adc	#$ff
    190c: 85 11        	sta	$11                     ; 0x2011 <textPrint+0x145>
    190e: 68           	pla
    190f: a4 24        	ldy	$24                     ; 0x2024 <textPrint+0x158>
    1911: 5a           	phy
    1912: a4 25        	ldy	$25                     ; 0x2025 <textPrint+0x159>
    1914: 5a           	phy
    1915: 86 16        	stx	$16                     ; 0x2016 <textPrint+0x14a>
    1917: a2 08        	ldx	#$8
    1919: 86 24        	stx	$24                     ; 0x2024 <textPrint+0x158>
    191b: a2 00        	ldx	#$0
    191d: 86 25        	stx	$25                     ; 0x2025 <textPrint+0x159>
    191f: 18           	clc
    1920: 48           	pha
    1921: a5 10        	lda	$10                     ; 0x2010 <textPrint+0x144>
    1923: 69 06        	adc	#$6
    1925: 85 14        	sta	$14                     ; 0x2014 <textPrint+0x148>
    1927: a5 11        	lda	$11                     ; 0x2011 <textPrint+0x145>
    1929: 69 00        	adc	#$0
    192b: 85 15        	sta	$15                     ; 0x2015 <textPrint+0x149>
    192d: 68           	pla
    192e: 92 14        	sta	($14)                   ; 0x2014 <textPrint+0x148>
    1930: a0 01        	ldy	#$1
    1932: a5 16        	lda	$16                     ; 0x2016 <textPrint+0x14a>
    1934: 91 14        	sta	($14),y                 ; 0x2014 <textPrint+0x148>
    1936: a5 12        	lda	$12                     ; 0x2012 <textPrint+0x146>
    1938: a6 13        	ldx	$13                     ; 0x2013 <textPrint+0x147>
    193a: 18           	clc
    193b: 48           	pha
    193c: a5 10        	lda	$10                     ; 0x2010 <textPrint+0x144>
    193e: 69 04        	adc	#$4
    1940: 85 12        	sta	$12                     ; 0x2012 <textPrint+0x146>
    1942: a5 11        	lda	$11                     ; 0x2011 <textPrint+0x145>
    1944: 69 00        	adc	#$0
    1946: 85 13        	sta	$13                     ; 0x2013 <textPrint+0x147>
    1948: 68           	pla
    1949: 92 12        	sta	($12)                   ; 0x2012 <textPrint+0x146>
    194b: 8a           	txa
    194c: 91 12        	sta	($12),y                 ; 0x2012 <textPrint+0x146>
    194e: 18           	clc
    194f: a5 10        	lda	$10                     ; 0x2010 <textPrint+0x144>
    1951: 69 03        	adc	#$3
    1953: 85 12        	sta	$12                     ; 0x2012 <textPrint+0x146>
    1955: a5 11        	lda	$11                     ; 0x2011 <textPrint+0x145>
    1957: 69 00        	adc	#$0
    1959: 85 13        	sta	$13                     ; 0x2013 <textPrint+0x147>
    195b: a9 00        	lda	#$0
    195d: 92 12        	sta	($12)                   ; 0x2012 <textPrint+0x146>
    195f: aa           	tax
    1960: 8a           	txa
    1961: 20 34 14     	jsr	$1434 <textGotoXY>
    1964: a2 c1        	ldx	#$c1
    1966: 86 12        	stx	$12                     ; 0x2012 <textPrint+0x146>
    1968: a2 6a        	ldx	#$6a
    196a: 86 13        	stx	$13                     ; 0x2013 <textPrint+0x147>
    196c: 20 45 5a     	jsr	$5a45 <printf>
    196f: 20 49 1a     	jsr	$1a49 <setup>
    1972: a2 00        	ldx	#$0
    1974: 8a           	txa
    1975: 20 34 14     	jsr	$1434 <textGotoXY>
    1978: a2 d0        	ldx	#$d0
    197a: 86 12        	stx	$12                     ; 0x2012 <textPrint+0x146>
    197c: a2 6a        	ldx	#$6a
    197e: 86 13        	stx	$13                     ; 0x2013 <textPrint+0x147>
    1980: 20 45 5a     	jsr	$5a45 <printf>
    1983: a9 01        	lda	#$1
    1985: 20 b4 24     	jsr	$24b4 <bitmapTitleFallRise>
    1988: 20 c7 34     	jsr	$34c7 <playEmbeddedDim>
    198b: 20 02 28     	jsr	$2802 <midiShutAllChannels>
    198e: a9 00        	lda	#$0
    1990: 20 b4 24     	jsr	$24b4 <bitmapTitleFallRise>
    1993: a2 00        	ldx	#$0
    1995: 8a           	txa
    1996: 20 34 14     	jsr	$1434 <textGotoXY>
    1999: a2 df        	ldx	#$df
    199b: 86 12        	stx	$12                     ; 0x2012 <textPrint+0x146>
    199d: a2 6a        	ldx	#$6a
    199f: 86 13        	stx	$13                     ; 0x2013 <textPrint+0x147>
    19a1: 20 45 5a     	jsr	$5a45 <printf>
    19a4: 18           	clc
    19a5: a5 10        	lda	$10                     ; 0x2010 <textPrint+0x144>
    19a7: 69 03        	adc	#$3
    19a9: 85 12        	sta	$12                     ; 0x2012 <textPrint+0x146>
    19ab: a5 11        	lda	$11                     ; 0x2011 <textPrint+0x145>
    19ad: 69 00        	adc	#$0
    19af: 85 13        	sta	$13                     ; 0x2013 <textPrint+0x147>
    19b1: b2 12        	lda	($12)                   ; 0x2012 <textPrint+0x146>
    19b3: f0 03        	beq	$19b8 <f256main+0xb8>
    19b5: 4c 35 1a     	jmp	$1a35 <f256main+0x135>
    19b8: 64 4d        	stz	$4d                     ; 0x204d <textPrint+0x181>
    19ba: 18           	clc
    19bb: a5 10        	lda	$10                     ; 0x2010 <textPrint+0x144>
    19bd: 69 01        	adc	#$1
    19bf: 85 12        	sta	$12                     ; 0x2012 <textPrint+0x146>
    19c1: a5 11        	lda	$11                     ; 0x2011 <textPrint+0x145>
    19c3: 69 00        	adc	#$0
    19c5: 85 13        	sta	$13                     ; 0x2013 <textPrint+0x147>
    19c7: a2 f3        	ldx	#$f3
    19c9: 86 14        	stx	$14                     ; 0x2014 <textPrint+0x148>
    19cb: a2 6a        	ldx	#$6a
    19cd: 86 15        	stx	$15                     ; 0x2015 <textPrint+0x149>
    19cf: 20 00 ff     	jsr	$ff00 <end_block9+0x940c>
    19d2: 92 12        	sta	($12)                   ; 0x2012 <textPrint+0x146>
    19d4: a9 00        	lda	#$0
    19d6: 6a           	ror
    19d7: 85 14        	sta	$14                     ; 0x2014 <textPrint+0x148>
    19d9: b2 12        	lda	($12)                   ; 0x2012 <textPrint+0x146>
    19db: 18           	clc
    19dc: a6 10        	ldx	$10                     ; 0x2010 <textPrint+0x144>
    19de: 86 12        	stx	$12                     ; 0x2012 <textPrint+0x146>
    19e0: a6 11        	ldx	$11                     ; 0x2011 <textPrint+0x145>
    19e2: 86 13        	stx	$13                     ; 0x2013 <textPrint+0x147>
    19e4: 92 12        	sta	($12)                   ; 0x2012 <textPrint+0x146>
    19e6: b2 12        	lda	($12)                   ; 0x2012 <textPrint+0x146>
    19e8: 18           	clc
    19e9: 48           	pha
    19ea: a5 10        	lda	$10                     ; 0x2010 <textPrint+0x144>
    19ec: 69 02        	adc	#$2
    19ee: 85 12        	sta	$12                     ; 0x2012 <textPrint+0x146>
    19f0: a5 11        	lda	$11                     ; 0x2011 <textPrint+0x145>
    19f2: 69 00        	adc	#$0
    19f4: 85 13        	sta	$13                     ; 0x2013 <textPrint+0x147>
    19f6: 68           	pla
    19f7: 92 12        	sta	($12)                   ; 0x2012 <textPrint+0x146>
    19f9: a6 4d        	ldx	$4d                     ; 0x204d <textPrint+0x181>
    19fb: a0 00        	ldy	#$0
    19fd: c4 25        	cpy	$25                     ; 0x2025 <textPrint+0x159>
    19ff: f0 02        	beq	$1a03 <f256main+0x103>
    1a01: 80 0c        	bra	$1a0f <f256main+0x10f>
    1a03: e4 24        	cpx	$24                     ; 0x2024 <textPrint+0x158>
    1a05: f0 02        	beq	$1a09 <f256main+0x109>
    1a07: 80 02        	bra	$1a0b <f256main+0x10b>
    1a09: 80 02        	bra	$1a0d <f256main+0x10d>
    1a0b: 80 25        	bra	$1a32 <f256main+0x132>
    1a0d: 80 02        	bra	$1a11 <f256main+0x111>
    1a0f: 80 21        	bra	$1a32 <f256main+0x132>
    1a11: 80 00        	bra	$1a13 <f256main+0x113>
    1a13: a6 51        	ldx	$51                     ; 0x2051 <textPrint+0x185>
    1a15: e0 92        	cpx	#$92
    1a17: f0 02        	beq	$1a1b <f256main+0x11b>
    1a19: 80 02        	bra	$1a1d <f256main+0x11d>
    1a1b: 80 02        	bra	$1a1f <f256main+0x11f>
    1a1d: 80 13        	bra	$1a32 <f256main+0x132>
    1a1f: 80 00        	bra	$1a21 <f256main+0x121>
    1a21: 18           	clc
    1a22: a5 10        	lda	$10                     ; 0x2010 <textPrint+0x144>
    1a24: 69 03        	adc	#$3
    1a26: 85 12        	sta	$12                     ; 0x2012 <textPrint+0x146>
    1a28: a5 11        	lda	$11                     ; 0x2011 <textPrint+0x145>
    1a2a: 69 00        	adc	#$0
    1a2c: 85 13        	sta	$13                     ; 0x2013 <textPrint+0x147>
    1a2e: a9 01        	lda	#$1
    1a30: 92 12        	sta	($12)                   ; 0x2012 <textPrint+0x146>
    1a32: 4c a4 19     	jmp	$19a4 <f256main+0xa4>
    1a35: fa           	plx
    1a36: 86 25        	stx	$25                     ; 0x2025 <textPrint+0x159>
    1a38: fa           	plx
    1a39: 86 24        	stx	$24                     ; 0x2024 <textPrint+0x158>
    1a3b: 18           	clc
    1a3c: a5 10        	lda	$10                     ; 0x2010 <textPrint+0x144>
    1a3e: 69 08        	adc	#$8
    1a40: 85 10        	sta	$10                     ; 0x2010 <textPrint+0x144>
    1a42: a5 11        	lda	$11                     ; 0x2011 <textPrint+0x145>
    1a44: 69 00        	adc	#$0
    1a46: 85 11        	sta	$11                     ; 0x2011 <textPrint+0x145>
    1a48: 60           	rts

00001a49 <setup>:
    1a49: 18           	clc
    1a4a: a5 10        	lda	$10                     ; 0x2010 <textPrint+0x144>
    1a4c: 69 fa        	adc	#$fa
    1a4e: 85 10        	sta	$10                     ; 0x2010 <textPrint+0x144>
    1a50: a5 11        	lda	$11                     ; 0x2011 <textPrint+0x145>
    1a52: 69 ff        	adc	#$ff
    1a54: 85 11        	sta	$11                     ; 0x2011 <textPrint+0x145>
    1a56: a6 24        	ldx	$24                     ; 0x2024 <textPrint+0x158>
    1a58: da           	phx
    1a59: a6 25        	ldx	$25                     ; 0x2025 <textPrint+0x159>
    1a5b: da           	phx
    1a5c: 20 b5 56     	jsr	$56b5 <openAllCODEC>
    1a5f: a9 00        	lda	#$0
    1a61: 64 01        	stz	$1                      ; 0x2001 <textPrint+0x135>
    1a63: a2 0f        	ldx	#$f
    1a65: 8e 00 d0     	stx	$d000                   ; 0xd000 <end_block9+0x650c>
    1a68: a2 14        	ldx	#$14
    1a6a: 8e 01 d0     	stx	$d001                   ; 0xd001 <end_block9+0x650d>
    1a6d: a0 01        	ldy	#$1
    1a6f: 84 01        	sty	$1                      ; 0x2001 <textPrint+0x135>
    1a71: 18           	clc
    1a72: a6 10        	ldx	$10                     ; 0x2010 <textPrint+0x144>
    1a74: 86 12        	stx	$12                     ; 0x2012 <textPrint+0x146>
    1a76: a6 11        	ldx	$11                     ; 0x2011 <textPrint+0x145>
    1a78: 86 13        	stx	$13                     ; 0x2013 <textPrint+0x147>
    1a7a: 92 12        	sta	($12)                   ; 0x2012 <textPrint+0x146>
    1a7c: 91 12        	sta	($12),y                 ; 0x2012 <textPrint+0x146>
    1a7e: 18           	clc
    1a7f: a6 10        	ldx	$10                     ; 0x2010 <textPrint+0x144>
    1a81: 86 12        	stx	$12                     ; 0x2012 <textPrint+0x146>
    1a83: a6 11        	ldx	$11                     ; 0x2011 <textPrint+0x145>
    1a85: 86 13        	stx	$13                     ; 0x2013 <textPrint+0x147>
    1a87: b2 12        	lda	($12)                   ; 0x2012 <textPrint+0x146>
    1a89: 85 14        	sta	$14                     ; 0x2014 <textPrint+0x148>
    1a8b: a0 01        	ldy	#$1
    1a8d: b1 12        	lda	($12),y                 ; 0x2012 <textPrint+0x146>
    1a8f: c9 03        	cmp	#$3
    1a91: a2 01        	ldx	#$1
    1a93: b0 02        	bcs	$1a97 <setup+0x4e>
    1a95: a2 00        	ldx	#$0
    1a97: 86 12        	stx	$12                     ; 0x2012 <textPrint+0x146>
    1a99: c9 03        	cmp	#$3
    1a9b: f0 02        	beq	$1a9f <setup+0x56>
    1a9d: 80 09        	bra	$1aa8 <setup+0x5f>
    1a9f: a6 14        	ldx	$14                     ; 0x2014 <textPrint+0x148>
    1aa1: e0 ff        	cpx	#$ff
    1aa3: 90 0a        	bcc	$1aaf <setup+0x66>
    1aa5: 4c 21 1b     	jmp	$1b21 <setup+0xd8>
    1aa8: a5 12        	lda	$12                     ; 0x2012 <textPrint+0x146>
    1aaa: f0 03        	beq	$1aaf <setup+0x66>
    1aac: 4c 21 1b     	jmp	$1b21 <setup+0xd8>
    1aaf: 80 00        	bra	$1ab1 <setup+0x68>
    1ab1: 18           	clc
    1ab2: a6 10        	ldx	$10                     ; 0x2010 <textPrint+0x144>
    1ab4: 86 24        	stx	$24                     ; 0x2024 <textPrint+0x158>
    1ab6: a6 11        	ldx	$11                     ; 0x2011 <textPrint+0x145>
    1ab8: 86 25        	stx	$25                     ; 0x2025 <textPrint+0x159>
    1aba: b2 24        	lda	($24)                   ; 0x2024 <textPrint+0x158>
    1abc: 85 13        	sta	$13                     ; 0x2013 <textPrint+0x147>
    1abe: a0 01        	ldy	#$1
    1ac0: b1 24        	lda	($24),y                 ; 0x2024 <textPrint+0x158>
    1ac2: 85 12        	sta	$12                     ; 0x2012 <textPrint+0x146>
    1ac4: 18           	clc
    1ac5: a5 13        	lda	$13                     ; 0x2013 <textPrint+0x147>
    1ac7: 69 00        	adc	#$0
    1ac9: a8           	tay
    1aca: a5 12        	lda	$12                     ; 0x2012 <textPrint+0x146>
    1acc: 69 00        	adc	#$0
    1ace: aa           	tax
    1acf: a9 00        	lda	#$0
    1ad1: 69 01        	adc	#$1
    1ad3: 85 12        	sta	$12                     ; 0x2012 <textPrint+0x146>
    1ad5: a9 00        	lda	#$0
    1ad7: 69 00        	adc	#$0
    1ad9: 85 13        	sta	$13                     ; 0x2013 <textPrint+0x147>
    1adb: 98           	tya
    1adc: 20 3f 17     	jsr	$173f <FAR_PEEK>
    1adf: aa           	tax
    1ae0: b2 24        	lda	($24)                   ; 0x2024 <textPrint+0x158>
    1ae2: 85 13        	sta	$13                     ; 0x2013 <textPrint+0x147>
    1ae4: a0 01        	ldy	#$1
    1ae6: b1 24        	lda	($24),y                 ; 0x2024 <textPrint+0x158>
    1ae8: 85 12        	sta	$12                     ; 0x2012 <textPrint+0x146>
    1aea: 18           	clc
    1aeb: a5 13        	lda	$13                     ; 0x2013 <textPrint+0x147>
    1aed: 69 00        	adc	#$0
    1aef: a8           	tay
    1af0: a5 12        	lda	$12                     ; 0x2012 <textPrint+0x146>
    1af2: 69 d0        	adc	#$d0
    1af4: 84 12        	sty	$12                     ; 0x2012 <textPrint+0x146>
    1af6: 85 13        	sta	$13                     ; 0x2013 <textPrint+0x147>
    1af8: 8a           	txa
    1af9: 92 12        	sta	($12)                   ; 0x2012 <textPrint+0x146>
    1afb: 18           	clc
    1afc: a6 10        	ldx	$10                     ; 0x2010 <textPrint+0x144>
    1afe: 86 12        	stx	$12                     ; 0x2012 <textPrint+0x146>
    1b00: a6 11        	ldx	$11                     ; 0x2011 <textPrint+0x145>
    1b02: 86 13        	stx	$13                     ; 0x2013 <textPrint+0x147>
    1b04: b2 12        	lda	($12)                   ; 0x2012 <textPrint+0x146>
    1b06: aa           	tax
    1b07: a0 01        	ldy	#$1
    1b09: b1 12        	lda	($12),y                 ; 0x2012 <textPrint+0x146>
    1b0b: e8           	inx
    1b0c: f0 03        	beq	$1b11 <setup+0xc8>
    1b0e: 4c 15 1b     	jmp	$1b15 <setup+0xcc>
    1b11: 1a           	inc
    1b12: 4c 15 1b     	jmp	$1b15 <setup+0xcc>
    1b15: 85 14        	sta	$14                     ; 0x2014 <textPrint+0x148>
    1b17: 8a           	txa
    1b18: 92 12        	sta	($12)                   ; 0x2012 <textPrint+0x146>
    1b1a: a5 14        	lda	$14                     ; 0x2014 <textPrint+0x148>
    1b1c: 91 12        	sta	($12),y                 ; 0x2012 <textPrint+0x146>
    1b1e: 4c 7e 1a     	jmp	$1a7e <setup+0x35>
    1b21: 64 01        	stz	$1                      ; 0x2001 <textPrint+0x135>
    1b23: 20 7a 1c     	jsr	$1c7a <bitmapSetActive>
    1b26: a2 30        	ldx	#$30
    1b28: a0 02        	ldy	#$2
    1b2a: 84 12        	sty	$12                     ; 0x2012 <textPrint+0x146>
    1b2c: 64 13        	stz	$13                     ; 0x2013 <textPrint+0x147>
    1b2e: a9 00        	lda	#$0
    1b30: 20 a4 1c     	jsr	$1ca4 <bitmapSetAddress>
    1b33: 20 a1 1d     	jsr	$1da1 <bitmapSetCLUT>
    1b36: a2 00        	ldx	#$0
    1b38: 8a           	txa
    1b39: 20 c7 0d     	jsr	$dc7 <bitmapSetVisible>
    1b3c: a9 00        	lda	#$0
    1b3e: 18           	clc
    1b3f: 48           	pha
    1b40: a5 10        	lda	$10                     ; 0x2010 <textPrint+0x144>
    1b42: 69 02        	adc	#$2
    1b44: 85 12        	sta	$12                     ; 0x2012 <textPrint+0x146>
    1b46: a5 11        	lda	$11                     ; 0x2011 <textPrint+0x145>
    1b48: 69 00        	adc	#$0
    1b4a: 85 13        	sta	$13                     ; 0x2013 <textPrint+0x147>
    1b4c: 68           	pla
    1b4d: 92 12        	sta	($12)                   ; 0x2012 <textPrint+0x146>
    1b4f: a0 01        	ldy	#$1
    1b51: 91 12        	sta	($12),y                 ; 0x2012 <textPrint+0x146>
    1b53: c8           	iny
    1b54: 91 12        	sta	($12),y                 ; 0x2012 <textPrint+0x146>
    1b56: c8           	iny
    1b57: 91 12        	sta	($12),y                 ; 0x2012 <textPrint+0x146>
    1b59: 18           	clc
    1b5a: a5 10        	lda	$10                     ; 0x2010 <textPrint+0x144>
    1b5c: 69 02        	adc	#$2
    1b5e: 85 12        	sta	$12                     ; 0x2012 <textPrint+0x146>
    1b60: a5 11        	lda	$11                     ; 0x2011 <textPrint+0x145>
    1b62: 69 00        	adc	#$0
    1b64: 85 13        	sta	$13                     ; 0x2013 <textPrint+0x147>
    1b66: b2 12        	lda	($12)                   ; 0x2012 <textPrint+0x146>
    1b68: 85 14        	sta	$14                     ; 0x2014 <textPrint+0x148>
    1b6a: a0 01        	ldy	#$1
    1b6c: b1 12        	lda	($12),y                 ; 0x2012 <textPrint+0x146>
    1b6e: 85 15        	sta	$15                     ; 0x2015 <textPrint+0x149>
    1b70: c8           	iny
    1b71: b1 12        	lda	($12),y                 ; 0x2012 <textPrint+0x146>
    1b73: 85 16        	sta	$16                     ; 0x2016 <textPrint+0x14a>
    1b75: c8           	iny
    1b76: b1 12        	lda	($12),y                 ; 0x2012 <textPrint+0x146>
    1b78: c9 00        	cmp	#$0
    1b7a: a2 01        	ldx	#$1
    1b7c: b0 02        	bcs	$1b80 <setup+0x137>
    1b7e: a2 00        	ldx	#$0
    1b80: 86 12        	stx	$12                     ; 0x2012 <textPrint+0x146>
    1b82: aa           	tax
    1b83: f0 02        	beq	$1b87 <setup+0x13e>
    1b85: 80 3f        	bra	$1bc6 <setup+0x17d>
    1b87: a6 16        	ldx	$16                     ; 0x2016 <textPrint+0x14a>
    1b89: e0 01        	cpx	#$1
    1b8b: a0 01        	ldy	#$1
    1b8d: b0 02        	bcs	$1b91 <setup+0x148>
    1b8f: a0 00        	ldy	#$0
    1b91: 84 12        	sty	$12                     ; 0x2012 <textPrint+0x146>
    1b93: e0 01        	cpx	#$1
    1b95: f0 02        	beq	$1b99 <setup+0x150>
    1b97: 80 24        	bra	$1bbd <setup+0x174>
    1b99: a6 15        	ldx	$15                     ; 0x2015 <textPrint+0x149>
    1b9b: e0 2c        	cpx	#$2c
    1b9d: a0 01        	ldy	#$1
    1b9f: b0 02        	bcs	$1ba3 <setup+0x15a>
    1ba1: a0 00        	ldy	#$0
    1ba3: 84 12        	sty	$12                     ; 0x2012 <textPrint+0x146>
    1ba5: e0 2c        	cpx	#$2c
    1ba7: f0 02        	beq	$1bab <setup+0x162>
    1ba9: 80 09        	bra	$1bb4 <setup+0x16b>
    1bab: a6 14        	ldx	$14                     ; 0x2014 <textPrint+0x148>
    1bad: e0 00        	cpx	#$0
    1baf: 90 0a        	bcc	$1bbb <setup+0x172>
    1bb1: 4c 5e 1c     	jmp	$1c5e <setup+0x215>
    1bb4: a5 12        	lda	$12                     ; 0x2012 <textPrint+0x146>
    1bb6: f0 03        	beq	$1bbb <setup+0x172>
    1bb8: 4c 5e 1c     	jmp	$1c5e <setup+0x215>
    1bbb: 80 07        	bra	$1bc4 <setup+0x17b>
    1bbd: a5 12        	lda	$12                     ; 0x2012 <textPrint+0x146>
    1bbf: f0 03        	beq	$1bc4 <setup+0x17b>
    1bc1: 4c 5e 1c     	jmp	$1c5e <setup+0x215>
    1bc4: 80 07        	bra	$1bcd <setup+0x184>
    1bc6: a5 12        	lda	$12                     ; 0x2012 <textPrint+0x146>
    1bc8: f0 03        	beq	$1bcd <setup+0x184>
    1bca: 4c 5e 1c     	jmp	$1c5e <setup+0x215>
    1bcd: 80 00        	bra	$1bcf <setup+0x186>
    1bcf: 18           	clc
    1bd0: a5 10        	lda	$10                     ; 0x2010 <textPrint+0x144>
    1bd2: 69 02        	adc	#$2
    1bd4: 85 12        	sta	$12                     ; 0x2012 <textPrint+0x146>
    1bd6: a5 11        	lda	$11                     ; 0x2011 <textPrint+0x145>
    1bd8: 69 00        	adc	#$0
    1bda: 85 13        	sta	$13                     ; 0x2013 <textPrint+0x147>
    1bdc: b2 12        	lda	($12)                   ; 0x2012 <textPrint+0x146>
    1bde: 85 14        	sta	$14                     ; 0x2014 <textPrint+0x148>
    1be0: a0 01        	ldy	#$1
    1be2: b1 12        	lda	($12),y                 ; 0x2012 <textPrint+0x146>
    1be4: aa           	tax
    1be5: c8           	iny
    1be6: b1 12        	lda	($12),y                 ; 0x2012 <textPrint+0x146>
    1be8: 85 15        	sta	$15                     ; 0x2015 <textPrint+0x149>
    1bea: c8           	iny
    1beb: b1 12        	lda	($12),y                 ; 0x2012 <textPrint+0x146>
    1bed: 85 13        	sta	$13                     ; 0x2013 <textPrint+0x147>
    1bef: 18           	clc
    1bf0: a5 14        	lda	$14                     ; 0x2014 <textPrint+0x148>
    1bf2: 69 00        	adc	#$0
    1bf4: a8           	tay
    1bf5: 8a           	txa
    1bf6: 69 30        	adc	#$30
    1bf8: aa           	tax
    1bf9: a5 15        	lda	$15                     ; 0x2015 <textPrint+0x149>
    1bfb: 69 02        	adc	#$2
    1bfd: 85 12        	sta	$12                     ; 0x2012 <textPrint+0x146>
    1bff: a5 13        	lda	$13                     ; 0x2013 <textPrint+0x147>
    1c01: 69 00        	adc	#$0
    1c03: 85 13        	sta	$13                     ; 0x2013 <textPrint+0x147>
    1c05: 98           	tya
    1c06: 20 fa 17     	jsr	$17fa <FAR_POKE>
    1c09: 18           	clc
    1c0a: a5 10        	lda	$10                     ; 0x2010 <textPrint+0x144>
    1c0c: 69 02        	adc	#$2
    1c0e: 85 12        	sta	$12                     ; 0x2012 <textPrint+0x146>
    1c10: a5 11        	lda	$11                     ; 0x2011 <textPrint+0x145>
    1c12: 69 00        	adc	#$0
    1c14: 85 13        	sta	$13                     ; 0x2013 <textPrint+0x147>
    1c16: b2 12        	lda	($12)                   ; 0x2012 <textPrint+0x146>
    1c18: aa           	tax
    1c19: a0 01        	ldy	#$1
    1c1b: b1 12        	lda	($12),y                 ; 0x2012 <textPrint+0x146>
    1c1d: 85 14        	sta	$14                     ; 0x2014 <textPrint+0x148>
    1c1f: c8           	iny
    1c20: b1 12        	lda	($12),y                 ; 0x2012 <textPrint+0x146>
    1c22: 85 16        	sta	$16                     ; 0x2016 <textPrint+0x14a>
    1c24: c8           	iny
    1c25: b1 12        	lda	($12),y                 ; 0x2012 <textPrint+0x146>
    1c27: 85 15        	sta	$15                     ; 0x2015 <textPrint+0x149>
    1c29: e8           	inx
    1c2a: f0 03        	beq	$1c2f <setup+0x1e6>
    1c2c: 4c 48 1c     	jmp	$1c48 <setup+0x1ff>
    1c2f: e6 14        	inc	$14                     ; 0x2014 <textPrint+0x148>
    1c31: f0 03        	beq	$1c36 <setup+0x1ed>
    1c33: 4c 45 1c     	jmp	$1c45 <setup+0x1fc>
    1c36: e6 16        	inc	$16                     ; 0x2016 <textPrint+0x14a>
    1c38: f0 03        	beq	$1c3d <setup+0x1f4>
    1c3a: 4c 42 1c     	jmp	$1c42 <setup+0x1f9>
    1c3d: e6 15        	inc	$15                     ; 0x2015 <textPrint+0x149>
    1c3f: 4c 42 1c     	jmp	$1c42 <setup+0x1f9>
    1c42: 4c 45 1c     	jmp	$1c45 <setup+0x1fc>
    1c45: 4c 48 1c     	jmp	$1c48 <setup+0x1ff>
    1c48: a5 14        	lda	$14                     ; 0x2014 <textPrint+0x148>
    1c4a: a0 01        	ldy	#$1
    1c4c: 91 12        	sta	($12),y                 ; 0x2012 <textPrint+0x146>
    1c4e: c8           	iny
    1c4f: a5 16        	lda	$16                     ; 0x2016 <textPrint+0x14a>
    1c51: 91 12        	sta	($12),y                 ; 0x2012 <textPrint+0x146>
    1c53: a5 15        	lda	$15                     ; 0x2015 <textPrint+0x149>
    1c55: c8           	iny
    1c56: 91 12        	sta	($12),y                 ; 0x2012 <textPrint+0x146>
    1c58: 8a           	txa
    1c59: 92 12        	sta	($12)                   ; 0x2012 <textPrint+0x146>
    1c5b: 4c 59 1b     	jmp	$1b59 <setup+0x110>
    1c5e: 20 65 29     	jsr	$2965 <resetInstruments>
    1c61: a9 00        	lda	#$0
    1c63: 20 19 29     	jsr	$2919 <midiShutUp>
    1c66: fa           	plx
    1c67: 86 25        	stx	$25                     ; 0x2025 <textPrint+0x159>
    1c69: fa           	plx
    1c6a: 86 24        	stx	$24                     ; 0x2024 <textPrint+0x158>
    1c6c: 18           	clc
    1c6d: a5 10        	lda	$10                     ; 0x2010 <textPrint+0x144>
    1c6f: 69 06        	adc	#$6
    1c71: 85 10        	sta	$10                     ; 0x2010 <textPrint+0x144>
    1c73: a5 11        	lda	$11                     ; 0x2011 <textPrint+0x145>
    1c75: 69 00        	adc	#$0
    1c77: 85 11        	sta	$11                     ; 0x2011 <textPrint+0x145>
    1c79: 60           	rts

00001c7a <bitmapSetActive>:
    1c7a: 18           	clc
    1c7b: a5 10        	lda	$10                     ; 0x2010 <textPrint+0x144>
    1c7d: 69 ff        	adc	#$ff
    1c7f: 85 10        	sta	$10                     ; 0x2010 <textPrint+0x144>
    1c81: a5 11        	lda	$11                     ; 0x2011 <textPrint+0x145>
    1c83: 69 ff        	adc	#$ff
    1c85: 85 11        	sta	$11                     ; 0x2011 <textPrint+0x145>
    1c87: 18           	clc
    1c88: a6 10        	ldx	$10                     ; 0x2010 <textPrint+0x144>
    1c8a: 86 12        	stx	$12                     ; 0x2012 <textPrint+0x146>
    1c8c: 85 13        	sta	$13                     ; 0x2013 <textPrint+0x147>
    1c8e: a9 00        	lda	#$0
    1c90: 92 12        	sta	($12)                   ; 0x2012 <textPrint+0x146>
    1c92: b2 12        	lda	($12)                   ; 0x2012 <textPrint+0x146>
    1c94: 85 40        	sta	$40                     ; 0x2040 <textPrint+0x174>
    1c96: 18           	clc
    1c97: a5 10        	lda	$10                     ; 0x2010 <textPrint+0x144>
    1c99: 69 01        	adc	#$1
    1c9b: 85 10        	sta	$10                     ; 0x2010 <textPrint+0x144>
    1c9d: a5 11        	lda	$11                     ; 0x2011 <textPrint+0x145>
    1c9f: 69 00        	adc	#$0
    1ca1: 85 11        	sta	$11                     ; 0x2011 <textPrint+0x145>
    1ca3: 60           	rts

00001ca4 <bitmapSetAddress>:
    1ca4: 48           	pha
    1ca5: 18           	clc
    1ca6: a5 10        	lda	$10                     ; 0x2010 <textPrint+0x144>
    1ca8: 69 fb        	adc	#$fb
    1caa: 85 10        	sta	$10                     ; 0x2010 <textPrint+0x144>
    1cac: a5 11        	lda	$11                     ; 0x2011 <textPrint+0x145>
    1cae: 69 ff        	adc	#$ff
    1cb0: 85 11        	sta	$11                     ; 0x2011 <textPrint+0x145>
    1cb2: 68           	pla
    1cb3: a8           	tay
    1cb4: 86 16        	stx	$16                     ; 0x2016 <textPrint+0x14a>
    1cb6: a6 13        	ldx	$13                     ; 0x2013 <textPrint+0x147>
    1cb8: 18           	clc
    1cb9: a5 10        	lda	$10                     ; 0x2010 <textPrint+0x144>
    1cbb: 69 04        	adc	#$4
    1cbd: 85 18        	sta	$18                     ; 0x2018 <textPrint+0x14c>
    1cbf: a5 11        	lda	$11                     ; 0x2011 <textPrint+0x145>
    1cc1: 69 00        	adc	#$0
    1cc3: 85 19        	sta	$19                     ; 0x2019 <textPrint+0x14d>
    1cc5: a9 00        	lda	#$0
    1cc7: 92 18        	sta	($18)                   ; 0x2018 <textPrint+0x14c>
    1cc9: 64 17        	stz	$17                     ; 0x2017 <textPrint+0x14b>
    1ccb: 18           	clc
    1ccc: a5 10        	lda	$10                     ; 0x2010 <textPrint+0x144>
    1cce: 85 14        	sta	$14                     ; 0x2014 <textPrint+0x148>
    1cd0: a5 11        	lda	$11                     ; 0x2011 <textPrint+0x145>
    1cd2: 85 15        	sta	$15                     ; 0x2015 <textPrint+0x149>
    1cd4: 98           	tya
    1cd5: 92 14        	sta	($14)                   ; 0x2014 <textPrint+0x148>
    1cd7: a0 01        	ldy	#$1
    1cd9: a5 16        	lda	$16                     ; 0x2016 <textPrint+0x14a>
    1cdb: 91 14        	sta	($14),y                 ; 0x2014 <textPrint+0x148>
    1cdd: c8           	iny
    1cde: a5 12        	lda	$12                     ; 0x2012 <textPrint+0x146>
    1ce0: 91 14        	sta	($14),y                 ; 0x2014 <textPrint+0x148>
    1ce2: c8           	iny
    1ce3: 8a           	txa
    1ce4: 91 14        	sta	($14),y                 ; 0x2014 <textPrint+0x148>
    1ce6: b2 18        	lda	($18)                   ; 0x2018 <textPrint+0x14c>
    1ce8: 0a           	asl
    1ce9: 26 17        	rol	$17                     ; 0x2017 <textPrint+0x14b>
    1ceb: 85 16        	sta	$16                     ; 0x2016 <textPrint+0x14a>
    1ced: 06 16        	asl	$16                     ; 0x2016 <textPrint+0x14a>
    1cef: 26 17        	rol	$17                     ; 0x2017 <textPrint+0x14b>
    1cf1: a9 34        	lda	#$34
    1cf3: 18           	clc
    1cf4: 65 16        	adc	$16                     ; 0x2016 <textPrint+0x14a>
    1cf6: 85 16        	sta	$16                     ; 0x2016 <textPrint+0x14a>
    1cf8: a9 00        	lda	#$0
    1cfa: 65 17        	adc	$17                     ; 0x2017 <textPrint+0x14b>
    1cfc: 85 17        	sta	$17                     ; 0x2017 <textPrint+0x14b>
    1cfe: a0 01        	ldy	#$1
    1d00: b1 14        	lda	($14),y                 ; 0x2014 <textPrint+0x148>
    1d02: 91 16        	sta	($16),y                 ; 0x2016 <textPrint+0x14a>
    1d04: b2 14        	lda	($14)                   ; 0x2014 <textPrint+0x148>
    1d06: 85 13        	sta	$13                     ; 0x2013 <textPrint+0x147>
    1d08: c8           	iny
    1d09: b1 14        	lda	($14),y                 ; 0x2014 <textPrint+0x148>
    1d0b: 85 12        	sta	$12                     ; 0x2012 <textPrint+0x146>
    1d0d: a5 13        	lda	$13                     ; 0x2013 <textPrint+0x147>
    1d0f: 92 16        	sta	($16)                   ; 0x2016 <textPrint+0x14a>
    1d11: c8           	iny
    1d12: b1 14        	lda	($14),y                 ; 0x2014 <textPrint+0x148>
    1d14: 85 13        	sta	$13                     ; 0x2013 <textPrint+0x147>
    1d16: a5 12        	lda	$12                     ; 0x2012 <textPrint+0x146>
    1d18: 88           	dey
    1d19: 91 16        	sta	($16),y                 ; 0x2016 <textPrint+0x14a>
    1d1b: c8           	iny
    1d1c: a5 13        	lda	$13                     ; 0x2013 <textPrint+0x147>
    1d1e: 91 16        	sta	($16),y                 ; 0x2016 <textPrint+0x14a>
    1d20: b2 18        	lda	($18)                   ; 0x2018 <textPrint+0x14c>
    1d22: f0 1a        	beq	$1d3e <bitmapSetAddress+0x9a>
    1d24: 80 00        	bra	$1d26 <bitmapSetAddress+0x82>
    1d26: c9 01        	cmp	#$1
    1d28: f0 02        	beq	$1d2c <bitmapSetAddress+0x88>
    1d2a: 80 02        	bra	$1d2e <bitmapSetAddress+0x8a>
    1d2c: 80 2d        	bra	$1d5b <bitmapSetAddress+0xb7>
    1d2e: 80 00        	bra	$1d30 <bitmapSetAddress+0x8c>
    1d30: 80 00        	bra	$1d32 <bitmapSetAddress+0x8e>
    1d32: c9 02        	cmp	#$2
    1d34: f0 02        	beq	$1d38 <bitmapSetAddress+0x94>
    1d36: 80 02        	bra	$1d3a <bitmapSetAddress+0x96>
    1d38: 80 3e        	bra	$1d78 <bitmapSetAddress+0xd4>
    1d3a: 80 00        	bra	$1d3c <bitmapSetAddress+0x98>
    1d3c: 80 55        	bra	$1d93 <bitmapSetAddress+0xef>
    1d3e: 18           	clc
    1d3f: a6 10        	ldx	$10                     ; 0x2010 <textPrint+0x144>
    1d41: 86 12        	stx	$12                     ; 0x2012 <textPrint+0x146>
    1d43: a6 11        	ldx	$11                     ; 0x2011 <textPrint+0x145>
    1d45: 86 13        	stx	$13                     ; 0x2013 <textPrint+0x147>
    1d47: b2 12        	lda	($12)                   ; 0x2012 <textPrint+0x146>
    1d49: 8d 01 d1     	sta	$d101                   ; 0xd101 <end_block9+0x660d>
    1d4c: a0 01        	ldy	#$1
    1d4e: b1 12        	lda	($12),y                 ; 0x2012 <textPrint+0x146>
    1d50: c8           	iny
    1d51: 8d 02 d1     	sta	$d102                   ; 0xd102 <end_block9+0x660e>
    1d54: b1 12        	lda	($12),y                 ; 0x2012 <textPrint+0x146>
    1d56: 8d 03 d1     	sta	$d103                   ; 0xd103 <end_block9+0x660f>
    1d59: 80 38        	bra	$1d93 <bitmapSetAddress+0xef>
    1d5b: 18           	clc
    1d5c: a6 10        	ldx	$10                     ; 0x2010 <textPrint+0x144>
    1d5e: 86 12        	stx	$12                     ; 0x2012 <textPrint+0x146>
    1d60: a6 11        	ldx	$11                     ; 0x2011 <textPrint+0x145>
    1d62: 86 13        	stx	$13                     ; 0x2013 <textPrint+0x147>
    1d64: b2 12        	lda	($12)                   ; 0x2012 <textPrint+0x146>
    1d66: 8d 09 d1     	sta	$d109                   ; 0xd109 <end_block9+0x6615>
    1d69: a0 01        	ldy	#$1
    1d6b: b1 12        	lda	($12),y                 ; 0x2012 <textPrint+0x146>
    1d6d: c8           	iny
    1d6e: 8d 0a d1     	sta	$d10a                   ; 0xd10a <end_block9+0x6616>
    1d71: b1 12        	lda	($12),y                 ; 0x2012 <textPrint+0x146>
    1d73: 8d 0b d1     	sta	$d10b                   ; 0xd10b <end_block9+0x6617>
    1d76: 80 1b        	bra	$1d93 <bitmapSetAddress+0xef>
    1d78: 18           	clc
    1d79: a6 10        	ldx	$10                     ; 0x2010 <textPrint+0x144>
    1d7b: 86 12        	stx	$12                     ; 0x2012 <textPrint+0x146>
    1d7d: a6 11        	ldx	$11                     ; 0x2011 <textPrint+0x145>
    1d7f: 86 13        	stx	$13                     ; 0x2013 <textPrint+0x147>
    1d81: b2 12        	lda	($12)                   ; 0x2012 <textPrint+0x146>
    1d83: 8d 11 d1     	sta	$d111                   ; 0xd111 <end_block9+0x661d>
    1d86: a0 01        	ldy	#$1
    1d88: b1 12        	lda	($12),y                 ; 0x2012 <textPrint+0x146>
    1d8a: c8           	iny
    1d8b: 8d 12 d1     	sta	$d112                   ; 0xd112 <end_block9+0x661e>
    1d8e: b1 12        	lda	($12),y                 ; 0x2012 <textPrint+0x146>
    1d90: 8d 13 d1     	sta	$d113                   ; 0xd113 <end_block9+0x661f>
    1d93: 18           	clc
    1d94: a5 10        	lda	$10                     ; 0x2010 <textPrint+0x144>
    1d96: 69 05        	adc	#$5
    1d98: 85 10        	sta	$10                     ; 0x2010 <textPrint+0x144>
    1d9a: a5 11        	lda	$11                     ; 0x2011 <textPrint+0x145>
    1d9c: 69 00        	adc	#$0
    1d9e: 85 11        	sta	$11                     ; 0x2011 <textPrint+0x145>
    1da0: 60           	rts

00001da1 <bitmapSetCLUT>:
    1da1: 18           	clc
    1da2: a5 10        	lda	$10                     ; 0x2010 <textPrint+0x144>
    1da4: 69 ff        	adc	#$ff
    1da6: 85 10        	sta	$10                     ; 0x2010 <textPrint+0x144>
    1da8: a5 11        	lda	$11                     ; 0x2011 <textPrint+0x145>
    1daa: 69 ff        	adc	#$ff
    1dac: 85 11        	sta	$11                     ; 0x2011 <textPrint+0x145>
    1dae: 18           	clc
    1daf: a6 10        	ldx	$10                     ; 0x2010 <textPrint+0x144>
    1db1: 86 12        	stx	$12                     ; 0x2012 <textPrint+0x146>
    1db3: 85 13        	sta	$13                     ; 0x2013 <textPrint+0x147>
    1db5: a9 00        	lda	#$0
    1db7: 92 12        	sta	($12)                   ; 0x2012 <textPrint+0x146>
    1db9: b2 12        	lda	($12)                   ; 0x2012 <textPrint+0x146>
    1dbb: 0a           	asl
    1dbc: a6 40        	ldx	$40                     ; 0x2040 <textPrint+0x174>
    1dbe: 9d 45 00     	sta	$45,x                   ; 0x45 <_BITMAP_CLUT>
    1dc1: a6 40        	ldx	$40                     ; 0x2040 <textPrint+0x174>
    1dc3: f0 1a        	beq	$1ddf <bitmapSetCLUT+0x3e>
    1dc5: 80 00        	bra	$1dc7 <bitmapSetCLUT+0x26>
    1dc7: e0 01        	cpx	#$1
    1dc9: f0 02        	beq	$1dcd <bitmapSetCLUT+0x2c>
    1dcb: 80 02        	bra	$1dcf <bitmapSetCLUT+0x2e>
    1dcd: 80 1e        	bra	$1ded <bitmapSetCLUT+0x4c>
    1dcf: 80 00        	bra	$1dd1 <bitmapSetCLUT+0x30>
    1dd1: 80 00        	bra	$1dd3 <bitmapSetCLUT+0x32>
    1dd3: e0 02        	cpx	#$2
    1dd5: f0 02        	beq	$1dd9 <bitmapSetCLUT+0x38>
    1dd7: 80 02        	bra	$1ddb <bitmapSetCLUT+0x3a>
    1dd9: 80 20        	bra	$1dfb <bitmapSetCLUT+0x5a>
    1ddb: 80 00        	bra	$1ddd <bitmapSetCLUT+0x3c>
    1ddd: 80 28        	bra	$1e07 <bitmapSetCLUT+0x66>
    1ddf: ad 00 d1     	lda	$d100                   ; 0xd100 <end_block9+0x660c>
    1de2: 29 f9        	and	#$f9
    1de4: a6 40        	ldx	$40                     ; 0x2040 <textPrint+0x174>
    1de6: 15 45        	ora	$45,x                   ; 0x2045 <textPrint+0x179>
    1de8: 8d 00 d1     	sta	$d100                   ; 0xd100 <end_block9+0x660c>
    1deb: 80 1a        	bra	$1e07 <bitmapSetCLUT+0x66>
    1ded: ad 08 d1     	lda	$d108                   ; 0xd108 <end_block9+0x6614>
    1df0: 29 f9        	and	#$f9
    1df2: a6 40        	ldx	$40                     ; 0x2040 <textPrint+0x174>
    1df4: 15 45        	ora	$45,x                   ; 0x2045 <textPrint+0x179>
    1df6: 8d 08 d1     	sta	$d108                   ; 0xd108 <end_block9+0x6614>
    1df9: 80 0c        	bra	$1e07 <bitmapSetCLUT+0x66>
    1dfb: ad 10 d1     	lda	$d110                   ; 0xd110 <end_block9+0x661c>
    1dfe: 29 f9        	and	#$f9
    1e00: a6 40        	ldx	$40                     ; 0x2040 <textPrint+0x174>
    1e02: 15 45        	ora	$45,x                   ; 0x2045 <textPrint+0x179>
    1e04: 8d 10 d1     	sta	$d110                   ; 0xd110 <end_block9+0x661c>
    1e07: 18           	clc
    1e08: a5 10        	lda	$10                     ; 0x2010 <textPrint+0x144>
    1e0a: 69 01        	adc	#$1
    1e0c: 85 10        	sta	$10                     ; 0x2010 <textPrint+0x144>
    1e0e: a5 11        	lda	$11                     ; 0x2011 <textPrint+0x145>
    1e10: 69 00        	adc	#$0
    1e12: 85 11        	sta	$11                     ; 0x2011 <textPrint+0x145>
    1e14: 60           	rts

00001e15 <mathUnsignedAddition>:
    1e15: 48           	pha
    1e16: 18           	clc
    1e17: a5 10        	lda	$10                     ; 0x2010 <textPrint+0x144>
    1e19: 69 f8        	adc	#$f8
    1e1b: 85 10        	sta	$10                     ; 0x2010 <textPrint+0x144>
    1e1d: a5 11        	lda	$11                     ; 0x2011 <textPrint+0x145>
    1e1f: 69 ff        	adc	#$ff
    1e21: 85 11        	sta	$11                     ; 0x2011 <textPrint+0x145>
    1e23: 68           	pla
    1e24: 85 16        	sta	$16                     ; 0x2016 <textPrint+0x14a>
    1e26: 18           	clc
    1e27: a5 10        	lda	$10                     ; 0x2010 <textPrint+0x144>
    1e29: 69 04        	adc	#$4
    1e2b: 85 18        	sta	$18                     ; 0x2018 <textPrint+0x14c>
    1e2d: a5 11        	lda	$11                     ; 0x2011 <textPrint+0x145>
    1e2f: 69 00        	adc	#$0
    1e31: 85 19        	sta	$19                     ; 0x2019 <textPrint+0x14d>
    1e33: a0 01        	ldy	#$1
    1e35: a9 c0        	lda	#$c0
    1e37: 91 18        	sta	($18),y                 ; 0x2018 <textPrint+0x14c>
    1e39: a9 00        	lda	#$0
    1e3b: 92 18        	sta	($18)                   ; 0x2018 <textPrint+0x14c>
    1e3d: c8           	iny
    1e3e: 91 18        	sta	($18),y                 ; 0x2018 <textPrint+0x14c>
    1e40: c8           	iny
    1e41: 91 18        	sta	($18),y                 ; 0x2018 <textPrint+0x14c>
    1e43: 18           	clc
    1e44: a4 10        	ldy	$10                     ; 0x2010 <textPrint+0x144>
    1e46: 84 14        	sty	$14                     ; 0x2014 <textPrint+0x148>
    1e48: a4 11        	ldy	$11                     ; 0x2011 <textPrint+0x145>
    1e4a: 84 15        	sty	$15                     ; 0x2015 <textPrint+0x149>
    1e4c: a5 16        	lda	$16                     ; 0x2016 <textPrint+0x14a>
    1e4e: 92 14        	sta	($14)                   ; 0x2014 <textPrint+0x148>
    1e50: a0 01        	ldy	#$1
    1e52: 8a           	txa
    1e53: 91 14        	sta	($14),y                 ; 0x2014 <textPrint+0x148>
    1e55: a5 12        	lda	$12                     ; 0x2012 <textPrint+0x146>
    1e57: c8           	iny
    1e58: 91 14        	sta	($14),y                 ; 0x2014 <textPrint+0x148>
    1e5a: a5 13        	lda	$13                     ; 0x2013 <textPrint+0x147>
    1e5c: c8           	iny
    1e5d: 91 14        	sta	($14),y                 ; 0x2014 <textPrint+0x148>
    1e5f: b2 18        	lda	($18)                   ; 0x2018 <textPrint+0x14c>
    1e61: 85 13        	sta	$13                     ; 0x2013 <textPrint+0x147>
    1e63: a0 01        	ldy	#$1
    1e65: b1 18        	lda	($18),y                 ; 0x2018 <textPrint+0x14c>
    1e67: 85 12        	sta	$12                     ; 0x2012 <textPrint+0x146>
    1e69: c8           	iny
    1e6a: b1 18        	lda	($18),y                 ; 0x2018 <textPrint+0x14c>
    1e6c: 85 17        	sta	$17                     ; 0x2017 <textPrint+0x14b>
    1e6e: c8           	iny
    1e6f: b1 18        	lda	($18),y                 ; 0x2018 <textPrint+0x14c>
    1e71: a6 13        	ldx	$13                     ; 0x2013 <textPrint+0x147>
    1e73: 8e 08 de     	stx	$de08                   ; 0xde08 <end_block9+0x7314>
    1e76: a6 12        	ldx	$12                     ; 0x2012 <textPrint+0x146>
    1e78: 8e 09 de     	stx	$de09                   ; 0xde09 <end_block9+0x7315>
    1e7b: a6 17        	ldx	$17                     ; 0x2017 <textPrint+0x14b>
    1e7d: 8e 0a de     	stx	$de0a                   ; 0xde0a <end_block9+0x7316>
    1e80: 8d 0b de     	sta	$de0b                   ; 0xde0b <end_block9+0x7317>
    1e83: b2 14        	lda	($14)                   ; 0x2014 <textPrint+0x148>
    1e85: 85 13        	sta	$13                     ; 0x2013 <textPrint+0x147>
    1e87: a0 01        	ldy	#$1
    1e89: b1 14        	lda	($14),y                 ; 0x2014 <textPrint+0x148>
    1e8b: 85 12        	sta	$12                     ; 0x2012 <textPrint+0x146>
    1e8d: c8           	iny
    1e8e: b1 14        	lda	($14),y                 ; 0x2014 <textPrint+0x148>
    1e90: 85 16        	sta	$16                     ; 0x2016 <textPrint+0x14a>
    1e92: c8           	iny
    1e93: b1 14        	lda	($14),y                 ; 0x2014 <textPrint+0x148>
    1e95: a6 13        	ldx	$13                     ; 0x2013 <textPrint+0x147>
    1e97: 8e 0c de     	stx	$de0c                   ; 0xde0c <end_block9+0x7318>
    1e9a: a6 12        	ldx	$12                     ; 0x2012 <textPrint+0x146>
    1e9c: 8e 0d de     	stx	$de0d                   ; 0xde0d <end_block9+0x7319>
    1e9f: a6 16        	ldx	$16                     ; 0x2016 <textPrint+0x14a>
    1ea1: 8e 0e de     	stx	$de0e                   ; 0xde0e <end_block9+0x731a>
    1ea4: 8d 0f de     	sta	$de0f                   ; 0xde0f <end_block9+0x731b>
    1ea7: ae 18 de     	ldx	$de18                   ; 0xde18 <end_block9+0x7324>
    1eaa: 86 14        	stx	$14                     ; 0x2014 <textPrint+0x148>
    1eac: ad 19 de     	lda	$de19                   ; 0xde19 <end_block9+0x7325>
    1eaf: ac 1a de     	ldy	$de1a                   ; 0xde1a <end_block9+0x7326>
    1eb2: ae 1b de     	ldx	$de1b                   ; 0xde1b <end_block9+0x7327>
    1eb5: 84 12        	sty	$12                     ; 0x2012 <textPrint+0x146>
    1eb7: 86 13        	stx	$13                     ; 0x2013 <textPrint+0x147>
    1eb9: aa           	tax
    1eba: a5 14        	lda	$14                     ; 0x2014 <textPrint+0x148>
    1ebc: 48           	pha
    1ebd: 18           	clc
    1ebe: a5 10        	lda	$10                     ; 0x2010 <textPrint+0x144>
    1ec0: 69 08        	adc	#$8
    1ec2: 85 10        	sta	$10                     ; 0x2010 <textPrint+0x144>
    1ec4: a5 11        	lda	$11                     ; 0x2011 <textPrint+0x145>
    1ec6: 69 00        	adc	#$0
    1ec8: 85 11        	sta	$11                     ; 0x2011 <textPrint+0x145>
    1eca: 68           	pla
    1ecb: 60           	rts

00001ecc <textPrint>:
    1ecc: 18           	clc
    1ecd: a5 10        	lda	$10                     ; 0x2010 <textPrint+0x144>
    1ecf: 69 f1        	adc	#$f1
    1ed1: 85 10        	sta	$10                     ; 0x2010 <textPrint+0x144>
    1ed3: a5 11        	lda	$11                     ; 0x2011 <textPrint+0x145>
    1ed5: 69 ff        	adc	#$ff
    1ed7: 85 11        	sta	$11                     ; 0x2011 <textPrint+0x145>
    1ed9: a9 4b        	lda	#$4b
    1edb: 18           	clc
    1edc: 48           	pha
    1edd: a5 10        	lda	$10                     ; 0x2010 <textPrint+0x144>
    1edf: 69 0d        	adc	#$d
    1ee1: 85 12        	sta	$12                     ; 0x2012 <textPrint+0x146>
    1ee3: a5 11        	lda	$11                     ; 0x2011 <textPrint+0x145>
    1ee5: 69 00        	adc	#$0
    1ee7: 85 13        	sta	$13                     ; 0x2013 <textPrint+0x147>
    1ee9: 68           	pla
    1eea: 92 12        	sta	($12)                   ; 0x2012 <textPrint+0x146>
    1eec: a0 01        	ldy	#$1
    1eee: a9 00        	lda	#$0
    1ef0: 91 12        	sta	($12),y                 ; 0x2012 <textPrint+0x146>
    1ef2: 18           	clc
    1ef3: a5 10        	lda	$10                     ; 0x2010 <textPrint+0x144>
    1ef5: 69 0b        	adc	#$b
    1ef7: 85 12        	sta	$12                     ; 0x2012 <textPrint+0x146>
    1ef9: a5 11        	lda	$11                     ; 0x2011 <textPrint+0x145>
    1efb: 69 00        	adc	#$0
    1efd: 85 13        	sta	$13                     ; 0x2013 <textPrint+0x147>
    1eff: a9 00        	lda	#$0
    1f01: 92 12        	sta	($12)                   ; 0x2012 <textPrint+0x146>
    1f03: 91 12        	sta	($12),y                 ; 0x2012 <textPrint+0x146>
    1f05: 18           	clc
    1f06: 48           	pha
    1f07: a5 10        	lda	$10                     ; 0x2010 <textPrint+0x144>
    1f09: 69 09        	adc	#$9
    1f0b: 85 12        	sta	$12                     ; 0x2012 <textPrint+0x146>
    1f0d: a5 11        	lda	$11                     ; 0x2011 <textPrint+0x145>
    1f0f: 69 00        	adc	#$0
    1f11: 85 13        	sta	$13                     ; 0x2013 <textPrint+0x147>
    1f13: 68           	pla
    1f14: 92 12        	sta	($12)                   ; 0x2012 <textPrint+0x146>
    1f16: 91 12        	sta	($12),y                 ; 0x2012 <textPrint+0x146>
    1f18: 18           	clc
    1f19: 48           	pha
    1f1a: a5 10        	lda	$10                     ; 0x2010 <textPrint+0x144>
    1f1c: 69 07        	adc	#$7
    1f1e: 85 12        	sta	$12                     ; 0x2012 <textPrint+0x146>
    1f20: a5 11        	lda	$11                     ; 0x2011 <textPrint+0x145>
    1f22: 69 00        	adc	#$0
    1f24: 85 13        	sta	$13                     ; 0x2013 <textPrint+0x147>
    1f26: 68           	pla
    1f27: 92 12        	sta	($12)                   ; 0x2012 <textPrint+0x146>
    1f29: 91 12        	sta	($12),y                 ; 0x2012 <textPrint+0x146>
    1f2b: 18           	clc
    1f2c: 48           	pha
    1f2d: a5 10        	lda	$10                     ; 0x2010 <textPrint+0x144>
    1f2f: 69 05        	adc	#$5
    1f31: 85 12        	sta	$12                     ; 0x2012 <textPrint+0x146>
    1f33: a5 11        	lda	$11                     ; 0x2011 <textPrint+0x145>
    1f35: 69 00        	adc	#$0
    1f37: 85 13        	sta	$13                     ; 0x2013 <textPrint+0x147>
    1f39: 68           	pla
    1f3a: 92 12        	sta	($12)                   ; 0x2012 <textPrint+0x146>
    1f3c: 91 12        	sta	($12),y                 ; 0x2012 <textPrint+0x146>
    1f3e: a5 01        	lda	$1                      ; 0x2001 <textPrint+0x135>
    1f40: 18           	clc
    1f41: 48           	pha
    1f42: a5 10        	lda	$10                     ; 0x2010 <textPrint+0x144>
    1f44: 69 04        	adc	#$4
    1f46: 85 12        	sta	$12                     ; 0x2012 <textPrint+0x146>
    1f48: a5 11        	lda	$11                     ; 0x2011 <textPrint+0x145>
    1f4a: 69 00        	adc	#$0
    1f4c: 85 13        	sta	$13                     ; 0x2013 <textPrint+0x147>
    1f4e: 68           	pla
    1f4f: 92 12        	sta	($12)                   ; 0x2012 <textPrint+0x146>
    1f51: a4 30        	ldy	$30                     ; 0x2030 <textPrint+0x164>
    1f53: a6 33        	ldx	$33                     ; 0x2033 <textPrint+0x167>
    1f55: 86 12        	stx	$12                     ; 0x2012 <textPrint+0x146>
    1f57: 64 13        	stz	$13                     ; 0x2013 <textPrint+0x147>
    1f59: a2 00        	ldx	#$0
    1f5b: 98           	tya
    1f5c: 20 ad 0b     	jsr	$bad <mathUnsignedMultiply>
    1f5f: 20 15 1e     	jsr	$1e15 <mathUnsignedAddition>
    1f62: 18           	clc
    1f63: 48           	pha
    1f64: a5 10        	lda	$10                     ; 0x2010 <textPrint+0x144>
    1f66: 69 02        	adc	#$2
    1f68: 85 12        	sta	$12                     ; 0x2012 <textPrint+0x146>
    1f6a: a5 11        	lda	$11                     ; 0x2011 <textPrint+0x145>
    1f6c: 69 00        	adc	#$0
    1f6e: 85 13        	sta	$13                     ; 0x2013 <textPrint+0x147>
    1f70: 68           	pla
    1f71: 92 12        	sta	($12)                   ; 0x2012 <textPrint+0x146>
    1f73: a0 01        	ldy	#$1
    1f75: 8a           	txa
    1f76: 91 12        	sta	($12),y                 ; 0x2012 <textPrint+0x146>
    1f78: a2 00        	ldx	#$0
    1f7a: 86 12        	stx	$12                     ; 0x2012 <textPrint+0x146>
    1f7c: a2 00        	ldx	#$0
    1f7e: 86 13        	stx	$13                     ; 0x2013 <textPrint+0x147>
    1f80: a5 12        	lda	$12                     ; 0x2012 <textPrint+0x146>
    1f82: 18           	clc
    1f83: 5a           	phy
    1f84: a4 10        	ldy	$10                     ; 0x2010 <textPrint+0x144>
    1f86: 84 12        	sty	$12                     ; 0x2012 <textPrint+0x146>
    1f88: a4 11        	ldy	$11                     ; 0x2011 <textPrint+0x145>
    1f8a: 84 13        	sty	$13                     ; 0x2013 <textPrint+0x147>
    1f8c: 7a           	ply
    1f8d: 92 12        	sta	($12)                   ; 0x2012 <textPrint+0x146>
    1f8f: 8a           	txa
    1f90: 91 12        	sta	($12),y                 ; 0x2012 <textPrint+0x146>
    1f92: 18           	clc
    1f93: a5 10        	lda	$10                     ; 0x2010 <textPrint+0x144>
    1f95: 69 0d        	adc	#$d
    1f97: 85 12        	sta	$12                     ; 0x2012 <textPrint+0x146>
    1f99: a5 11        	lda	$11                     ; 0x2011 <textPrint+0x145>
    1f9b: 69 00        	adc	#$0
    1f9d: 85 13        	sta	$13                     ; 0x2013 <textPrint+0x147>
    1f9f: a0 01        	ldy	#$1
    1fa1: 18           	clc
    1fa2: a5 10        	lda	$10                     ; 0x2010 <textPrint+0x144>
    1fa4: 69 0b        	adc	#$b
    1fa6: 85 14        	sta	$14                     ; 0x2014 <textPrint+0x148>
    1fa8: a5 11        	lda	$11                     ; 0x2011 <textPrint+0x145>
    1faa: 69 00        	adc	#$0
    1fac: 85 15        	sta	$15                     ; 0x2015 <textPrint+0x149>
    1fae: b2 14        	lda	($14)                   ; 0x2014 <textPrint+0x148>
    1fb0: 85 16        	sta	$16                     ; 0x2016 <textPrint+0x14a>
    1fb2: b1 14        	lda	($14),y                 ; 0x2014 <textPrint+0x148>
    1fb4: 85 14        	sta	$14                     ; 0x2014 <textPrint+0x148>
    1fb6: 18           	clc
    1fb7: a5 16        	lda	$16                     ; 0x2016 <textPrint+0x14a>
    1fb9: 72 12        	adc	($12)                   ; 0x2012 <textPrint+0x146>
    1fbb: aa           	tax
    1fbc: a5 14        	lda	$14                     ; 0x2014 <textPrint+0x148>
    1fbe: 71 12        	adc	($12),y                 ; 0x2012 <textPrint+0x146>
    1fc0: 86 12        	stx	$12                     ; 0x2012 <textPrint+0x146>
    1fc2: 85 13        	sta	$13                     ; 0x2013 <textPrint+0x147>
    1fc4: b2 12        	lda	($12)                   ; 0x2012 <textPrint+0x146>
    1fc6: d0 03        	bne	$1fcb <textPrint+0xff>
    1fc8: 4c 5f 24     	jmp	$245f <textPrint+0x593>
    1fcb: 18           	clc
    1fcc: a5 10        	lda	$10                     ; 0x2010 <textPrint+0x144>
    1fce: 69 0d        	adc	#$d
    1fd0: 85 12        	sta	$12                     ; 0x2012 <textPrint+0x146>
    1fd2: a5 11        	lda	$11                     ; 0x2011 <textPrint+0x145>
    1fd4: 69 00        	adc	#$0
    1fd6: 85 13        	sta	$13                     ; 0x2013 <textPrint+0x147>
    1fd8: a0 01        	ldy	#$1
    1fda: 18           	clc
    1fdb: a5 10        	lda	$10                     ; 0x2010 <textPrint+0x144>
    1fdd: 69 0b        	adc	#$b
    1fdf: 85 14        	sta	$14                     ; 0x2014 <textPrint+0x148>
    1fe1: a5 11        	lda	$11                     ; 0x2011 <textPrint+0x145>
    1fe3: 69 00        	adc	#$0
    1fe5: 85 15        	sta	$15                     ; 0x2015 <textPrint+0x149>
    1fe7: b2 14        	lda	($14)                   ; 0x2014 <textPrint+0x148>
    1fe9: 85 16        	sta	$16                     ; 0x2016 <textPrint+0x14a>
    1feb: b1 14        	lda	($14),y                 ; 0x2014 <textPrint+0x148>
    1fed: 85 14        	sta	$14                     ; 0x2014 <textPrint+0x148>
    1fef: 18           	clc
    1ff0: a5 16        	lda	$16                     ; 0x2016 <textPrint+0x14a>
    1ff2: 72 12        	adc	($12)                   ; 0x2012 <textPrint+0x146>
    1ff4: aa           	tax
    1ff5: a5 14        	lda	$14                     ; 0x2014 <textPrint+0x148>
    1ff7: 71 12        	adc	($12),y                 ; 0x2012 <textPrint+0x146>
    1ff9: 86 12        	stx	$12                     ; 0x2012 <textPrint+0x146>
    1ffb: 85 13        	sta	$13                     ; 0x2013 <textPrint+0x147>
    1ffd: b2 12        	lda	($12)                   ; 0x2012 <textPrint+0x146>
    1fff: c9 0a        	cmp	#$a
    2001: f0 02        	beq	$2005 <textPrint+0x139>
    2003: 80 03        	bra	$2008 <textPrint+0x13c>
    2005: 4c 97 20     	jmp	$2097 <textPrint+0x1cb>
    2008: 80 00        	bra	$200a <textPrint+0x13e>
    200a: 80 00        	bra	$200c <textPrint+0x140>
    200c: c9 0d        	cmp	#$d
    200e: f0 02        	beq	$2012 <textPrint+0x146>
    2010: 80 03        	bra	$2015 <textPrint+0x149>
    2012: 4c 97 20     	jmp	$2097 <textPrint+0x1cb>
    2015: 80 00        	bra	$2017 <textPrint+0x14b>
    2017: 80 00        	bra	$2019 <textPrint+0x14d>
    2019: a2 03        	ldx	#$3
    201b: 86 01        	stx	$1                      ; 0x2001 <textPrint+0x135>
    201d: 18           	clc
    201e: a5 10        	lda	$10                     ; 0x2010 <textPrint+0x144>
    2020: 69 02        	adc	#$2
    2022: 85 12        	sta	$12                     ; 0x2012 <textPrint+0x146>
    2024: a5 11        	lda	$11                     ; 0x2011 <textPrint+0x145>
    2026: 69 00        	adc	#$0
    2028: 85 13        	sta	$13                     ; 0x2013 <textPrint+0x147>
    202a: b2 12        	lda	($12)                   ; 0x2012 <textPrint+0x146>
    202c: 85 14        	sta	$14                     ; 0x2014 <textPrint+0x148>
    202e: a0 01        	ldy	#$1
    2030: b1 12        	lda	($12),y                 ; 0x2012 <textPrint+0x146>
    2032: 85 15        	sta	$15                     ; 0x2015 <textPrint+0x149>
    2034: a4 32        	ldy	$32                     ; 0x2032 <textPrint+0x166>
    2036: a9 f0        	lda	#$f0
    2038: 91 14        	sta	($14),y                 ; 0x2014 <textPrint+0x148>
    203a: ca           	dex
    203b: 86 01        	stx	$1                      ; 0x2001 <textPrint+0x135>
    203d: 18           	clc
    203e: a5 10        	lda	$10                     ; 0x2010 <textPrint+0x144>
    2040: 69 0d        	adc	#$d
    2042: 85 14        	sta	$14                     ; 0x2014 <textPrint+0x148>
    2044: a5 11        	lda	$11                     ; 0x2011 <textPrint+0x145>
    2046: 69 00        	adc	#$0
    2048: 85 15        	sta	$15                     ; 0x2015 <textPrint+0x149>
    204a: 18           	clc
    204b: a5 10        	lda	$10                     ; 0x2010 <textPrint+0x144>
    204d: 69 0b        	adc	#$b
    204f: 85 16        	sta	$16                     ; 0x2016 <textPrint+0x14a>
    2051: a5 11        	lda	$11                     ; 0x2011 <textPrint+0x145>
    2053: 69 00        	adc	#$0
    2055: 85 17        	sta	$17                     ; 0x2017 <textPrint+0x14b>
    2057: b2 16        	lda	($16)                   ; 0x2016 <textPrint+0x14a>
    2059: 85 18        	sta	$18                     ; 0x2018 <textPrint+0x14c>
    205b: a0 01        	ldy	#$1
    205d: b1 16        	lda	($16),y                 ; 0x2016 <textPrint+0x14a>
    205f: 85 16        	sta	$16                     ; 0x2016 <textPrint+0x14a>
    2061: 18           	clc
    2062: a5 18        	lda	$18                     ; 0x2018 <textPrint+0x14c>
    2064: 72 14        	adc	($14)                   ; 0x2014 <textPrint+0x148>
    2066: aa           	tax
    2067: a5 16        	lda	$16                     ; 0x2016 <textPrint+0x14a>
    2069: 71 14        	adc	($14),y                 ; 0x2014 <textPrint+0x148>
    206b: a0 01        	ldy	#$1
    206d: 86 14        	stx	$14                     ; 0x2014 <textPrint+0x148>
    206f: 85 15        	sta	$15                     ; 0x2015 <textPrint+0x149>
    2071: b2 14        	lda	($14)                   ; 0x2014 <textPrint+0x148>
    2073: 85 14        	sta	$14                     ; 0x2014 <textPrint+0x148>
    2075: b2 12        	lda	($12)                   ; 0x2012 <textPrint+0x146>
    2077: aa           	tax
    2078: b1 12        	lda	($12),y                 ; 0x2012 <textPrint+0x146>
    207a: 86 12        	stx	$12                     ; 0x2012 <textPrint+0x146>
    207c: 85 13        	sta	$13                     ; 0x2013 <textPrint+0x147>
    207e: a4 32        	ldy	$32                     ; 0x2032 <textPrint+0x166>
    2080: a5 14        	lda	$14                     ; 0x2014 <textPrint+0x148>
    2082: 91 12        	sta	($12),y                 ; 0x2012 <textPrint+0x146>
    2084: e6 32        	inc	$32                     ; 0x2032 <textPrint+0x166>
    2086: a6 32        	ldx	$32                     ; 0x2032 <textPrint+0x166>
    2088: e4 30        	cpx	$30                     ; 0x2030 <textPrint+0x164>
    208a: f0 02        	beq	$208e <textPrint+0x1c2>
    208c: 80 02        	bra	$2090 <textPrint+0x1c4>
    208e: 80 07        	bra	$2097 <textPrint+0x1cb>
    2090: 80 00        	bra	$2092 <textPrint+0x1c6>
    2092: 80 00        	bra	$2094 <textPrint+0x1c8>
    2094: 4c 35 24     	jmp	$2435 <textPrint+0x569>
    2097: 64 32        	stz	$32                     ; 0x2032 <textPrint+0x166>
    2099: e6 33        	inc	$33                     ; 0x2033 <textPrint+0x167>
    209b: a6 33        	ldx	$33                     ; 0x2033 <textPrint+0x167>
    209d: e4 31        	cpx	$31                     ; 0x2031 <textPrint+0x165>
    209f: f0 02        	beq	$20a3 <textPrint+0x1d7>
    20a1: 80 02        	bra	$20a5 <textPrint+0x1d9>
    20a3: 80 03        	bra	$20a8 <textPrint+0x1dc>
    20a5: 4c 09 24     	jmp	$2409 <textPrint+0x53d>
    20a8: 80 00        	bra	$20aa <textPrint+0x1de>
    20aa: 18           	clc
    20ab: a5 10        	lda	$10                     ; 0x2010 <textPrint+0x144>
    20ad: 69 02        	adc	#$2
    20af: 85 12        	sta	$12                     ; 0x2012 <textPrint+0x146>
    20b1: a5 11        	lda	$11                     ; 0x2011 <textPrint+0x145>
    20b3: 69 00        	adc	#$0
    20b5: 85 13        	sta	$13                     ; 0x2013 <textPrint+0x147>
    20b7: a9 00        	lda	#$0
    20b9: 92 12        	sta	($12)                   ; 0x2012 <textPrint+0x146>
    20bb: a0 01        	ldy	#$1
    20bd: a9 c0        	lda	#$c0
    20bf: 91 12        	sta	($12),y                 ; 0x2012 <textPrint+0x146>
    20c1: a5 30        	lda	$30                     ; 0x2030 <textPrint+0x164>
    20c3: a6 31        	ldx	$31                     ; 0x2031 <textPrint+0x165>
    20c5: 64 13        	stz	$13                     ; 0x2013 <textPrint+0x147>
    20c7: ca           	dex
    20c8: e0 ff        	cpx	#$ff
    20ca: f0 03        	beq	$20cf <textPrint+0x203>
    20cc: 4c d4 20     	jmp	$20d4 <textPrint+0x208>
    20cf: c6 13        	dec	$13                     ; 0x2013 <textPrint+0x147>
    20d1: 4c d4 20     	jmp	$20d4 <textPrint+0x208>
    20d4: 86 12        	stx	$12                     ; 0x2012 <textPrint+0x146>
    20d6: a2 00        	ldx	#$0
    20d8: 20 ac 69     	jsr	$69ac <__mulhi3>
    20db: 18           	clc
    20dc: 48           	pha
    20dd: a5 10        	lda	$10                     ; 0x2010 <textPrint+0x144>
    20df: 69 05        	adc	#$5
    20e1: 85 12        	sta	$12                     ; 0x2012 <textPrint+0x146>
    20e3: a5 11        	lda	$11                     ; 0x2011 <textPrint+0x145>
    20e5: 69 00        	adc	#$0
    20e7: 85 13        	sta	$13                     ; 0x2013 <textPrint+0x147>
    20e9: 68           	pla
    20ea: 92 12        	sta	($12)                   ; 0x2012 <textPrint+0x146>
    20ec: a0 01        	ldy	#$1
    20ee: 8a           	txa
    20ef: 91 12        	sta	($12),y                 ; 0x2012 <textPrint+0x146>
    20f1: a2 03        	ldx	#$3
    20f3: 86 01        	stx	$1                      ; 0x2001 <textPrint+0x135>
    20f5: 18           	clc
    20f6: a5 10        	lda	$10                     ; 0x2010 <textPrint+0x144>
    20f8: 69 07        	adc	#$7
    20fa: 85 12        	sta	$12                     ; 0x2012 <textPrint+0x146>
    20fc: a5 11        	lda	$11                     ; 0x2011 <textPrint+0x145>
    20fe: 69 00        	adc	#$0
    2100: 85 13        	sta	$13                     ; 0x2013 <textPrint+0x147>
    2102: a9 00        	lda	#$0
    2104: 92 12        	sta	($12)                   ; 0x2012 <textPrint+0x146>
    2106: 91 12        	sta	($12),y                 ; 0x2012 <textPrint+0x146>
    2108: 18           	clc
    2109: a5 10        	lda	$10                     ; 0x2010 <textPrint+0x144>
    210b: 69 07        	adc	#$7
    210d: 85 12        	sta	$12                     ; 0x2012 <textPrint+0x146>
    210f: a5 11        	lda	$11                     ; 0x2011 <textPrint+0x145>
    2111: 69 00        	adc	#$0
    2113: 85 13        	sta	$13                     ; 0x2013 <textPrint+0x147>
    2115: b2 12        	lda	($12)                   ; 0x2012 <textPrint+0x146>
    2117: 85 14        	sta	$14                     ; 0x2014 <textPrint+0x148>
    2119: a0 01        	ldy	#$1
    211b: b1 12        	lda	($12),y                 ; 0x2012 <textPrint+0x146>
    211d: a6 14        	ldx	$14                     ; 0x2014 <textPrint+0x148>
    211f: e0 02        	cpx	#$2
    2121: e9 00        	sbc	#$0
    2123: 70 02        	bvs	$2127 <textPrint+0x25b>
    2125: 80 04        	bra	$212b <textPrint+0x25f>
    2127: 49 80        	eor	#$80
    2129: 80 02        	bra	$212d <textPrint+0x261>
    212b: 80 00        	bra	$212d <textPrint+0x261>
    212d: aa           	tax
    212e: 30 03        	bmi	$2133 <textPrint+0x267>
    2130: 4c 37 22     	jmp	$2237 <textPrint+0x36b>
    2133: 18           	clc
    2134: a5 10        	lda	$10                     ; 0x2010 <textPrint+0x144>
    2136: 69 09        	adc	#$9
    2138: 85 12        	sta	$12                     ; 0x2012 <textPrint+0x146>
    213a: a5 11        	lda	$11                     ; 0x2011 <textPrint+0x145>
    213c: 69 00        	adc	#$0
    213e: 85 13        	sta	$13                     ; 0x2013 <textPrint+0x147>
    2140: a9 00        	lda	#$0
    2142: 92 12        	sta	($12)                   ; 0x2012 <textPrint+0x146>
    2144: a0 01        	ldy	#$1
    2146: 91 12        	sta	($12),y                 ; 0x2012 <textPrint+0x146>
    2148: 18           	clc
    2149: a5 10        	lda	$10                     ; 0x2010 <textPrint+0x144>
    214b: 69 09        	adc	#$9
    214d: 85 12        	sta	$12                     ; 0x2012 <textPrint+0x146>
    214f: a5 11        	lda	$11                     ; 0x2011 <textPrint+0x145>
    2151: 69 00        	adc	#$0
    2153: 85 13        	sta	$13                     ; 0x2013 <textPrint+0x147>
    2155: b2 12        	lda	($12)                   ; 0x2012 <textPrint+0x146>
    2157: 85 14        	sta	$14                     ; 0x2014 <textPrint+0x148>
    2159: a0 01        	ldy	#$1
    215b: b1 12        	lda	($12),y                 ; 0x2012 <textPrint+0x146>
    215d: aa           	tax
    215e: 18           	clc
    215f: a5 10        	lda	$10                     ; 0x2010 <textPrint+0x144>
    2161: 69 05        	adc	#$5
    2163: 85 12        	sta	$12                     ; 0x2012 <textPrint+0x146>
    2165: a5 11        	lda	$11                     ; 0x2011 <textPrint+0x145>
    2167: 69 00        	adc	#$0
    2169: 85 13        	sta	$13                     ; 0x2013 <textPrint+0x147>
    216b: a5 14        	lda	$14                     ; 0x2014 <textPrint+0x148>
    216d: d2 12        	cmp	($12)                   ; 0x2012 <textPrint+0x146>
    216f: 8a           	txa
    2170: f1 12        	sbc	($12),y                 ; 0x2012 <textPrint+0x146>
    2172: 70 02        	bvs	$2176 <textPrint+0x2aa>
    2174: 80 04        	bra	$217a <textPrint+0x2ae>
    2176: 49 80        	eor	#$80
    2178: 80 02        	bra	$217c <textPrint+0x2b0>
    217a: 80 00        	bra	$217c <textPrint+0x2b0>
    217c: aa           	tax
    217d: 30 03        	bmi	$2182 <textPrint+0x2b6>
    217f: 4c 09 22     	jmp	$2209 <textPrint+0x33d>
    2182: 18           	clc
    2183: a5 10        	lda	$10                     ; 0x2010 <textPrint+0x144>
    2185: 69 02        	adc	#$2
    2187: 85 12        	sta	$12                     ; 0x2012 <textPrint+0x146>
    2189: a5 11        	lda	$11                     ; 0x2011 <textPrint+0x145>
    218b: 69 00        	adc	#$0
    218d: 85 13        	sta	$13                     ; 0x2013 <textPrint+0x147>
    218f: a0 01        	ldy	#$1
    2191: 18           	clc
    2192: a5 10        	lda	$10                     ; 0x2010 <textPrint+0x144>
    2194: 69 09        	adc	#$9
    2196: 85 14        	sta	$14                     ; 0x2014 <textPrint+0x148>
    2198: a5 11        	lda	$11                     ; 0x2011 <textPrint+0x145>
    219a: 69 00        	adc	#$0
    219c: 85 15        	sta	$15                     ; 0x2015 <textPrint+0x149>
    219e: b2 14        	lda	($14)                   ; 0x2014 <textPrint+0x148>
    21a0: 85 17        	sta	$17                     ; 0x2017 <textPrint+0x14b>
    21a2: b1 14        	lda	($14),y                 ; 0x2014 <textPrint+0x148>
    21a4: 85 16        	sta	$16                     ; 0x2016 <textPrint+0x14a>
    21a6: 18           	clc
    21a7: a5 17        	lda	$17                     ; 0x2017 <textPrint+0x14b>
    21a9: 65 30        	adc	$30                     ; 0x2030 <textPrint+0x164>
    21ab: 85 17        	sta	$17                     ; 0x2017 <textPrint+0x14b>
    21ad: a5 16        	lda	$16                     ; 0x2016 <textPrint+0x14a>
    21af: 69 00        	adc	#$0
    21b1: 85 16        	sta	$16                     ; 0x2016 <textPrint+0x14a>
    21b3: 18           	clc
    21b4: a5 17        	lda	$17                     ; 0x2017 <textPrint+0x14b>
    21b6: 72 12        	adc	($12)                   ; 0x2012 <textPrint+0x146>
    21b8: aa           	tax
    21b9: a5 16        	lda	$16                     ; 0x2016 <textPrint+0x14a>
    21bb: 71 12        	adc	($12),y                 ; 0x2012 <textPrint+0x146>
    21bd: 85 17        	sta	$17                     ; 0x2017 <textPrint+0x14b>
    21bf: 86 16        	stx	$16                     ; 0x2016 <textPrint+0x14a>
    21c1: b2 16        	lda	($16)                   ; 0x2016 <textPrint+0x14a>
    21c3: 85 16        	sta	$16                     ; 0x2016 <textPrint+0x14a>
    21c5: b2 14        	lda	($14)                   ; 0x2014 <textPrint+0x148>
    21c7: 85 17        	sta	$17                     ; 0x2017 <textPrint+0x14b>
    21c9: b1 14        	lda	($14),y                 ; 0x2014 <textPrint+0x148>
    21cb: 85 14        	sta	$14                     ; 0x2014 <textPrint+0x148>
    21cd: 18           	clc
    21ce: a5 17        	lda	$17                     ; 0x2017 <textPrint+0x14b>
    21d0: 72 12        	adc	($12)                   ; 0x2012 <textPrint+0x146>
    21d2: aa           	tax
    21d3: a5 14        	lda	$14                     ; 0x2014 <textPrint+0x148>
    21d5: 71 12        	adc	($12),y                 ; 0x2012 <textPrint+0x146>
    21d7: 86 12        	stx	$12                     ; 0x2012 <textPrint+0x146>
    21d9: 85 13        	sta	$13                     ; 0x2013 <textPrint+0x147>
    21db: a5 16        	lda	$16                     ; 0x2016 <textPrint+0x14a>
    21dd: 92 12        	sta	($12)                   ; 0x2012 <textPrint+0x146>
    21df: 18           	clc
    21e0: a5 10        	lda	$10                     ; 0x2010 <textPrint+0x144>
    21e2: 69 09        	adc	#$9
    21e4: 85 12        	sta	$12                     ; 0x2012 <textPrint+0x146>
    21e6: a5 11        	lda	$11                     ; 0x2011 <textPrint+0x145>
    21e8: 69 00        	adc	#$0
    21ea: 85 13        	sta	$13                     ; 0x2013 <textPrint+0x147>
    21ec: b2 12        	lda	($12)                   ; 0x2012 <textPrint+0x146>
    21ee: aa           	tax
    21ef: a0 01        	ldy	#$1
    21f1: b1 12        	lda	($12),y                 ; 0x2012 <textPrint+0x146>
    21f3: e8           	inx
    21f4: f0 03        	beq	$21f9 <textPrint+0x32d>
    21f6: 4c fd 21     	jmp	$21fd <textPrint+0x331>
    21f9: 1a           	inc
    21fa: 4c fd 21     	jmp	$21fd <textPrint+0x331>
    21fd: 85 14        	sta	$14                     ; 0x2014 <textPrint+0x148>
    21ff: 8a           	txa
    2200: 92 12        	sta	($12)                   ; 0x2012 <textPrint+0x146>
    2202: a5 14        	lda	$14                     ; 0x2014 <textPrint+0x148>
    2204: 91 12        	sta	($12),y                 ; 0x2012 <textPrint+0x146>
    2206: 4c 48 21     	jmp	$2148 <textPrint+0x27c>
    2209: a2 02        	ldx	#$2
    220b: 86 01        	stx	$1                      ; 0x2001 <textPrint+0x135>
    220d: 18           	clc
    220e: a5 10        	lda	$10                     ; 0x2010 <textPrint+0x144>
    2210: 69 07        	adc	#$7
    2212: 85 12        	sta	$12                     ; 0x2012 <textPrint+0x146>
    2214: a5 11        	lda	$11                     ; 0x2011 <textPrint+0x145>
    2216: 69 00        	adc	#$0
    2218: 85 13        	sta	$13                     ; 0x2013 <textPrint+0x147>
    221a: b2 12        	lda	($12)                   ; 0x2012 <textPrint+0x146>
    221c: aa           	tax
    221d: a0 01        	ldy	#$1
    221f: b1 12        	lda	($12),y                 ; 0x2012 <textPrint+0x146>
    2221: e8           	inx
    2222: f0 03        	beq	$2227 <textPrint+0x35b>
    2224: 4c 2b 22     	jmp	$222b <textPrint+0x35f>
    2227: 1a           	inc
    2228: 4c 2b 22     	jmp	$222b <textPrint+0x35f>
    222b: 85 14        	sta	$14                     ; 0x2014 <textPrint+0x148>
    222d: 8a           	txa
    222e: 92 12        	sta	($12)                   ; 0x2012 <textPrint+0x146>
    2230: a5 14        	lda	$14                     ; 0x2014 <textPrint+0x148>
    2232: 91 12        	sta	($12),y                 ; 0x2012 <textPrint+0x146>
    2234: 4c 08 21     	jmp	$2108 <textPrint+0x23c>
    2237: 18           	clc
    2238: a5 10        	lda	$10                     ; 0x2010 <textPrint+0x144>
    223a: 69 09        	adc	#$9
    223c: 85 12        	sta	$12                     ; 0x2012 <textPrint+0x146>
    223e: a5 11        	lda	$11                     ; 0x2011 <textPrint+0x145>
    2240: 69 00        	adc	#$0
    2242: 85 13        	sta	$13                     ; 0x2013 <textPrint+0x147>
    2244: b2 12        	lda	($12)                   ; 0x2012 <textPrint+0x146>
    2246: 85 16        	sta	$16                     ; 0x2016 <textPrint+0x14a>
    2248: a0 01        	ldy	#$1
    224a: b1 12        	lda	($12),y                 ; 0x2012 <textPrint+0x146>
    224c: 85 17        	sta	$17                     ; 0x2017 <textPrint+0x14b>
    224e: 18           	clc
    224f: a5 10        	lda	$10                     ; 0x2010 <textPrint+0x144>
    2251: 69 02        	adc	#$2
    2253: 85 14        	sta	$14                     ; 0x2014 <textPrint+0x148>
    2255: a5 11        	lda	$11                     ; 0x2011 <textPrint+0x145>
    2257: 69 00        	adc	#$0
    2259: 85 15        	sta	$15                     ; 0x2015 <textPrint+0x149>
    225b: 18           	clc
    225c: a5 16        	lda	$16                     ; 0x2016 <textPrint+0x14a>
    225e: 72 14        	adc	($14)                   ; 0x2014 <textPrint+0x148>
    2260: 85 16        	sta	$16                     ; 0x2016 <textPrint+0x14a>
    2262: a5 17        	lda	$17                     ; 0x2017 <textPrint+0x14b>
    2264: 71 14        	adc	($14),y                 ; 0x2014 <textPrint+0x148>
    2266: 85 17        	sta	$17                     ; 0x2017 <textPrint+0x14b>
    2268: a5 16        	lda	$16                     ; 0x2016 <textPrint+0x14a>
    226a: 92 14        	sta	($14)                   ; 0x2014 <textPrint+0x148>
    226c: a5 17        	lda	$17                     ; 0x2017 <textPrint+0x14b>
    226e: 91 14        	sta	($14),y                 ; 0x2014 <textPrint+0x148>
    2270: b2 14        	lda	($14)                   ; 0x2014 <textPrint+0x148>
    2272: 18           	clc
    2273: a6 10        	ldx	$10                     ; 0x2010 <textPrint+0x144>
    2275: 86 16        	stx	$16                     ; 0x2016 <textPrint+0x14a>
    2277: a6 11        	ldx	$11                     ; 0x2011 <textPrint+0x145>
    2279: 86 17        	stx	$17                     ; 0x2017 <textPrint+0x14b>
    227b: 92 16        	sta	($16)                   ; 0x2016 <textPrint+0x14a>
    227d: b1 14        	lda	($14),y                 ; 0x2014 <textPrint+0x148>
    227f: 91 16        	sta	($16),y                 ; 0x2016 <textPrint+0x14a>
    2281: a2 03        	ldx	#$3
    2283: 86 01        	stx	$1                      ; 0x2001 <textPrint+0x135>
    2285: a9 00        	lda	#$0
    2287: 92 12        	sta	($12)                   ; 0x2012 <textPrint+0x146>
    2289: 91 12        	sta	($12),y                 ; 0x2012 <textPrint+0x146>
    228b: 18           	clc
    228c: a5 10        	lda	$10                     ; 0x2010 <textPrint+0x144>
    228e: 69 09        	adc	#$9
    2290: 85 12        	sta	$12                     ; 0x2012 <textPrint+0x146>
    2292: a5 11        	lda	$11                     ; 0x2011 <textPrint+0x145>
    2294: 69 00        	adc	#$0
    2296: 85 13        	sta	$13                     ; 0x2013 <textPrint+0x147>
    2298: b2 12        	lda	($12)                   ; 0x2012 <textPrint+0x146>
    229a: 85 14        	sta	$14                     ; 0x2014 <textPrint+0x148>
    229c: a0 01        	ldy	#$1
    229e: b1 12        	lda	($12),y                 ; 0x2012 <textPrint+0x146>
    22a0: a6 14        	ldx	$14                     ; 0x2014 <textPrint+0x148>
    22a2: e4 30        	cpx	$30                     ; 0x2030 <textPrint+0x164>
    22a4: e9 00        	sbc	#$0
    22a6: 70 02        	bvs	$22aa <textPrint+0x3de>
    22a8: 80 04        	bra	$22ae <textPrint+0x3e2>
    22aa: 49 80        	eor	#$80
    22ac: 80 02        	bra	$22b0 <textPrint+0x3e4>
    22ae: 80 00        	bra	$22b0 <textPrint+0x3e4>
    22b0: aa           	tax
    22b1: 30 03        	bmi	$22b6 <textPrint+0x3ea>
    22b3: 4c 15 23     	jmp	$2315 <textPrint+0x449>
    22b6: 18           	clc
    22b7: a5 10        	lda	$10                     ; 0x2010 <textPrint+0x144>
    22b9: 69 02        	adc	#$2
    22bb: 85 12        	sta	$12                     ; 0x2012 <textPrint+0x146>
    22bd: a5 11        	lda	$11                     ; 0x2011 <textPrint+0x145>
    22bf: 69 00        	adc	#$0
    22c1: 85 13        	sta	$13                     ; 0x2013 <textPrint+0x147>
    22c3: b2 12        	lda	($12)                   ; 0x2012 <textPrint+0x146>
    22c5: 85 14        	sta	$14                     ; 0x2014 <textPrint+0x148>
    22c7: a0 01        	ldy	#$1
    22c9: b1 12        	lda	($12),y                 ; 0x2012 <textPrint+0x146>
    22cb: 85 15        	sta	$15                     ; 0x2015 <textPrint+0x149>
    22cd: a6 14        	ldx	$14                     ; 0x2014 <textPrint+0x148>
    22cf: 86 16        	stx	$16                     ; 0x2016 <textPrint+0x14a>
    22d1: 85 17        	sta	$17                     ; 0x2017 <textPrint+0x14b>
    22d3: e6 16        	inc	$16                     ; 0x2016 <textPrint+0x14a>
    22d5: f0 03        	beq	$22da <textPrint+0x40e>
    22d7: 4c df 22     	jmp	$22df <textPrint+0x413>
    22da: e6 17        	inc	$17                     ; 0x2017 <textPrint+0x14b>
    22dc: 4c df 22     	jmp	$22df <textPrint+0x413>
    22df: a5 16        	lda	$16                     ; 0x2016 <textPrint+0x14a>
    22e1: 92 12        	sta	($12)                   ; 0x2012 <textPrint+0x146>
    22e3: a5 17        	lda	$17                     ; 0x2017 <textPrint+0x14b>
    22e5: 91 12        	sta	($12),y                 ; 0x2012 <textPrint+0x146>
    22e7: a9 f0        	lda	#$f0
    22e9: 92 14        	sta	($14)                   ; 0x2014 <textPrint+0x148>
    22eb: 18           	clc
    22ec: a5 10        	lda	$10                     ; 0x2010 <textPrint+0x144>
    22ee: 69 09        	adc	#$9
    22f0: 85 12        	sta	$12                     ; 0x2012 <textPrint+0x146>
    22f2: a5 11        	lda	$11                     ; 0x2011 <textPrint+0x145>
    22f4: 69 00        	adc	#$0
    22f6: 85 13        	sta	$13                     ; 0x2013 <textPrint+0x147>
    22f8: b2 12        	lda	($12)                   ; 0x2012 <textPrint+0x146>
    22fa: aa           	tax
    22fb: a0 01        	ldy	#$1
    22fd: b1 12        	lda	($12),y                 ; 0x2012 <textPrint+0x146>
    22ff: e8           	inx
    2300: f0 03        	beq	$2305 <textPrint+0x439>
    2302: 4c 09 23     	jmp	$2309 <textPrint+0x43d>
    2305: 1a           	inc
    2306: 4c 09 23     	jmp	$2309 <textPrint+0x43d>
    2309: 85 14        	sta	$14                     ; 0x2014 <textPrint+0x148>
    230b: 8a           	txa
    230c: 92 12        	sta	($12)                   ; 0x2012 <textPrint+0x146>
    230e: a5 14        	lda	$14                     ; 0x2014 <textPrint+0x148>
    2310: 91 12        	sta	($12),y                 ; 0x2012 <textPrint+0x146>
    2312: 4c 8b 22     	jmp	$228b <textPrint+0x3bf>
    2315: a2 02        	ldx	#$2
    2317: 86 01        	stx	$1                      ; 0x2001 <textPrint+0x135>
    2319: 18           	clc
    231a: a6 10        	ldx	$10                     ; 0x2010 <textPrint+0x144>
    231c: 86 12        	stx	$12                     ; 0x2012 <textPrint+0x146>
    231e: a6 11        	ldx	$11                     ; 0x2011 <textPrint+0x145>
    2320: 86 13        	stx	$13                     ; 0x2013 <textPrint+0x147>
    2322: b2 12        	lda	($12)                   ; 0x2012 <textPrint+0x146>
    2324: 18           	clc
    2325: 48           	pha
    2326: a5 10        	lda	$10                     ; 0x2010 <textPrint+0x144>
    2328: 69 02        	adc	#$2
    232a: 85 14        	sta	$14                     ; 0x2014 <textPrint+0x148>
    232c: a5 11        	lda	$11                     ; 0x2011 <textPrint+0x145>
    232e: 69 00        	adc	#$0
    2330: 85 15        	sta	$15                     ; 0x2015 <textPrint+0x149>
    2332: 68           	pla
    2333: 92 14        	sta	($14)                   ; 0x2014 <textPrint+0x148>
    2335: a0 01        	ldy	#$1
    2337: b1 12        	lda	($12),y                 ; 0x2012 <textPrint+0x146>
    2339: 91 14        	sta	($14),y                 ; 0x2014 <textPrint+0x148>
    233b: 18           	clc
    233c: a5 10        	lda	$10                     ; 0x2010 <textPrint+0x144>
    233e: 69 09        	adc	#$9
    2340: 85 12        	sta	$12                     ; 0x2012 <textPrint+0x146>
    2342: a5 11        	lda	$11                     ; 0x2011 <textPrint+0x145>
    2344: 69 00        	adc	#$0
    2346: 85 13        	sta	$13                     ; 0x2013 <textPrint+0x147>
    2348: a9 00        	lda	#$0
    234a: 92 12        	sta	($12)                   ; 0x2012 <textPrint+0x146>
    234c: 91 12        	sta	($12),y                 ; 0x2012 <textPrint+0x146>
    234e: 18           	clc
    234f: a5 10        	lda	$10                     ; 0x2010 <textPrint+0x144>
    2351: 69 09        	adc	#$9
    2353: 85 12        	sta	$12                     ; 0x2012 <textPrint+0x146>
    2355: a5 11        	lda	$11                     ; 0x2011 <textPrint+0x145>
    2357: 69 00        	adc	#$0
    2359: 85 13        	sta	$13                     ; 0x2013 <textPrint+0x147>
    235b: b2 12        	lda	($12)                   ; 0x2012 <textPrint+0x146>
    235d: 85 14        	sta	$14                     ; 0x2014 <textPrint+0x148>
    235f: a0 01        	ldy	#$1
    2361: b1 12        	lda	($12),y                 ; 0x2012 <textPrint+0x146>
    2363: a6 14        	ldx	$14                     ; 0x2014 <textPrint+0x148>
    2365: e4 30        	cpx	$30                     ; 0x2030 <textPrint+0x164>
    2367: e9 00        	sbc	#$0
    2369: 70 02        	bvs	$236d <textPrint+0x4a1>
    236b: 80 04        	bra	$2371 <textPrint+0x4a5>
    236d: 49 80        	eor	#$80
    236f: 80 02        	bra	$2373 <textPrint+0x4a7>
    2371: 80 00        	bra	$2373 <textPrint+0x4a7>
    2373: aa           	tax
    2374: 30 03        	bmi	$2379 <textPrint+0x4ad>
    2376: 4c d8 23     	jmp	$23d8 <textPrint+0x50c>
    2379: 18           	clc
    237a: a5 10        	lda	$10                     ; 0x2010 <textPrint+0x144>
    237c: 69 02        	adc	#$2
    237e: 85 12        	sta	$12                     ; 0x2012 <textPrint+0x146>
    2380: a5 11        	lda	$11                     ; 0x2011 <textPrint+0x145>
    2382: 69 00        	adc	#$0
    2384: 85 13        	sta	$13                     ; 0x2013 <textPrint+0x147>
    2386: b2 12        	lda	($12)                   ; 0x2012 <textPrint+0x146>
    2388: 85 14        	sta	$14                     ; 0x2014 <textPrint+0x148>
    238a: a0 01        	ldy	#$1
    238c: b1 12        	lda	($12),y                 ; 0x2012 <textPrint+0x146>
    238e: 85 15        	sta	$15                     ; 0x2015 <textPrint+0x149>
    2390: a6 14        	ldx	$14                     ; 0x2014 <textPrint+0x148>
    2392: 86 16        	stx	$16                     ; 0x2016 <textPrint+0x14a>
    2394: 85 17        	sta	$17                     ; 0x2017 <textPrint+0x14b>
    2396: e6 16        	inc	$16                     ; 0x2016 <textPrint+0x14a>
    2398: f0 03        	beq	$239d <textPrint+0x4d1>
    239a: 4c a2 23     	jmp	$23a2 <textPrint+0x4d6>
    239d: e6 17        	inc	$17                     ; 0x2017 <textPrint+0x14b>
    239f: 4c a2 23     	jmp	$23a2 <textPrint+0x4d6>
    23a2: a5 16        	lda	$16                     ; 0x2016 <textPrint+0x14a>
    23a4: 92 12        	sta	($12)                   ; 0x2012 <textPrint+0x146>
    23a6: a5 17        	lda	$17                     ; 0x2017 <textPrint+0x14b>
    23a8: 91 12        	sta	($12),y                 ; 0x2012 <textPrint+0x146>
    23aa: a9 20        	lda	#$20
    23ac: 92 14        	sta	($14)                   ; 0x2014 <textPrint+0x148>
    23ae: 18           	clc
    23af: a5 10        	lda	$10                     ; 0x2010 <textPrint+0x144>
    23b1: 69 09        	adc	#$9
    23b3: 85 12        	sta	$12                     ; 0x2012 <textPrint+0x146>
    23b5: a5 11        	lda	$11                     ; 0x2011 <textPrint+0x145>
    23b7: 69 00        	adc	#$0
    23b9: 85 13        	sta	$13                     ; 0x2013 <textPrint+0x147>
    23bb: b2 12        	lda	($12)                   ; 0x2012 <textPrint+0x146>
    23bd: aa           	tax
    23be: a0 01        	ldy	#$1
    23c0: b1 12        	lda	($12),y                 ; 0x2012 <textPrint+0x146>
    23c2: e8           	inx
    23c3: f0 03        	beq	$23c8 <textPrint+0x4fc>
    23c5: 4c cc 23     	jmp	$23cc <textPrint+0x500>
    23c8: 1a           	inc
    23c9: 4c cc 23     	jmp	$23cc <textPrint+0x500>
    23cc: 85 14        	sta	$14                     ; 0x2014 <textPrint+0x148>
    23ce: 8a           	txa
    23cf: 92 12        	sta	($12)                   ; 0x2012 <textPrint+0x146>
    23d1: a5 14        	lda	$14                     ; 0x2014 <textPrint+0x148>
    23d3: 91 12        	sta	($12),y                 ; 0x2012 <textPrint+0x146>
    23d5: 4c 4e 23     	jmp	$234e <textPrint+0x482>
    23d8: c6 33        	dec	$33                     ; 0x2033 <textPrint+0x167>
    23da: a5 31        	lda	$31                     ; 0x2031 <textPrint+0x165>
    23dc: a2 00        	ldx	#$0
    23de: 3a           	dec
    23df: c9 ff        	cmp	#$ff
    23e1: f0 03        	beq	$23e6 <textPrint+0x51a>
    23e3: 4c ea 23     	jmp	$23ea <textPrint+0x51e>
    23e6: ca           	dex
    23e7: 4c ea 23     	jmp	$23ea <textPrint+0x51e>
    23ea: 64 12        	stz	$12                     ; 0x2012 <textPrint+0x146>
    23ec: 64 13        	stz	$13                     ; 0x2013 <textPrint+0x147>
    23ee: 20 15 1e     	jsr	$1e15 <mathUnsignedAddition>
    23f1: 18           	clc
    23f2: 48           	pha
    23f3: a5 10        	lda	$10                     ; 0x2010 <textPrint+0x144>
    23f5: 69 02        	adc	#$2
    23f7: 85 12        	sta	$12                     ; 0x2012 <textPrint+0x146>
    23f9: a5 11        	lda	$11                     ; 0x2011 <textPrint+0x145>
    23fb: 69 00        	adc	#$0
    23fd: 85 13        	sta	$13                     ; 0x2013 <textPrint+0x147>
    23ff: 68           	pla
    2400: 92 12        	sta	($12)                   ; 0x2012 <textPrint+0x146>
    2402: a0 01        	ldy	#$1
    2404: 8a           	txa
    2405: 91 12        	sta	($12),y                 ; 0x2012 <textPrint+0x146>
    2407: 80 2c        	bra	$2435 <textPrint+0x569>
    2409: 18           	clc
    240a: a5 10        	lda	$10                     ; 0x2010 <textPrint+0x144>
    240c: 69 02        	adc	#$2
    240e: 85 12        	sta	$12                     ; 0x2012 <textPrint+0x146>
    2410: a5 11        	lda	$11                     ; 0x2011 <textPrint+0x145>
    2412: 69 00        	adc	#$0
    2414: 85 13        	sta	$13                     ; 0x2013 <textPrint+0x147>
    2416: b2 12        	lda	($12)                   ; 0x2012 <textPrint+0x146>
    2418: 85 14        	sta	$14                     ; 0x2014 <textPrint+0x148>
    241a: a0 01        	ldy	#$1
    241c: b1 12        	lda	($12),y                 ; 0x2012 <textPrint+0x146>
    241e: 85 15        	sta	$15                     ; 0x2015 <textPrint+0x149>
    2420: 18           	clc
    2421: a5 14        	lda	$14                     ; 0x2014 <textPrint+0x148>
    2423: 65 30        	adc	$30                     ; 0x2030 <textPrint+0x164>
    2425: 85 14        	sta	$14                     ; 0x2014 <textPrint+0x148>
    2427: a5 15        	lda	$15                     ; 0x2015 <textPrint+0x149>
    2429: 69 00        	adc	#$0
    242b: 85 15        	sta	$15                     ; 0x2015 <textPrint+0x149>
    242d: a5 14        	lda	$14                     ; 0x2014 <textPrint+0x148>
    242f: 92 12        	sta	($12)                   ; 0x2012 <textPrint+0x146>
    2431: a5 15        	lda	$15                     ; 0x2015 <textPrint+0x149>
    2433: 91 12        	sta	($12),y                 ; 0x2012 <textPrint+0x146>
    2435: 18           	clc
    2436: a5 10        	lda	$10                     ; 0x2010 <textPrint+0x144>
    2438: 69 0b        	adc	#$b
    243a: 85 12        	sta	$12                     ; 0x2012 <textPrint+0x146>
    243c: a5 11        	lda	$11                     ; 0x2011 <textPrint+0x145>
    243e: 69 00        	adc	#$0
    2440: 85 13        	sta	$13                     ; 0x2013 <textPrint+0x147>
    2442: b2 12        	lda	($12)                   ; 0x2012 <textPrint+0x146>
    2444: aa           	tax
    2445: a0 01        	ldy	#$1
    2447: b1 12        	lda	($12),y                 ; 0x2012 <textPrint+0x146>
    2449: e8           	inx
    244a: f0 03        	beq	$244f <textPrint+0x583>
    244c: 4c 53 24     	jmp	$2453 <textPrint+0x587>
    244f: 1a           	inc
    2450: 4c 53 24     	jmp	$2453 <textPrint+0x587>
    2453: 85 14        	sta	$14                     ; 0x2014 <textPrint+0x148>
    2455: 8a           	txa
    2456: 92 12        	sta	($12)                   ; 0x2012 <textPrint+0x146>
    2458: a5 14        	lda	$14                     ; 0x2014 <textPrint+0x148>
    245a: 91 12        	sta	($12),y                 ; 0x2012 <textPrint+0x146>
    245c: 4c 92 1f     	jmp	$1f92 <textPrint+0xc6>
    245f: 18           	clc
    2460: a5 10        	lda	$10                     ; 0x2010 <textPrint+0x144>
    2462: 69 04        	adc	#$4
    2464: 85 12        	sta	$12                     ; 0x2012 <textPrint+0x146>
    2466: a5 11        	lda	$11                     ; 0x2011 <textPrint+0x145>
    2468: 69 00        	adc	#$0
    246a: 85 13        	sta	$13                     ; 0x2013 <textPrint+0x147>
    246c: b2 12        	lda	($12)                   ; 0x2012 <textPrint+0x146>
    246e: 85 01        	sta	$1                      ; 0x2001 <textPrint+0x135>
    2470: a5 32        	lda	$32                     ; 0x2032 <textPrint+0x166>
    2472: a6 33        	ldx	$33                     ; 0x2033 <textPrint+0x167>
    2474: 20 34 14     	jsr	$1434 <textGotoXY>
    2477: 18           	clc
    2478: a5 10        	lda	$10                     ; 0x2010 <textPrint+0x144>
    247a: 69 0f        	adc	#$f
    247c: 85 10        	sta	$10                     ; 0x2010 <textPrint+0x144>
    247e: a5 11        	lda	$11                     ; 0x2011 <textPrint+0x145>
    2480: 69 00        	adc	#$0
    2482: 85 11        	sta	$11                     ; 0x2011 <textPrint+0x145>
    2484: 60           	rts

00002485 <__putchar>:
    2485: 48           	pha
    2486: 18           	clc
    2487: a5 10        	lda	$10                     ; 0x2010 <textPrint+0x144>
    2489: 69 ff        	adc	#$ff
    248b: 85 10        	sta	$10                     ; 0x2010 <textPrint+0x144>
    248d: a5 11        	lda	$11                     ; 0x2011 <textPrint+0x145>
    248f: 69 ff        	adc	#$ff
    2491: 85 11        	sta	$11                     ; 0x2011 <textPrint+0x145>
    2493: 68           	pla
    2494: 18           	clc
    2495: a6 10        	ldx	$10                     ; 0x2010 <textPrint+0x144>
    2497: 86 12        	stx	$12                     ; 0x2012 <textPrint+0x146>
    2499: a6 11        	ldx	$11                     ; 0x2011 <textPrint+0x145>
    249b: 86 13        	stx	$13                     ; 0x2013 <textPrint+0x147>
    249d: 92 12        	sta	($12)                   ; 0x2012 <textPrint+0x146>
    249f: b2 12        	lda	($12)                   ; 0x2012 <textPrint+0x146>
    24a1: 85 4b        	sta	$4b                     ; 0x204b <textPrint+0x17f>
    24a3: 20 cc 1e     	jsr	$1ecc <textPrint>
    24a6: 18           	clc
    24a7: a5 10        	lda	$10                     ; 0x2010 <textPrint+0x144>
    24a9: 69 01        	adc	#$1
    24ab: 85 10        	sta	$10                     ; 0x2010 <textPrint+0x144>
    24ad: a5 11        	lda	$11                     ; 0x2011 <textPrint+0x145>
    24af: 69 00        	adc	#$0
    24b1: 85 11        	sta	$11                     ; 0x2011 <textPrint+0x145>
    24b3: 60           	rts

000024b4 <bitmapTitleFallRise>:
    24b4: 48           	pha
    24b5: 18           	clc
    24b6: a5 10        	lda	$10                     ; 0x2010 <textPrint+0x144>
    24b8: 69 e8        	adc	#$e8
    24ba: 85 10        	sta	$10                     ; 0x2010 <textPrint+0x144>
    24bc: a5 11        	lda	$11                     ; 0x2011 <textPrint+0x145>
    24be: 69 ff        	adc	#$ff
    24c0: 85 11        	sta	$11                     ; 0x2011 <textPrint+0x145>
    24c2: 68           	pla
    24c3: a6 24        	ldx	$24                     ; 0x2024 <textPrint+0x158>
    24c5: da           	phx
    24c6: a6 25        	ldx	$25                     ; 0x2025 <textPrint+0x159>
    24c8: da           	phx
    24c9: a6 26        	ldx	$26                     ; 0x2026 <textPrint+0x15a>
    24cb: da           	phx
    24cc: a6 27        	ldx	$27                     ; 0x2027 <textPrint+0x15b>
    24ce: da           	phx
    24cf: 48           	pha
    24d0: a5 28        	lda	$28                     ; 0x2028 <textPrint+0x15c>
    24d2: a0 01        	ldy	#$1
    24d4: 91 10        	sta	($10),y                 ; 0x2010 <textPrint+0x144>
    24d6: a5 29        	lda	$29                     ; 0x2029 <textPrint+0x15d>
    24d8: 88           	dey
    24d9: 91 10        	sta	($10),y                 ; 0x2010 <textPrint+0x144>
    24db: a2 52        	ldx	#$52
    24dd: 86 26        	stx	$26                     ; 0x2026 <textPrint+0x15a>
    24df: a2 00        	ldx	#$0
    24e1: 86 27        	stx	$27                     ; 0x2027 <textPrint+0x15b>
    24e3: 18           	clc
    24e4: a5 10        	lda	$10                     ; 0x2010 <textPrint+0x144>
    24e6: 69 17        	adc	#$17
    24e8: 85 28        	sta	$28                     ; 0x2028 <textPrint+0x15c>
    24ea: a5 11        	lda	$11                     ; 0x2011 <textPrint+0x145>
    24ec: 69 00        	adc	#$0
    24ee: 85 29        	sta	$29                     ; 0x2029 <textPrint+0x15d>
    24f0: 68           	pla
    24f1: 92 28        	sta	($28)                   ; 0x2028 <textPrint+0x15c>
    24f3: 18           	clc
    24f4: a5 10        	lda	$10                     ; 0x2010 <textPrint+0x144>
    24f6: 69 13        	adc	#$13
    24f8: 85 12        	sta	$12                     ; 0x2012 <textPrint+0x146>
    24fa: a5 11        	lda	$11                     ; 0x2011 <textPrint+0x145>
    24fc: 69 00        	adc	#$0
    24fe: 85 13        	sta	$13                     ; 0x2013 <textPrint+0x147>
    2500: 98           	tya
    2501: 92 12        	sta	($12)                   ; 0x2012 <textPrint+0x146>
    2503: c8           	iny
    2504: a9 30        	lda	#$30
    2506: 91 12        	sta	($12),y                 ; 0x2012 <textPrint+0x146>
    2508: a9 02        	lda	#$2
    250a: a8           	tay
    250b: 91 12        	sta	($12),y                 ; 0x2012 <textPrint+0x146>
    250d: c8           	iny
    250e: 8a           	txa
    250f: 91 12        	sta	($12),y                 ; 0x2012 <textPrint+0x146>
    2511: 18           	clc
    2512: 48           	pha
    2513: a5 10        	lda	$10                     ; 0x2010 <textPrint+0x144>
    2515: 69 12        	adc	#$12
    2517: 85 12        	sta	$12                     ; 0x2012 <textPrint+0x146>
    2519: a5 11        	lda	$11                     ; 0x2011 <textPrint+0x145>
    251b: 69 00        	adc	#$0
    251d: 85 13        	sta	$13                     ; 0x2013 <textPrint+0x147>
    251f: 68           	pla
    2520: 92 12        	sta	($12)                   ; 0x2012 <textPrint+0x146>
    2522: 18           	clc
    2523: 48           	pha
    2524: a5 10        	lda	$10                     ; 0x2010 <textPrint+0x144>
    2526: 69 11        	adc	#$11
    2528: 85 12        	sta	$12                     ; 0x2012 <textPrint+0x146>
    252a: a5 11        	lda	$11                     ; 0x2011 <textPrint+0x145>
    252c: 69 00        	adc	#$0
    252e: 85 13        	sta	$13                     ; 0x2013 <textPrint+0x147>
    2530: 68           	pla
    2531: 92 12        	sta	($12)                   ; 0x2012 <textPrint+0x146>
    2533: 18           	clc
    2534: 48           	pha
    2535: a5 10        	lda	$10                     ; 0x2010 <textPrint+0x144>
    2537: 69 06        	adc	#$6
    2539: 85 24        	sta	$24                     ; 0x2024 <textPrint+0x158>
    253b: a5 11        	lda	$11                     ; 0x2011 <textPrint+0x145>
    253d: 69 00        	adc	#$0
    253f: 85 25        	sta	$25                     ; 0x2025 <textPrint+0x159>
    2541: 68           	pla
    2542: 92 24        	sta	($24)                   ; 0x2024 <textPrint+0x158>
    2544: 88           	dey
    2545: 98           	tya
    2546: 91 24        	sta	($24),y                 ; 0x2024 <textPrint+0x158>
    2548: 20 57 57     	jsr	$5757 <getTimerAbsolute>
    254b: 18           	clc
    254c: 69 02        	adc	#$2
    254e: a0 01        	ldy	#$1
    2550: 91 24        	sta	($24),y                 ; 0x2024 <textPrint+0x158>
    2552: a6 24        	ldx	$24                     ; 0x2024 <textPrint+0x158>
    2554: 86 12        	stx	$12                     ; 0x2012 <textPrint+0x146>
    2556: a6 25        	ldx	$25                     ; 0x2025 <textPrint+0x159>
    2558: 86 13        	stx	$13                     ; 0x2013 <textPrint+0x147>
    255a: 20 d0 56     	jsr	$56d0 <setTimer>
    255d: a2 01        	ldx	#$1
    255f: a9 00        	lda	#$0
    2561: 20 c7 0d     	jsr	$dc7 <bitmapSetVisible>
    2564: b2 28        	lda	($28)                   ; 0x2028 <textPrint+0x15c>
    2566: d0 03        	bne	$256b <bitmapTitleFallRise+0xb7>
    2568: 4c bb 25     	jmp	$25bb <bitmapTitleFallRise+0x107>
    256b: 18           	clc
    256c: a5 10        	lda	$10                     ; 0x2010 <textPrint+0x144>
    256e: 69 13        	adc	#$13
    2570: 85 12        	sta	$12                     ; 0x2012 <textPrint+0x146>
    2572: a5 11        	lda	$11                     ; 0x2011 <textPrint+0x145>
    2574: 69 00        	adc	#$0
    2576: 85 13        	sta	$13                     ; 0x2013 <textPrint+0x147>
    2578: b2 12        	lda	($12)                   ; 0x2012 <textPrint+0x146>
    257a: 18           	clc
    257b: 48           	pha
    257c: a5 10        	lda	$10                     ; 0x2010 <textPrint+0x144>
    257e: 69 0d        	adc	#$d
    2580: 85 14        	sta	$14                     ; 0x2014 <textPrint+0x148>
    2582: a5 11        	lda	$11                     ; 0x2011 <textPrint+0x145>
    2584: 69 00        	adc	#$0
    2586: 85 15        	sta	$15                     ; 0x2015 <textPrint+0x149>
    2588: 68           	pla
    2589: 92 14        	sta	($14)                   ; 0x2014 <textPrint+0x148>
    258b: a0 01        	ldy	#$1
    258d: b1 12        	lda	($12),y                 ; 0x2012 <textPrint+0x146>
    258f: 91 14        	sta	($14),y                 ; 0x2014 <textPrint+0x148>
    2591: c8           	iny
    2592: b1 12        	lda	($12),y                 ; 0x2012 <textPrint+0x146>
    2594: 91 14        	sta	($14),y                 ; 0x2014 <textPrint+0x148>
    2596: c8           	iny
    2597: b1 12        	lda	($12),y                 ; 0x2012 <textPrint+0x146>
    2599: 91 14        	sta	($14),y                 ; 0x2014 <textPrint+0x148>
    259b: a9 ff        	lda	#$ff
    259d: 18           	clc
    259e: 48           	pha
    259f: a5 10        	lda	$10                     ; 0x2010 <textPrint+0x144>
    25a1: 69 09        	adc	#$9
    25a3: 85 12        	sta	$12                     ; 0x2012 <textPrint+0x146>
    25a5: a5 11        	lda	$11                     ; 0x2011 <textPrint+0x145>
    25a7: 69 00        	adc	#$0
    25a9: 85 13        	sta	$13                     ; 0x2013 <textPrint+0x147>
    25ab: 68           	pla
    25ac: 92 12        	sta	($12)                   ; 0x2012 <textPrint+0x146>
    25ae: a0 01        	ldy	#$1
    25b0: 91 12        	sta	($12),y                 ; 0x2012 <textPrint+0x146>
    25b2: c8           	iny
    25b3: 91 12        	sta	($12),y                 ; 0x2012 <textPrint+0x146>
    25b5: c8           	iny
    25b6: 91 12        	sta	($12),y                 ; 0x2012 <textPrint+0x146>
    25b8: 4c 2d 26     	jmp	$262d <bitmapTitleFallRise+0x179>
    25bb: 18           	clc
    25bc: a5 10        	lda	$10                     ; 0x2010 <textPrint+0x144>
    25be: 69 13        	adc	#$13
    25c0: 85 12        	sta	$12                     ; 0x2012 <textPrint+0x146>
    25c2: a5 11        	lda	$11                     ; 0x2011 <textPrint+0x145>
    25c4: 69 00        	adc	#$0
    25c6: 85 13        	sta	$13                     ; 0x2013 <textPrint+0x147>
    25c8: b2 12        	lda	($12)                   ; 0x2012 <textPrint+0x146>
    25ca: 85 15        	sta	$15                     ; 0x2015 <textPrint+0x149>
    25cc: a0 01        	ldy	#$1
    25ce: b1 12        	lda	($12),y                 ; 0x2012 <textPrint+0x146>
    25d0: 85 14        	sta	$14                     ; 0x2014 <textPrint+0x148>
    25d2: c8           	iny
    25d3: b1 12        	lda	($12),y                 ; 0x2012 <textPrint+0x146>
    25d5: 85 16        	sta	$16                     ; 0x2016 <textPrint+0x14a>
    25d7: 18           	clc
    25d8: a5 15        	lda	$15                     ; 0x2015 <textPrint+0x149>
    25da: 69 00        	adc	#$0
    25dc: aa           	tax
    25dd: a5 14        	lda	$14                     ; 0x2014 <textPrint+0x148>
    25df: 69 d4        	adc	#$d4
    25e1: 85 14        	sta	$14                     ; 0x2014 <textPrint+0x148>
    25e3: a5 16        	lda	$16                     ; 0x2016 <textPrint+0x14a>
    25e5: 69 fe        	adc	#$fe
    25e7: 85 15        	sta	$15                     ; 0x2015 <textPrint+0x149>
    25e9: c8           	iny
    25ea: b1 12        	lda	($12),y                 ; 0x2012 <textPrint+0x146>
    25ec: 69 ff        	adc	#$ff
    25ee: 85 16        	sta	$16                     ; 0x2016 <textPrint+0x14a>
    25f0: 18           	clc
    25f1: a5 10        	lda	$10                     ; 0x2010 <textPrint+0x144>
    25f3: 69 0d        	adc	#$d
    25f5: 85 12        	sta	$12                     ; 0x2012 <textPrint+0x146>
    25f7: a5 11        	lda	$11                     ; 0x2011 <textPrint+0x145>
    25f9: 69 00        	adc	#$0
    25fb: 85 13        	sta	$13                     ; 0x2013 <textPrint+0x147>
    25fd: a0 01        	ldy	#$1
    25ff: a5 14        	lda	$14                     ; 0x2014 <textPrint+0x148>
    2601: 91 12        	sta	($12),y                 ; 0x2012 <textPrint+0x146>
    2603: c8           	iny
    2604: a5 15        	lda	$15                     ; 0x2015 <textPrint+0x149>
    2606: 91 12        	sta	($12),y                 ; 0x2012 <textPrint+0x146>
    2608: c8           	iny
    2609: a5 16        	lda	$16                     ; 0x2016 <textPrint+0x14a>
    260b: 91 12        	sta	($12),y                 ; 0x2012 <textPrint+0x146>
    260d: 18           	clc
    260e: a5 10        	lda	$10                     ; 0x2010 <textPrint+0x144>
    2610: 69 09        	adc	#$9
    2612: 85 14        	sta	$14                     ; 0x2014 <textPrint+0x148>
    2614: a5 11        	lda	$11                     ; 0x2011 <textPrint+0x145>
    2616: 69 00        	adc	#$0
    2618: 85 15        	sta	$15                     ; 0x2015 <textPrint+0x149>
    261a: a9 00        	lda	#$0
    261c: a0 01        	ldy	#$1
    261e: 91 14        	sta	($14),y                 ; 0x2014 <textPrint+0x148>
    2620: c8           	iny
    2621: 91 14        	sta	($14),y                 ; 0x2014 <textPrint+0x148>
    2623: c8           	iny
    2624: 91 14        	sta	($14),y                 ; 0x2014 <textPrint+0x148>
    2626: 8a           	txa
    2627: 92 12        	sta	($12)                   ; 0x2012 <textPrint+0x146>
    2629: a9 01        	lda	#$1
    262b: 92 14        	sta	($14)                   ; 0x2014 <textPrint+0x148>
    262d: 18           	clc
    262e: a5 10        	lda	$10                     ; 0x2010 <textPrint+0x144>
    2630: 69 12        	adc	#$12
    2632: 85 12        	sta	$12                     ; 0x2012 <textPrint+0x146>
    2634: a5 11        	lda	$11                     ; 0x2011 <textPrint+0x145>
    2636: 69 00        	adc	#$0
    2638: 85 13        	sta	$13                     ; 0x2013 <textPrint+0x147>
    263a: b2 12        	lda	($12)                   ; 0x2012 <textPrint+0x146>
    263c: f0 03        	beq	$2641 <bitmapTitleFallRise+0x18d>
    263e: 4c dd 27     	jmp	$27dd <bitmapTitleFallRise+0x329>
    2641: 64 4d        	stz	$4d                     ; 0x204d <textPrint+0x181>
    2643: 18           	clc
    2644: a5 10        	lda	$10                     ; 0x2010 <textPrint+0x144>
    2646: 69 04        	adc	#$4
    2648: 85 12        	sta	$12                     ; 0x2012 <textPrint+0x146>
    264a: a5 11        	lda	$11                     ; 0x2011 <textPrint+0x145>
    264c: 69 00        	adc	#$0
    264e: 85 13        	sta	$13                     ; 0x2013 <textPrint+0x147>
    2650: a2 f3        	ldx	#$f3
    2652: 86 14        	stx	$14                     ; 0x2014 <textPrint+0x148>
    2654: a2 6a        	ldx	#$6a
    2656: 86 15        	stx	$15                     ; 0x2015 <textPrint+0x149>
    2658: 20 00 ff     	jsr	$ff00 <end_block9+0x940c>
    265b: 92 12        	sta	($12)                   ; 0x2012 <textPrint+0x146>
    265d: a9 00        	lda	#$0
    265f: 6a           	ror
    2660: 85 14        	sta	$14                     ; 0x2014 <textPrint+0x148>
    2662: b2 12        	lda	($12)                   ; 0x2012 <textPrint+0x146>
    2664: 18           	clc
    2665: 48           	pha
    2666: a5 10        	lda	$10                     ; 0x2010 <textPrint+0x144>
    2668: 69 03        	adc	#$3
    266a: 85 12        	sta	$12                     ; 0x2012 <textPrint+0x146>
    266c: a5 11        	lda	$11                     ; 0x2011 <textPrint+0x145>
    266e: 69 00        	adc	#$0
    2670: 85 13        	sta	$13                     ; 0x2013 <textPrint+0x147>
    2672: 68           	pla
    2673: 92 12        	sta	($12)                   ; 0x2012 <textPrint+0x146>
    2675: b2 12        	lda	($12)                   ; 0x2012 <textPrint+0x146>
    2677: 18           	clc
    2678: 48           	pha
    2679: a5 10        	lda	$10                     ; 0x2010 <textPrint+0x144>
    267b: 69 05        	adc	#$5
    267d: 85 12        	sta	$12                     ; 0x2012 <textPrint+0x146>
    267f: a5 11        	lda	$11                     ; 0x2011 <textPrint+0x145>
    2681: 69 00        	adc	#$0
    2683: 85 13        	sta	$13                     ; 0x2013 <textPrint+0x147>
    2685: 68           	pla
    2686: 92 12        	sta	($12)                   ; 0x2012 <textPrint+0x146>
    2688: a6 4d        	ldx	$4d                     ; 0x204d <textPrint+0x181>
    268a: a0 00        	ldy	#$0
    268c: c4 27        	cpy	$27                     ; 0x2027 <textPrint+0x15b>
    268e: f0 02        	beq	$2692 <bitmapTitleFallRise+0x1de>
    2690: 80 0d        	bra	$269f <bitmapTitleFallRise+0x1eb>
    2692: e4 26        	cpx	$26                     ; 0x2026 <textPrint+0x15a>
    2694: f0 02        	beq	$2698 <bitmapTitleFallRise+0x1e4>
    2696: 80 02        	bra	$269a <bitmapTitleFallRise+0x1e6>
    2698: 80 03        	bra	$269d <bitmapTitleFallRise+0x1e9>
    269a: 4c da 27     	jmp	$27da <bitmapTitleFallRise+0x326>
    269d: 80 03        	bra	$26a2 <bitmapTitleFallRise+0x1ee>
    269f: 4c da 27     	jmp	$27da <bitmapTitleFallRise+0x326>
    26a2: 80 00        	bra	$26a4 <bitmapTitleFallRise+0x1f0>
    26a4: a6 51        	ldx	$51                     ; 0x2051 <textPrint+0x185>
    26a6: e0 02        	cpx	#$2
    26a8: f0 02        	beq	$26ac <bitmapTitleFallRise+0x1f8>
    26aa: 80 02        	bra	$26ae <bitmapTitleFallRise+0x1fa>
    26ac: 80 03        	bra	$26b1 <bitmapTitleFallRise+0x1fd>
    26ae: 4c da 27     	jmp	$27da <bitmapTitleFallRise+0x326>
    26b1: 80 00        	bra	$26b3 <bitmapTitleFallRise+0x1ff>
    26b3: 18           	clc
    26b4: a5 10        	lda	$10                     ; 0x2010 <textPrint+0x144>
    26b6: 69 11        	adc	#$11
    26b8: 85 12        	sta	$12                     ; 0x2012 <textPrint+0x146>
    26ba: a5 11        	lda	$11                     ; 0x2011 <textPrint+0x145>
    26bc: 69 00        	adc	#$0
    26be: 85 13        	sta	$13                     ; 0x2013 <textPrint+0x147>
    26c0: a9 0a        	lda	#$a
    26c2: 18           	clc
    26c3: 72 12        	adc	($12)                   ; 0x2012 <textPrint+0x146>
    26c5: 92 12        	sta	($12)                   ; 0x2012 <textPrint+0x146>
    26c7: b2 12        	lda	($12)                   ; 0x2012 <textPrint+0x146>
    26c9: c9 f0        	cmp	#$f0
    26cb: f0 02        	beq	$26cf <bitmapTitleFallRise+0x21b>
    26cd: 80 02        	bra	$26d1 <bitmapTitleFallRise+0x21d>
    26cf: 80 02        	bra	$26d3 <bitmapTitleFallRise+0x21f>
    26d1: 80 13        	bra	$26e6 <bitmapTitleFallRise+0x232>
    26d3: 80 00        	bra	$26d5 <bitmapTitleFallRise+0x221>
    26d5: 18           	clc
    26d6: a5 10        	lda	$10                     ; 0x2010 <textPrint+0x144>
    26d8: 69 12        	adc	#$12
    26da: 85 12        	sta	$12                     ; 0x2012 <textPrint+0x146>
    26dc: a5 11        	lda	$11                     ; 0x2011 <textPrint+0x145>
    26de: 69 00        	adc	#$0
    26e0: 85 13        	sta	$13                     ; 0x2013 <textPrint+0x147>
    26e2: a9 01        	lda	#$1
    26e4: 92 12        	sta	($12)                   ; 0x2012 <textPrint+0x146>
    26e6: 18           	clc
    26e7: a5 10        	lda	$10                     ; 0x2010 <textPrint+0x144>
    26e9: 69 0d        	adc	#$d
    26eb: 85 18        	sta	$18                     ; 0x2018 <textPrint+0x14c>
    26ed: a5 11        	lda	$11                     ; 0x2011 <textPrint+0x145>
    26ef: 69 00        	adc	#$0
    26f1: 85 19        	sta	$19                     ; 0x2019 <textPrint+0x14d>
    26f3: b2 18        	lda	($18)                   ; 0x2018 <textPrint+0x14c>
    26f5: 85 28        	sta	$28                     ; 0x2028 <textPrint+0x15c>
    26f7: a0 02        	ldy	#$2
    26f9: b1 18        	lda	($18),y                 ; 0x2018 <textPrint+0x14c>
    26fb: a0 02        	ldy	#$2
    26fd: 91 10        	sta	($10),y                 ; 0x2010 <textPrint+0x144>
    26ff: c8           	iny
    2700: 18           	clc
    2701: a5 10        	lda	$10                     ; 0x2010 <textPrint+0x144>
    2703: 69 09        	adc	#$9
    2705: 85 14        	sta	$14                     ; 0x2014 <textPrint+0x148>
    2707: a5 11        	lda	$11                     ; 0x2011 <textPrint+0x145>
    2709: 69 00        	adc	#$0
    270b: 85 15        	sta	$15                     ; 0x2015 <textPrint+0x149>
    270d: 18           	clc
    270e: a5 10        	lda	$10                     ; 0x2010 <textPrint+0x144>
    2710: 69 11        	adc	#$11
    2712: 85 16        	sta	$16                     ; 0x2016 <textPrint+0x14a>
    2714: a5 11        	lda	$11                     ; 0x2011 <textPrint+0x145>
    2716: 69 00        	adc	#$0
    2718: 85 17        	sta	$17                     ; 0x2017 <textPrint+0x14b>
    271a: b1 18        	lda	($18),y                 ; 0x2018 <textPrint+0x14c>
    271c: 85 29        	sta	$29                     ; 0x2029 <textPrint+0x15d>
    271e: 88           	dey
    271f: b1 14        	lda	($14),y                 ; 0x2014 <textPrint+0x148>
    2721: aa           	tax
    2722: c8           	iny
    2723: b1 14        	lda	($14),y                 ; 0x2014 <textPrint+0x148>
    2725: 85 13        	sta	$13                     ; 0x2013 <textPrint+0x147>
    2727: 64 24        	stz	$24                     ; 0x2024 <textPrint+0x158>
    2729: a0 01        	ldy	#$1
    272b: b1 18        	lda	($18),y                 ; 0x2018 <textPrint+0x14c>
    272d: 85 25        	sta	$25                     ; 0x2025 <textPrint+0x159>
    272f: b2 14        	lda	($14)                   ; 0x2014 <textPrint+0x148>
    2731: 85 18        	sta	$18                     ; 0x2018 <textPrint+0x14c>
    2733: a0 01        	ldy	#$1
    2735: b1 14        	lda	($14),y                 ; 0x2014 <textPrint+0x148>
    2737: 85 19        	sta	$19                     ; 0x2019 <textPrint+0x14d>
    2739: b2 16        	lda	($16)                   ; 0x2016 <textPrint+0x14a>
    273b: 86 12        	stx	$12                     ; 0x2012 <textPrint+0x146>
    273d: 85 14        	sta	$14                     ; 0x2014 <textPrint+0x148>
    273f: 64 15        	stz	$15                     ; 0x2015 <textPrint+0x149>
    2741: 64 16        	stz	$16                     ; 0x2016 <textPrint+0x14a>
    2743: 64 17        	stz	$17                     ; 0x2017 <textPrint+0x14b>
    2745: a6 19        	ldx	$19                     ; 0x2019 <textPrint+0x14d>
    2747: a5 18        	lda	$18                     ; 0x2018 <textPrint+0x14c>
    2749: 20 de 69     	jsr	$69de <__mulsi3>
    274c: 86 14        	stx	$14                     ; 0x2014 <textPrint+0x148>
    274e: 46 13        	lsr	$13                     ; 0x2013 <textPrint+0x147>
    2750: 66 12        	ror	$12                     ; 0x2012 <textPrint+0x146>
    2752: 66 14        	ror	$14                     ; 0x2014 <textPrint+0x148>
    2754: 6a           	ror
    2755: 66 24        	ror	$24                     ; 0x2024 <textPrint+0x158>
    2757: 46 13        	lsr	$13                     ; 0x2013 <textPrint+0x147>
    2759: 66 12        	ror	$12                     ; 0x2012 <textPrint+0x146>
    275b: 66 14        	ror	$14                     ; 0x2014 <textPrint+0x148>
    275d: 85 13        	sta	$13                     ; 0x2013 <textPrint+0x147>
    275f: 66 13        	ror	$13                     ; 0x2013 <textPrint+0x147>
    2761: 66 24        	ror	$24                     ; 0x2024 <textPrint+0x158>
    2763: a6 24        	ldx	$24                     ; 0x2024 <textPrint+0x158>
    2765: 86 15        	stx	$15                     ; 0x2015 <textPrint+0x149>
    2767: 06 15        	asl	$15                     ; 0x2015 <textPrint+0x149>
    2769: a6 13        	ldx	$13                     ; 0x2013 <textPrint+0x147>
    276b: 86 16        	stx	$16                     ; 0x2016 <textPrint+0x14a>
    276d: 26 16        	rol	$16                     ; 0x2016 <textPrint+0x14a>
    276f: a6 14        	ldx	$14                     ; 0x2014 <textPrint+0x148>
    2771: 86 17        	stx	$17                     ; 0x2017 <textPrint+0x14b>
    2773: 26 17        	rol	$17                     ; 0x2017 <textPrint+0x14b>
    2775: a6 12        	ldx	$12                     ; 0x2012 <textPrint+0x146>
    2777: 86 18        	stx	$18                     ; 0x2018 <textPrint+0x14c>
    2779: 26 18        	rol	$18                     ; 0x2018 <textPrint+0x14c>
    277b: a5 15        	lda	$15                     ; 0x2015 <textPrint+0x149>
    277d: 0a           	asl
    277e: 26 16        	rol	$16                     ; 0x2016 <textPrint+0x14a>
    2780: 26 17        	rol	$17                     ; 0x2017 <textPrint+0x14b>
    2782: 26 18        	rol	$18                     ; 0x2018 <textPrint+0x14c>
    2784: 18           	clc
    2785: 65 24        	adc	$24                     ; 0x2024 <textPrint+0x158>
    2787: 85 15        	sta	$15                     ; 0x2015 <textPrint+0x149>
    2789: a5 16        	lda	$16                     ; 0x2016 <textPrint+0x14a>
    278b: 65 13        	adc	$13                     ; 0x2013 <textPrint+0x147>
    278d: 85 13        	sta	$13                     ; 0x2013 <textPrint+0x147>
    278f: a5 17        	lda	$17                     ; 0x2017 <textPrint+0x14b>
    2791: 65 14        	adc	$14                     ; 0x2014 <textPrint+0x148>
    2793: 85 14        	sta	$14                     ; 0x2014 <textPrint+0x148>
    2795: a5 18        	lda	$18                     ; 0x2018 <textPrint+0x14c>
    2797: 65 12        	adc	$12                     ; 0x2012 <textPrint+0x146>
    2799: 85 12        	sta	$12                     ; 0x2012 <textPrint+0x146>
    279b: a5 28        	lda	$28                     ; 0x2028 <textPrint+0x15c>
    279d: 18           	clc
    279e: 65 15        	adc	$15                     ; 0x2015 <textPrint+0x149>
    27a0: a8           	tay
    27a1: a5 25        	lda	$25                     ; 0x2025 <textPrint+0x159>
    27a3: 65 13        	adc	$13                     ; 0x2013 <textPrint+0x147>
    27a5: 85 15        	sta	$15                     ; 0x2015 <textPrint+0x149>
    27a7: 5a           	phy
    27a8: a0 02        	ldy	#$2
    27aa: b1 10        	lda	($10),y                 ; 0x2010 <textPrint+0x144>
    27ac: 7a           	ply
    27ad: 65 14        	adc	$14                     ; 0x2014 <textPrint+0x148>
    27af: aa           	tax
    27b0: a5 29        	lda	$29                     ; 0x2029 <textPrint+0x15d>
    27b2: 65 12        	adc	$12                     ; 0x2012 <textPrint+0x146>
    27b4: 86 12        	stx	$12                     ; 0x2012 <textPrint+0x146>
    27b6: 85 13        	sta	$13                     ; 0x2013 <textPrint+0x147>
    27b8: a6 15        	ldx	$15                     ; 0x2015 <textPrint+0x149>
    27ba: 98           	tya
    27bb: 20 a4 1c     	jsr	$1ca4 <bitmapSetAddress>
    27be: 20 57 57     	jsr	$5757 <getTimerAbsolute>
    27c1: 18           	clc
    27c2: 69 02        	adc	#$2
    27c4: 18           	clc
    27c5: 48           	pha
    27c6: a5 10        	lda	$10                     ; 0x2010 <textPrint+0x144>
    27c8: 69 06        	adc	#$6
    27ca: 85 12        	sta	$12                     ; 0x2012 <textPrint+0x146>
    27cc: a5 11        	lda	$11                     ; 0x2011 <textPrint+0x145>
    27ce: 69 00        	adc	#$0
    27d0: 85 13        	sta	$13                     ; 0x2013 <textPrint+0x147>
    27d2: 68           	pla
    27d3: a0 01        	ldy	#$1
    27d5: 91 12        	sta	($12),y                 ; 0x2012 <textPrint+0x146>
    27d7: 20 d0 56     	jsr	$56d0 <setTimer>
    27da: 4c 2d 26     	jmp	$262d <bitmapTitleFallRise+0x179>
    27dd: a0 00        	ldy	#$0
    27df: b1 10        	lda	($10),y                 ; 0x2010 <textPrint+0x144>
    27e1: 85 29        	sta	$29                     ; 0x2029 <textPrint+0x15d>
    27e3: c8           	iny
    27e4: b1 10        	lda	($10),y                 ; 0x2010 <textPrint+0x144>
    27e6: 85 28        	sta	$28                     ; 0x2028 <textPrint+0x15c>
    27e8: fa           	plx
    27e9: 86 27        	stx	$27                     ; 0x2027 <textPrint+0x15b>
    27eb: fa           	plx
    27ec: 86 26        	stx	$26                     ; 0x2026 <textPrint+0x15a>
    27ee: fa           	plx
    27ef: 86 25        	stx	$25                     ; 0x2025 <textPrint+0x159>
    27f1: fa           	plx
    27f2: 86 24        	stx	$24                     ; 0x2024 <textPrint+0x158>
    27f4: 18           	clc
    27f5: a5 10        	lda	$10                     ; 0x2010 <textPrint+0x144>
    27f7: 69 18        	adc	#$18
    27f9: 85 10        	sta	$10                     ; 0x2010 <textPrint+0x144>
    27fb: a5 11        	lda	$11                     ; 0x2011 <textPrint+0x145>
    27fd: 69 00        	adc	#$0
    27ff: 85 11        	sta	$11                     ; 0x2011 <textPrint+0x145>
    2801: 60           	rts

00002802 <midiShutAllChannels>:
    2802: 18           	clc
    2803: a5 10        	lda	$10                     ; 0x2010 <textPrint+0x144>
    2805: 69 fe        	adc	#$fe
    2807: 85 10        	sta	$10                     ; 0x2010 <textPrint+0x144>
    2809: a5 11        	lda	$11                     ; 0x2011 <textPrint+0x145>
    280b: 69 ff        	adc	#$ff
    280d: 85 11        	sta	$11                     ; 0x2011 <textPrint+0x145>
    280f: 18           	clc
    2810: a5 10        	lda	$10                     ; 0x2010 <textPrint+0x144>
    2812: 69 01        	adc	#$1
    2814: 85 12        	sta	$12                     ; 0x2012 <textPrint+0x146>
    2816: a5 11        	lda	$11                     ; 0x2011 <textPrint+0x145>
    2818: 69 00        	adc	#$0
    281a: 85 13        	sta	$13                     ; 0x2013 <textPrint+0x147>
    281c: a9 00        	lda	#$0
    281e: 92 12        	sta	($12)                   ; 0x2012 <textPrint+0x146>
    2820: 18           	clc
    2821: a6 10        	ldx	$10                     ; 0x2010 <textPrint+0x144>
    2823: 86 12        	stx	$12                     ; 0x2012 <textPrint+0x146>
    2825: a6 11        	ldx	$11                     ; 0x2011 <textPrint+0x145>
    2827: 86 13        	stx	$13                     ; 0x2013 <textPrint+0x147>
    2829: 92 12        	sta	($12)                   ; 0x2012 <textPrint+0x146>
    282b: 92 12        	sta	($12)                   ; 0x2012 <textPrint+0x146>
    282d: 18           	clc
    282e: a6 10        	ldx	$10                     ; 0x2010 <textPrint+0x144>
    2830: 86 12        	stx	$12                     ; 0x2012 <textPrint+0x146>
    2832: a6 11        	ldx	$11                     ; 0x2011 <textPrint+0x145>
    2834: 86 13        	stx	$13                     ; 0x2013 <textPrint+0x147>
    2836: b2 12        	lda	($12)                   ; 0x2012 <textPrint+0x146>
    2838: 85 12        	sta	$12                     ; 0x2012 <textPrint+0x146>
    283a: a9 00        	lda	#$0
    283c: a6 12        	ldx	$12                     ; 0x2012 <textPrint+0x146>
    283e: e0 10        	cpx	#$10
    2840: e9 00        	sbc	#$0
    2842: 70 02        	bvs	$2846 <midiShutAllChannels+0x44>
    2844: 80 04        	bra	$284a <midiShutAllChannels+0x48>
    2846: 49 80        	eor	#$80
    2848: 80 02        	bra	$284c <midiShutAllChannels+0x4a>
    284a: 80 00        	bra	$284c <midiShutAllChannels+0x4a>
    284c: aa           	tax
    284d: 30 03        	bmi	$2852 <midiShutAllChannels+0x50>
    284f: 4c 0b 29     	jmp	$290b <midiShutAllChannels+0x109>
    2852: 18           	clc
    2853: a6 10        	ldx	$10                     ; 0x2010 <textPrint+0x144>
    2855: 86 12        	stx	$12                     ; 0x2012 <textPrint+0x146>
    2857: a6 11        	ldx	$11                     ; 0x2011 <textPrint+0x145>
    2859: 86 13        	stx	$13                     ; 0x2013 <textPrint+0x147>
    285b: a9 b0        	lda	#$b0
    285d: 12 12        	ora	($12)                   ; 0x2012 <textPrint+0x146>
    285f: 85 14        	sta	$14                     ; 0x2014 <textPrint+0x148>
    2861: 18           	clc
    2862: a5 10        	lda	$10                     ; 0x2010 <textPrint+0x144>
    2864: 69 01        	adc	#$1
    2866: 85 12        	sta	$12                     ; 0x2012 <textPrint+0x146>
    2868: a5 11        	lda	$11                     ; 0x2011 <textPrint+0x145>
    286a: 69 00        	adc	#$0
    286c: 85 13        	sta	$13                     ; 0x2013 <textPrint+0x147>
    286e: b2 12        	lda	($12)                   ; 0x2012 <textPrint+0x146>
    2870: f0 02        	beq	$2874 <midiShutAllChannels+0x72>
    2872: 80 02        	bra	$2876 <midiShutAllChannels+0x74>
    2874: 80 04        	bra	$287a <midiShutAllChannels+0x78>
    2876: 80 00        	bra	$2878 <midiShutAllChannels+0x76>
    2878: 80 02        	bra	$287c <midiShutAllChannels+0x7a>
    287a: 80 02        	bra	$287e <midiShutAllChannels+0x7c>
    287c: 80 02        	bra	$2880 <midiShutAllChannels+0x7e>
    287e: 80 06        	bra	$2886 <midiShutAllChannels+0x84>
    2880: a2 b1        	ldx	#$b1
    2882: 86 12        	stx	$12                     ; 0x2012 <textPrint+0x146>
    2884: 80 06        	bra	$288c <midiShutAllChannels+0x8a>
    2886: a2 a1        	ldx	#$a1
    2888: 86 12        	stx	$12                     ; 0x2012 <textPrint+0x146>
    288a: 80 00        	bra	$288c <midiShutAllChannels+0x8a>
    288c: a2 dd        	ldx	#$dd
    288e: 86 13        	stx	$13                     ; 0x2013 <textPrint+0x147>
    2890: a5 14        	lda	$14                     ; 0x2014 <textPrint+0x148>
    2892: 92 12        	sta	($12)                   ; 0x2012 <textPrint+0x146>
    2894: 18           	clc
    2895: a5 10        	lda	$10                     ; 0x2010 <textPrint+0x144>
    2897: 69 01        	adc	#$1
    2899: 85 12        	sta	$12                     ; 0x2012 <textPrint+0x146>
    289b: a5 11        	lda	$11                     ; 0x2011 <textPrint+0x145>
    289d: 69 00        	adc	#$0
    289f: 85 13        	sta	$13                     ; 0x2013 <textPrint+0x147>
    28a1: b2 12        	lda	($12)                   ; 0x2012 <textPrint+0x146>
    28a3: f0 02        	beq	$28a7 <midiShutAllChannels+0xa5>
    28a5: 80 02        	bra	$28a9 <midiShutAllChannels+0xa7>
    28a7: 80 04        	bra	$28ad <midiShutAllChannels+0xab>
    28a9: 80 00        	bra	$28ab <midiShutAllChannels+0xa9>
    28ab: 80 02        	bra	$28af <midiShutAllChannels+0xad>
    28ad: 80 02        	bra	$28b1 <midiShutAllChannels+0xaf>
    28af: 80 02        	bra	$28b3 <midiShutAllChannels+0xb1>
    28b1: 80 06        	bra	$28b9 <midiShutAllChannels+0xb7>
    28b3: a2 b1        	ldx	#$b1
    28b5: 86 12        	stx	$12                     ; 0x2012 <textPrint+0x146>
    28b7: 80 06        	bra	$28bf <midiShutAllChannels+0xbd>
    28b9: a2 a1        	ldx	#$a1
    28bb: 86 12        	stx	$12                     ; 0x2012 <textPrint+0x146>
    28bd: 80 00        	bra	$28bf <midiShutAllChannels+0xbd>
    28bf: a2 dd        	ldx	#$dd
    28c1: 86 13        	stx	$13                     ; 0x2013 <textPrint+0x147>
    28c3: a9 7b        	lda	#$7b
    28c5: 92 12        	sta	($12)                   ; 0x2012 <textPrint+0x146>
    28c7: 18           	clc
    28c8: a5 10        	lda	$10                     ; 0x2010 <textPrint+0x144>
    28ca: 69 01        	adc	#$1
    28cc: 85 12        	sta	$12                     ; 0x2012 <textPrint+0x146>
    28ce: a5 11        	lda	$11                     ; 0x2011 <textPrint+0x145>
    28d0: 69 00        	adc	#$0
    28d2: 85 13        	sta	$13                     ; 0x2013 <textPrint+0x147>
    28d4: b2 12        	lda	($12)                   ; 0x2012 <textPrint+0x146>
    28d6: f0 02        	beq	$28da <midiShutAllChannels+0xd8>
    28d8: 80 02        	bra	$28dc <midiShutAllChannels+0xda>
    28da: 80 04        	bra	$28e0 <midiShutAllChannels+0xde>
    28dc: 80 00        	bra	$28de <midiShutAllChannels+0xdc>
    28de: 80 02        	bra	$28e2 <midiShutAllChannels+0xe0>
    28e0: 80 02        	bra	$28e4 <midiShutAllChannels+0xe2>
    28e2: 80 02        	bra	$28e6 <midiShutAllChannels+0xe4>
    28e4: 80 06        	bra	$28ec <midiShutAllChannels+0xea>
    28e6: a2 b1        	ldx	#$b1
    28e8: 86 12        	stx	$12                     ; 0x2012 <textPrint+0x146>
    28ea: 80 06        	bra	$28f2 <midiShutAllChannels+0xf0>
    28ec: a2 a1        	ldx	#$a1
    28ee: 86 12        	stx	$12                     ; 0x2012 <textPrint+0x146>
    28f0: 80 00        	bra	$28f2 <midiShutAllChannels+0xf0>
    28f2: a2 dd        	ldx	#$dd
    28f4: 86 13        	stx	$13                     ; 0x2013 <textPrint+0x147>
    28f6: a9 00        	lda	#$0
    28f8: 92 12        	sta	($12)                   ; 0x2012 <textPrint+0x146>
    28fa: 18           	clc
    28fb: a6 10        	ldx	$10                     ; 0x2010 <textPrint+0x144>
    28fd: 86 12        	stx	$12                     ; 0x2012 <textPrint+0x146>
    28ff: a6 11        	ldx	$11                     ; 0x2011 <textPrint+0x145>
    2901: 86 13        	stx	$13                     ; 0x2013 <textPrint+0x147>
    2903: b2 12        	lda	($12)                   ; 0x2012 <textPrint+0x146>
    2905: 1a           	inc
    2906: 92 12        	sta	($12)                   ; 0x2012 <textPrint+0x146>
    2908: 4c 2d 28     	jmp	$282d <midiShutAllChannels+0x2b>
    290b: 18           	clc
    290c: a5 10        	lda	$10                     ; 0x2010 <textPrint+0x144>
    290e: 69 02        	adc	#$2
    2910: 85 10        	sta	$10                     ; 0x2010 <textPrint+0x144>
    2912: a5 11        	lda	$11                     ; 0x2011 <textPrint+0x145>
    2914: 69 00        	adc	#$0
    2916: 85 11        	sta	$11                     ; 0x2011 <textPrint+0x145>
    2918: 60           	rts

00002919 <midiShutUp>:
    2919: 48           	pha
    291a: 18           	clc
    291b: a5 10        	lda	$10                     ; 0x2010 <textPrint+0x144>
    291d: 69 ff        	adc	#$ff
    291f: 85 10        	sta	$10                     ; 0x2010 <textPrint+0x144>
    2921: a5 11        	lda	$11                     ; 0x2011 <textPrint+0x145>
    2923: 69 ff        	adc	#$ff
    2925: 85 11        	sta	$11                     ; 0x2011 <textPrint+0x145>
    2927: 68           	pla
    2928: 18           	clc
    2929: a6 10        	ldx	$10                     ; 0x2010 <textPrint+0x144>
    292b: 86 12        	stx	$12                     ; 0x2012 <textPrint+0x146>
    292d: a6 11        	ldx	$11                     ; 0x2011 <textPrint+0x145>
    292f: 86 13        	stx	$13                     ; 0x2013 <textPrint+0x147>
    2931: 92 12        	sta	($12)                   ; 0x2012 <textPrint+0x146>
    2933: b2 12        	lda	($12)                   ; 0x2012 <textPrint+0x146>
    2935: f0 02        	beq	$2939 <midiShutUp+0x20>
    2937: 80 02        	bra	$293b <midiShutUp+0x22>
    2939: 80 04        	bra	$293f <midiShutUp+0x26>
    293b: 80 00        	bra	$293d <midiShutUp+0x24>
    293d: 80 02        	bra	$2941 <midiShutUp+0x28>
    293f: 80 02        	bra	$2943 <midiShutUp+0x2a>
    2941: 80 02        	bra	$2945 <midiShutUp+0x2c>
    2943: 80 04        	bra	$2949 <midiShutUp+0x30>
    2945: a2 b1        	ldx	#$b1
    2947: 80 04        	bra	$294d <midiShutUp+0x34>
    2949: a2 a1        	ldx	#$a1
    294b: 80 00        	bra	$294d <midiShutUp+0x34>
    294d: a0 dd        	ldy	#$dd
    294f: 86 12        	stx	$12                     ; 0x2012 <textPrint+0x146>
    2951: 84 13        	sty	$13                     ; 0x2013 <textPrint+0x147>
    2953: a9 ff        	lda	#$ff
    2955: 92 12        	sta	($12)                   ; 0x2012 <textPrint+0x146>
    2957: 18           	clc
    2958: a5 10        	lda	$10                     ; 0x2010 <textPrint+0x144>
    295a: 69 01        	adc	#$1
    295c: 85 10        	sta	$10                     ; 0x2010 <textPrint+0x144>
    295e: a5 11        	lda	$11                     ; 0x2011 <textPrint+0x145>
    2960: 69 00        	adc	#$0
    2962: 85 11        	sta	$11                     ; 0x2011 <textPrint+0x145>
    2964: 60           	rts

00002965 <resetInstruments>:
    2965: 18           	clc
    2966: a5 10        	lda	$10                     ; 0x2010 <textPrint+0x144>
    2968: 69 fe        	adc	#$fe
    296a: 85 10        	sta	$10                     ; 0x2010 <textPrint+0x144>
    296c: a5 11        	lda	$11                     ; 0x2011 <textPrint+0x145>
    296e: 69 ff        	adc	#$ff
    2970: 85 11        	sta	$11                     ; 0x2011 <textPrint+0x145>
    2972: 18           	clc
    2973: a5 10        	lda	$10                     ; 0x2010 <textPrint+0x144>
    2975: 69 01        	adc	#$1
    2977: 85 12        	sta	$12                     ; 0x2012 <textPrint+0x146>
    2979: a5 11        	lda	$11                     ; 0x2011 <textPrint+0x145>
    297b: 69 00        	adc	#$0
    297d: 85 13        	sta	$13                     ; 0x2013 <textPrint+0x147>
    297f: a9 00        	lda	#$0
    2981: 92 12        	sta	($12)                   ; 0x2012 <textPrint+0x146>
    2983: 18           	clc
    2984: a6 10        	ldx	$10                     ; 0x2010 <textPrint+0x144>
    2986: 86 12        	stx	$12                     ; 0x2012 <textPrint+0x146>
    2988: a6 11        	ldx	$11                     ; 0x2011 <textPrint+0x145>
    298a: 86 13        	stx	$13                     ; 0x2013 <textPrint+0x147>
    298c: 92 12        	sta	($12)                   ; 0x2012 <textPrint+0x146>
    298e: 18           	clc
    298f: a6 10        	ldx	$10                     ; 0x2010 <textPrint+0x144>
    2991: 86 12        	stx	$12                     ; 0x2012 <textPrint+0x146>
    2993: a6 11        	ldx	$11                     ; 0x2011 <textPrint+0x145>
    2995: 86 13        	stx	$13                     ; 0x2013 <textPrint+0x147>
    2997: b2 12        	lda	($12)                   ; 0x2012 <textPrint+0x146>
    2999: 85 12        	sta	$12                     ; 0x2012 <textPrint+0x146>
    299b: a9 00        	lda	#$0
    299d: a6 12        	ldx	$12                     ; 0x2012 <textPrint+0x146>
    299f: e0 10        	cpx	#$10
    29a1: e9 00        	sbc	#$0
    29a3: 70 02        	bvs	$29a7 <resetInstruments+0x42>
    29a5: 80 04        	bra	$29ab <resetInstruments+0x46>
    29a7: 49 80        	eor	#$80
    29a9: 80 02        	bra	$29ad <resetInstruments+0x48>
    29ab: 80 00        	bra	$29ad <resetInstruments+0x48>
    29ad: aa           	tax
    29ae: 30 03        	bmi	$29b3 <resetInstruments+0x4e>
    29b0: 4c 39 2a     	jmp	$2a39 <resetInstruments+0xd4>
    29b3: 18           	clc
    29b4: a6 10        	ldx	$10                     ; 0x2010 <textPrint+0x144>
    29b6: 86 12        	stx	$12                     ; 0x2012 <textPrint+0x146>
    29b8: a6 11        	ldx	$11                     ; 0x2011 <textPrint+0x145>
    29ba: 86 13        	stx	$13                     ; 0x2013 <textPrint+0x147>
    29bc: a9 c0        	lda	#$c0
    29be: 12 12        	ora	($12)                   ; 0x2012 <textPrint+0x146>
    29c0: 85 14        	sta	$14                     ; 0x2014 <textPrint+0x148>
    29c2: 18           	clc
    29c3: a5 10        	lda	$10                     ; 0x2010 <textPrint+0x144>
    29c5: 69 01        	adc	#$1
    29c7: 85 12        	sta	$12                     ; 0x2012 <textPrint+0x146>
    29c9: a5 11        	lda	$11                     ; 0x2011 <textPrint+0x145>
    29cb: 69 00        	adc	#$0
    29cd: 85 13        	sta	$13                     ; 0x2013 <textPrint+0x147>
    29cf: b2 12        	lda	($12)                   ; 0x2012 <textPrint+0x146>
    29d1: f0 02        	beq	$29d5 <resetInstruments+0x70>
    29d3: 80 02        	bra	$29d7 <resetInstruments+0x72>
    29d5: 80 04        	bra	$29db <resetInstruments+0x76>
    29d7: 80 00        	bra	$29d9 <resetInstruments+0x74>
    29d9: 80 02        	bra	$29dd <resetInstruments+0x78>
    29db: 80 02        	bra	$29df <resetInstruments+0x7a>
    29dd: 80 02        	bra	$29e1 <resetInstruments+0x7c>
    29df: 80 06        	bra	$29e7 <resetInstruments+0x82>
    29e1: a2 b1        	ldx	#$b1
    29e3: 86 12        	stx	$12                     ; 0x2012 <textPrint+0x146>
    29e5: 80 06        	bra	$29ed <resetInstruments+0x88>
    29e7: a2 a1        	ldx	#$a1
    29e9: 86 12        	stx	$12                     ; 0x2012 <textPrint+0x146>
    29eb: 80 00        	bra	$29ed <resetInstruments+0x88>
    29ed: a2 dd        	ldx	#$dd
    29ef: 86 13        	stx	$13                     ; 0x2013 <textPrint+0x147>
    29f1: a5 14        	lda	$14                     ; 0x2014 <textPrint+0x148>
    29f3: 92 12        	sta	($12)                   ; 0x2012 <textPrint+0x146>
    29f5: 18           	clc
    29f6: a5 10        	lda	$10                     ; 0x2010 <textPrint+0x144>
    29f8: 69 01        	adc	#$1
    29fa: 85 12        	sta	$12                     ; 0x2012 <textPrint+0x146>
    29fc: a5 11        	lda	$11                     ; 0x2011 <textPrint+0x145>
    29fe: 69 00        	adc	#$0
    2a00: 85 13        	sta	$13                     ; 0x2013 <textPrint+0x147>
    2a02: b2 12        	lda	($12)                   ; 0x2012 <textPrint+0x146>
    2a04: f0 02        	beq	$2a08 <resetInstruments+0xa3>
    2a06: 80 02        	bra	$2a0a <resetInstruments+0xa5>
    2a08: 80 04        	bra	$2a0e <resetInstruments+0xa9>
    2a0a: 80 00        	bra	$2a0c <resetInstruments+0xa7>
    2a0c: 80 02        	bra	$2a10 <resetInstruments+0xab>
    2a0e: 80 02        	bra	$2a12 <resetInstruments+0xad>
    2a10: 80 02        	bra	$2a14 <resetInstruments+0xaf>
    2a12: 80 06        	bra	$2a1a <resetInstruments+0xb5>
    2a14: a2 b1        	ldx	#$b1
    2a16: 86 12        	stx	$12                     ; 0x2012 <textPrint+0x146>
    2a18: 80 06        	bra	$2a20 <resetInstruments+0xbb>
    2a1a: a2 a1        	ldx	#$a1
    2a1c: 86 12        	stx	$12                     ; 0x2012 <textPrint+0x146>
    2a1e: 80 00        	bra	$2a20 <resetInstruments+0xbb>
    2a20: a2 dd        	ldx	#$dd
    2a22: 86 13        	stx	$13                     ; 0x2013 <textPrint+0x147>
    2a24: a9 00        	lda	#$0
    2a26: 92 12        	sta	($12)                   ; 0x2012 <textPrint+0x146>
    2a28: 18           	clc
    2a29: a6 10        	ldx	$10                     ; 0x2010 <textPrint+0x144>
    2a2b: 86 12        	stx	$12                     ; 0x2012 <textPrint+0x146>
    2a2d: a6 11        	ldx	$11                     ; 0x2011 <textPrint+0x145>
    2a2f: 86 13        	stx	$13                     ; 0x2013 <textPrint+0x147>
    2a31: b2 12        	lda	($12)                   ; 0x2012 <textPrint+0x146>
    2a33: 1a           	inc
    2a34: 92 12        	sta	($12)                   ; 0x2012 <textPrint+0x146>
    2a36: 4c 8e 29     	jmp	$298e <resetInstruments+0x29>
    2a39: 18           	clc
    2a3a: a5 10        	lda	$10                     ; 0x2010 <textPrint+0x144>
    2a3c: 69 01        	adc	#$1
    2a3e: 85 12        	sta	$12                     ; 0x2012 <textPrint+0x146>
    2a40: a5 11        	lda	$11                     ; 0x2011 <textPrint+0x145>
    2a42: 69 00        	adc	#$0
    2a44: 85 13        	sta	$13                     ; 0x2013 <textPrint+0x147>
    2a46: b2 12        	lda	($12)                   ; 0x2012 <textPrint+0x146>
    2a48: 20 19 29     	jsr	$2919 <midiShutUp>
    2a4b: 18           	clc
    2a4c: a5 10        	lda	$10                     ; 0x2010 <textPrint+0x144>
    2a4e: 69 02        	adc	#$2
    2a50: 85 10        	sta	$10                     ; 0x2010 <textPrint+0x144>
    2a52: a5 11        	lda	$11                     ; 0x2011 <textPrint+0x145>
    2a54: 69 00        	adc	#$0
    2a56: 85 11        	sta	$11                     ; 0x2011 <textPrint+0x145>
    2a58: 60           	rts

00002a59 <initMidiRecord>:
    2a59: 48           	pha
    2a5a: 18           	clc
    2a5b: a5 10        	lda	$10                     ; 0x2010 <textPrint+0x144>
    2a5d: 69 f4        	adc	#$f4
    2a5f: 85 10        	sta	$10                     ; 0x2010 <textPrint+0x144>
    2a61: a5 11        	lda	$11                     ; 0x2011 <textPrint+0x145>
    2a63: 69 ff        	adc	#$ff
    2a65: 85 11        	sta	$11                     ; 0x2011 <textPrint+0x145>
    2a67: 68           	pla
    2a68: a4 24        	ldy	$24                     ; 0x2024 <textPrint+0x158>
    2a6a: 5a           	phy
    2a6b: a4 25        	ldy	$25                     ; 0x2025 <textPrint+0x159>
    2a6d: 5a           	phy
    2a6e: a4 26        	ldy	$26                     ; 0x2026 <textPrint+0x15a>
    2a70: 5a           	phy
    2a71: a4 27        	ldy	$27                     ; 0x2027 <textPrint+0x15b>
    2a73: 5a           	phy
    2a74: 48           	pha
    2a75: a5 28        	lda	$28                     ; 0x2028 <textPrint+0x15c>
    2a77: a0 01        	ldy	#$1
    2a79: 91 10        	sta	($10),y                 ; 0x2010 <textPrint+0x144>
    2a7b: a5 29        	lda	$29                     ; 0x2029 <textPrint+0x15d>
    2a7d: 88           	dey
    2a7e: 91 10        	sta	($10),y                 ; 0x2010 <textPrint+0x144>
    2a80: 68           	pla
    2a81: 85 16        	sta	$16                     ; 0x2016 <textPrint+0x14a>
    2a83: a5 12        	lda	$12                     ; 0x2012 <textPrint+0x146>
    2a85: 18           	clc
    2a86: 48           	pha
    2a87: a5 10        	lda	$10                     ; 0x2010 <textPrint+0x144>
    2a89: 69 0a        	adc	#$a
    2a8b: 85 24        	sta	$24                     ; 0x2024 <textPrint+0x158>
    2a8d: a5 11        	lda	$11                     ; 0x2011 <textPrint+0x145>
    2a8f: 69 00        	adc	#$0
    2a91: 85 25        	sta	$25                     ; 0x2025 <textPrint+0x159>
    2a93: 68           	pla
    2a94: 92 24        	sta	($24)                   ; 0x2024 <textPrint+0x158>
    2a96: c8           	iny
    2a97: a5 13        	lda	$13                     ; 0x2013 <textPrint+0x147>
    2a99: 91 24        	sta	($24),y                 ; 0x2024 <textPrint+0x158>
    2a9b: a0 01        	ldy	#$1
    2a9d: 18           	clc
    2a9e: a5 10        	lda	$10                     ; 0x2010 <textPrint+0x144>
    2aa0: 69 06        	adc	#$6
    2aa2: 85 26        	sta	$26                     ; 0x2026 <textPrint+0x15a>
    2aa4: a5 11        	lda	$11                     ; 0x2011 <textPrint+0x145>
    2aa6: 69 00        	adc	#$0
    2aa8: 85 27        	sta	$27                     ; 0x2027 <textPrint+0x15b>
    2aaa: b2 24        	lda	($24)                   ; 0x2024 <textPrint+0x158>
    2aac: 85 12        	sta	$12                     ; 0x2012 <textPrint+0x146>
    2aae: 85 17        	sta	$17                     ; 0x2017 <textPrint+0x14b>
    2ab0: b1 24        	lda	($24),y                 ; 0x2024 <textPrint+0x158>
    2ab2: 85 13        	sta	$13                     ; 0x2013 <textPrint+0x147>
    2ab4: 85 18        	sta	$18                     ; 0x2018 <textPrint+0x14c>
    2ab6: a0 22        	ldy	#$22
    2ab8: a9 00        	lda	#$0
    2aba: 91 12        	sta	($12),y                 ; 0x2012 <textPrint+0x146>
    2abc: a9 00        	lda	#$0
    2abe: 92 26        	sta	($26)                   ; 0x2026 <textPrint+0x15a>
    2ac0: a0 01        	ldy	#$1
    2ac2: 91 26        	sta	($26),y                 ; 0x2026 <textPrint+0x15a>
    2ac4: c8           	iny
    2ac5: 91 26        	sta	($26),y                 ; 0x2026 <textPrint+0x15a>
    2ac7: c8           	iny
    2ac8: 91 26        	sta	($26),y                 ; 0x2026 <textPrint+0x15a>
    2aca: 18           	clc
    2acb: a5 10        	lda	$10                     ; 0x2010 <textPrint+0x144>
    2acd: 69 02        	adc	#$2
    2acf: 85 28        	sta	$28                     ; 0x2028 <textPrint+0x15c>
    2ad1: a5 11        	lda	$11                     ; 0x2011 <textPrint+0x145>
    2ad3: 69 00        	adc	#$0
    2ad5: 85 29        	sta	$29                     ; 0x2029 <textPrint+0x15d>
    2ad7: a5 16        	lda	$16                     ; 0x2016 <textPrint+0x14a>
    2ad9: 92 28        	sta	($28)                   ; 0x2028 <textPrint+0x15c>
    2adb: 8a           	txa
    2adc: a0 01        	ldy	#$1
    2ade: 91 28        	sta	($28),y                 ; 0x2028 <textPrint+0x15c>
    2ae0: a5 14        	lda	$14                     ; 0x2014 <textPrint+0x148>
    2ae2: c8           	iny
    2ae3: 91 28        	sta	($28),y                 ; 0x2028 <textPrint+0x15c>
    2ae5: a5 15        	lda	$15                     ; 0x2015 <textPrint+0x149>
    2ae7: c8           	iny
    2ae8: 91 28        	sta	($28),y                 ; 0x2028 <textPrint+0x15c>
    2aea: 18           	clc
    2aeb: a5 17        	lda	$17                     ; 0x2017 <textPrint+0x14b>
    2aed: 69 22        	adc	#$22
    2aef: 85 12        	sta	$12                     ; 0x2012 <textPrint+0x146>
    2af1: a5 18        	lda	$18                     ; 0x2018 <textPrint+0x14c>
    2af3: 69 00        	adc	#$0
    2af5: 85 13        	sta	$13                     ; 0x2013 <textPrint+0x147>
    2af7: a0 01        	ldy	#$1
    2af9: a9 00        	lda	#$0
    2afb: 91 12        	sta	($12),y                 ; 0x2012 <textPrint+0x146>
    2afd: c8           	iny
    2afe: 91 12        	sta	($12),y                 ; 0x2012 <textPrint+0x146>
    2b00: c8           	iny
    2b01: 91 12        	sta	($12),y                 ; 0x2012 <textPrint+0x146>
    2b03: aa           	tax
    2b04: a9 40        	lda	#$40
    2b06: 20 01 66     	jsr	$6601 <malloc>
    2b09: b2 24        	lda	($24)                   ; 0x2024 <textPrint+0x158>
    2b0b: 85 14        	sta	$14                     ; 0x2014 <textPrint+0x148>
    2b0d: aa           	tax
    2b0e: a0 01        	ldy	#$1
    2b10: b1 24        	lda	($24),y                 ; 0x2024 <textPrint+0x158>
    2b12: 85 15        	sta	$15                     ; 0x2015 <textPrint+0x149>
    2b14: a8           	tay
    2b15: 18           	clc
    2b16: 8a           	txa
    2b17: 69 06        	adc	#$6
    2b19: 85 16        	sta	$16                     ; 0x2016 <textPrint+0x14a>
    2b1b: 98           	tya
    2b1c: 69 00        	adc	#$0
    2b1e: 85 17        	sta	$17                     ; 0x2017 <textPrint+0x14b>
    2b20: a5 12        	lda	$12                     ; 0x2012 <textPrint+0x146>
    2b22: a0 06        	ldy	#$6
    2b24: 91 14        	sta	($14),y                 ; 0x2014 <textPrint+0x148>
    2b26: a5 13        	lda	$13                     ; 0x2013 <textPrint+0x147>
    2b28: a0 01        	ldy	#$1
    2b2a: 91 16        	sta	($16),y                 ; 0x2016 <textPrint+0x14a>
    2b2c: b2 24        	lda	($24)                   ; 0x2024 <textPrint+0x158>
    2b2e: 85 12        	sta	$12                     ; 0x2012 <textPrint+0x146>
    2b30: aa           	tax
    2b31: b1 24        	lda	($24),y                 ; 0x2024 <textPrint+0x158>
    2b33: 85 13        	sta	$13                     ; 0x2013 <textPrint+0x147>
    2b35: 85 14        	sta	$14                     ; 0x2014 <textPrint+0x148>
    2b37: a0 08        	ldy	#$8
    2b39: a9 00        	lda	#$0
    2b3b: 91 12        	sta	($12),y                 ; 0x2012 <textPrint+0x146>
    2b3d: 18           	clc
    2b3e: 8a           	txa
    2b3f: 69 08        	adc	#$8
    2b41: 85 12        	sta	$12                     ; 0x2012 <textPrint+0x146>
    2b43: a5 14        	lda	$14                     ; 0x2014 <textPrint+0x148>
    2b45: 69 00        	adc	#$0
    2b47: 85 13        	sta	$13                     ; 0x2013 <textPrint+0x147>
    2b49: a9 00        	lda	#$0
    2b4b: a0 01        	ldy	#$1
    2b4d: 91 12        	sta	($12),y                 ; 0x2012 <textPrint+0x146>
    2b4f: b2 24        	lda	($24)                   ; 0x2024 <textPrint+0x158>
    2b51: 85 12        	sta	$12                     ; 0x2012 <textPrint+0x146>
    2b53: aa           	tax
    2b54: b1 24        	lda	($24),y                 ; 0x2024 <textPrint+0x158>
    2b56: 85 13        	sta	$13                     ; 0x2013 <textPrint+0x147>
    2b58: 85 14        	sta	$14                     ; 0x2014 <textPrint+0x148>
    2b5a: a0 0a        	ldy	#$a
    2b5c: a9 00        	lda	#$0
    2b5e: 91 12        	sta	($12),y                 ; 0x2012 <textPrint+0x146>
    2b60: 18           	clc
    2b61: 8a           	txa
    2b62: 69 0a        	adc	#$a
    2b64: 85 12        	sta	$12                     ; 0x2012 <textPrint+0x146>
    2b66: a5 14        	lda	$14                     ; 0x2014 <textPrint+0x148>
    2b68: 69 00        	adc	#$0
    2b6a: 85 13        	sta	$13                     ; 0x2013 <textPrint+0x147>
    2b6c: a0 01        	ldy	#$1
    2b6e: a9 00        	lda	#$0
    2b70: 91 12        	sta	($12),y                 ; 0x2012 <textPrint+0x146>
    2b72: b2 24        	lda	($24)                   ; 0x2024 <textPrint+0x158>
    2b74: 85 12        	sta	$12                     ; 0x2012 <textPrint+0x146>
    2b76: 85 14        	sta	$14                     ; 0x2014 <textPrint+0x148>
    2b78: b1 24        	lda	($24),y                 ; 0x2024 <textPrint+0x158>
    2b7a: 85 13        	sta	$13                     ; 0x2013 <textPrint+0x147>
    2b7c: 85 15        	sta	$15                     ; 0x2015 <textPrint+0x149>
    2b7e: a2 30        	ldx	#$30
    2b80: 8a           	txa
    2b81: a0 0c        	ldy	#$c
    2b83: 91 12        	sta	($12),y                 ; 0x2012 <textPrint+0x146>
    2b85: 18           	clc
    2b86: a5 14        	lda	$14                     ; 0x2014 <textPrint+0x148>
    2b88: 69 0c        	adc	#$c
    2b8a: 85 12        	sta	$12                     ; 0x2012 <textPrint+0x146>
    2b8c: a5 15        	lda	$15                     ; 0x2015 <textPrint+0x149>
    2b8e: 69 00        	adc	#$0
    2b90: 85 13        	sta	$13                     ; 0x2013 <textPrint+0x147>
    2b92: a9 00        	lda	#$0
    2b94: a0 01        	ldy	#$1
    2b96: 91 12        	sta	($12),y                 ; 0x2012 <textPrint+0x146>
    2b98: c8           	iny
    2b99: 91 12        	sta	($12),y                 ; 0x2012 <textPrint+0x146>
    2b9b: c8           	iny
    2b9c: 91 12        	sta	($12),y                 ; 0x2012 <textPrint+0x146>
    2b9e: b2 24        	lda	($24)                   ; 0x2024 <textPrint+0x158>
    2ba0: 85 12        	sta	$12                     ; 0x2012 <textPrint+0x146>
    2ba2: aa           	tax
    2ba3: a0 01        	ldy	#$1
    2ba5: b1 24        	lda	($24),y                 ; 0x2024 <textPrint+0x158>
    2ba7: 85 13        	sta	$13                     ; 0x2013 <textPrint+0x147>
    2ba9: 85 14        	sta	$14                     ; 0x2014 <textPrint+0x148>
    2bab: a9 00        	lda	#$0
    2bad: a0 10        	ldy	#$10
    2baf: 91 12        	sta	($12),y                 ; 0x2012 <textPrint+0x146>
    2bb1: 18           	clc
    2bb2: 8a           	txa
    2bb3: 69 10        	adc	#$10
    2bb5: 85 12        	sta	$12                     ; 0x2012 <textPrint+0x146>
    2bb7: a5 14        	lda	$14                     ; 0x2014 <textPrint+0x148>
    2bb9: 69 00        	adc	#$0
    2bbb: 85 13        	sta	$13                     ; 0x2013 <textPrint+0x147>
    2bbd: a0 01        	ldy	#$1
    2bbf: a9 00        	lda	#$0
    2bc1: 91 12        	sta	($12),y                 ; 0x2012 <textPrint+0x146>
    2bc3: c8           	iny
    2bc4: 91 12        	sta	($12),y                 ; 0x2012 <textPrint+0x146>
    2bc6: c8           	iny
    2bc7: 91 12        	sta	($12),y                 ; 0x2012 <textPrint+0x146>
    2bc9: b2 24        	lda	($24)                   ; 0x2024 <textPrint+0x158>
    2bcb: 85 12        	sta	$12                     ; 0x2012 <textPrint+0x146>
    2bcd: aa           	tax
    2bce: a0 01        	ldy	#$1
    2bd0: b1 24        	lda	($24),y                 ; 0x2024 <textPrint+0x158>
    2bd2: 85 13        	sta	$13                     ; 0x2013 <textPrint+0x147>
    2bd4: 85 14        	sta	$14                     ; 0x2014 <textPrint+0x148>
    2bd6: a9 43        	lda	#$43
    2bd8: a0 14        	ldy	#$14
    2bda: 91 12        	sta	($12),y                 ; 0x2012 <textPrint+0x146>
    2bdc: 18           	clc
    2bdd: 8a           	txa
    2bde: 69 14        	adc	#$14
    2be0: 85 12        	sta	$12                     ; 0x2012 <textPrint+0x146>
    2be2: a5 14        	lda	$14                     ; 0x2014 <textPrint+0x148>
    2be4: 69 00        	adc	#$0
    2be6: 85 13        	sta	$13                     ; 0x2013 <textPrint+0x147>
    2be8: a0 04        	ldy	#$4
    2bea: a9 71        	lda	#$71
    2bec: 91 12        	sta	($12),y                 ; 0x2012 <textPrint+0x146>
    2bee: a9 2a        	lda	#$2a
    2bf0: c8           	iny
    2bf1: 91 12        	sta	($12),y                 ; 0x2012 <textPrint+0x146>
    2bf3: a9 39        	lda	#$39
    2bf5: c8           	iny
    2bf6: 91 12        	sta	($12),y                 ; 0x2012 <textPrint+0x146>
    2bf8: c8           	iny
    2bf9: a9 40        	lda	#$40
    2bfb: 91 12        	sta	($12),y                 ; 0x2012 <textPrint+0x146>
    2bfd: a9 ad        	lda	#$ad
    2bff: a0 01        	ldy	#$1
    2c01: 91 12        	sta	($12),y                 ; 0x2012 <textPrint+0x146>
    2c03: a9 69        	lda	#$69
    2c05: c8           	iny
    2c06: 91 12        	sta	($12),y                 ; 0x2012 <textPrint+0x146>
    2c08: a9 de        	lda	#$de
    2c0a: c8           	iny
    2c0b: 91 12        	sta	($12),y                 ; 0x2012 <textPrint+0x146>
    2c0d: b2 24        	lda	($24)                   ; 0x2024 <textPrint+0x158>
    2c0f: 85 12        	sta	$12                     ; 0x2012 <textPrint+0x146>
    2c11: a0 01        	ldy	#$1
    2c13: b1 24        	lda	($24),y                 ; 0x2024 <textPrint+0x158>
    2c15: 85 13        	sta	$13                     ; 0x2013 <textPrint+0x147>
    2c17: a0 1c        	ldy	#$1c
    2c19: a9 04        	lda	#$4
    2c1b: 91 12        	sta	($12),y                 ; 0x2012 <textPrint+0x146>
    2c1d: b2 24        	lda	($24)                   ; 0x2024 <textPrint+0x158>
    2c1f: 85 12        	sta	$12                     ; 0x2012 <textPrint+0x146>
    2c21: a0 01        	ldy	#$1
    2c23: b1 24        	lda	($24),y                 ; 0x2024 <textPrint+0x158>
    2c25: 85 13        	sta	$13                     ; 0x2013 <textPrint+0x147>
    2c27: a9 02        	lda	#$2
    2c29: a0 1d        	ldy	#$1d
    2c2b: 91 12        	sta	($12),y                 ; 0x2012 <textPrint+0x146>
    2c2d: b2 24        	lda	($24)                   ; 0x2024 <textPrint+0x158>
    2c2f: 85 12        	sta	$12                     ; 0x2012 <textPrint+0x146>
    2c31: a0 01        	ldy	#$1
    2c33: b1 24        	lda	($24),y                 ; 0x2024 <textPrint+0x158>
    2c35: 85 13        	sta	$13                     ; 0x2013 <textPrint+0x147>
    2c37: a9 18        	lda	#$18
    2c39: a0 1e        	ldy	#$1e
    2c3b: 91 12        	sta	($12),y                 ; 0x2012 <textPrint+0x146>
    2c3d: b2 24        	lda	($24)                   ; 0x2024 <textPrint+0x158>
    2c3f: 85 12        	sta	$12                     ; 0x2012 <textPrint+0x146>
    2c41: a0 01        	ldy	#$1
    2c43: b1 24        	lda	($24),y                 ; 0x2024 <textPrint+0x158>
    2c45: 85 13        	sta	$13                     ; 0x2013 <textPrint+0x147>
    2c47: a0 1f        	ldy	#$1f
    2c49: a9 08        	lda	#$8
    2c4b: 91 12        	sta	($12),y                 ; 0x2012 <textPrint+0x146>
    2c4d: b2 24        	lda	($24)                   ; 0x2024 <textPrint+0x158>
    2c4f: 85 12        	sta	$12                     ; 0x2012 <textPrint+0x146>
    2c51: aa           	tax
    2c52: a0 01        	ldy	#$1
    2c54: b1 24        	lda	($24),y                 ; 0x2024 <textPrint+0x158>
    2c56: 85 13        	sta	$13                     ; 0x2013 <textPrint+0x147>
    2c58: 85 14        	sta	$14                     ; 0x2014 <textPrint+0x148>
    2c5a: a0 28        	ldy	#$28
    2c5c: a9 00        	lda	#$0
    2c5e: 91 12        	sta	($12),y                 ; 0x2012 <textPrint+0x146>
    2c60: 18           	clc
    2c61: 8a           	txa
    2c62: 69 28        	adc	#$28
    2c64: 85 12        	sta	$12                     ; 0x2012 <textPrint+0x146>
    2c66: a5 14        	lda	$14                     ; 0x2014 <textPrint+0x148>
    2c68: 69 00        	adc	#$0
    2c6a: 85 13        	sta	$13                     ; 0x2013 <textPrint+0x147>
    2c6c: a0 01        	ldy	#$1
    2c6e: a9 00        	lda	#$0
    2c70: 91 12        	sta	($12),y                 ; 0x2012 <textPrint+0x146>
    2c72: b2 24        	lda	($24)                   ; 0x2024 <textPrint+0x158>
    2c74: 85 12        	sta	$12                     ; 0x2012 <textPrint+0x146>
    2c76: aa           	tax
    2c77: b1 24        	lda	($24),y                 ; 0x2024 <textPrint+0x158>
    2c79: 85 13        	sta	$13                     ; 0x2013 <textPrint+0x147>
    2c7b: 85 14        	sta	$14                     ; 0x2014 <textPrint+0x148>
    2c7d: a0 26        	ldy	#$26
    2c7f: a9 00        	lda	#$0
    2c81: 91 12        	sta	($12),y                 ; 0x2012 <textPrint+0x146>
    2c83: 18           	clc
    2c84: 8a           	txa
    2c85: 69 26        	adc	#$26
    2c87: 85 12        	sta	$12                     ; 0x2012 <textPrint+0x146>
    2c89: a5 14        	lda	$14                     ; 0x2014 <textPrint+0x148>
    2c8b: 69 00        	adc	#$0
    2c8d: 85 13        	sta	$13                     ; 0x2013 <textPrint+0x147>
    2c8f: a9 00        	lda	#$0
    2c91: a0 01        	ldy	#$1
    2c93: 91 12        	sta	($12),y                 ; 0x2012 <textPrint+0x146>
    2c95: b2 24        	lda	($24)                   ; 0x2024 <textPrint+0x158>
    2c97: 85 12        	sta	$12                     ; 0x2012 <textPrint+0x146>
    2c99: aa           	tax
    2c9a: b1 24        	lda	($24),y                 ; 0x2024 <textPrint+0x158>
    2c9c: 85 13        	sta	$13                     ; 0x2013 <textPrint+0x147>
    2c9e: 85 14        	sta	$14                     ; 0x2014 <textPrint+0x148>
    2ca0: b2 26        	lda	($26)                   ; 0x2026 <textPrint+0x15a>
    2ca2: a0 2c        	ldy	#$2c
    2ca4: 91 12        	sta	($12),y                 ; 0x2012 <textPrint+0x146>
    2ca6: 18           	clc
    2ca7: 8a           	txa
    2ca8: 69 2c        	adc	#$2c
    2caa: 85 12        	sta	$12                     ; 0x2012 <textPrint+0x146>
    2cac: a5 14        	lda	$14                     ; 0x2014 <textPrint+0x148>
    2cae: 69 00        	adc	#$0
    2cb0: 85 13        	sta	$13                     ; 0x2013 <textPrint+0x147>
    2cb2: a0 01        	ldy	#$1
    2cb4: b1 26        	lda	($26),y                 ; 0x2026 <textPrint+0x15a>
    2cb6: 91 12        	sta	($12),y                 ; 0x2012 <textPrint+0x146>
    2cb8: c8           	iny
    2cb9: b1 26        	lda	($26),y                 ; 0x2026 <textPrint+0x15a>
    2cbb: 91 12        	sta	($12),y                 ; 0x2012 <textPrint+0x146>
    2cbd: c8           	iny
    2cbe: b1 26        	lda	($26),y                 ; 0x2026 <textPrint+0x15a>
    2cc0: 91 12        	sta	($12),y                 ; 0x2012 <textPrint+0x146>
    2cc2: b2 24        	lda	($24)                   ; 0x2024 <textPrint+0x158>
    2cc4: 85 12        	sta	$12                     ; 0x2012 <textPrint+0x146>
    2cc6: aa           	tax
    2cc7: a0 01        	ldy	#$1
    2cc9: b1 24        	lda	($24),y                 ; 0x2024 <textPrint+0x158>
    2ccb: 85 13        	sta	$13                     ; 0x2013 <textPrint+0x147>
    2ccd: 85 14        	sta	$14                     ; 0x2014 <textPrint+0x148>
    2ccf: b2 28        	lda	($28)                   ; 0x2028 <textPrint+0x15c>
    2cd1: a0 30        	ldy	#$30
    2cd3: 91 12        	sta	($12),y                 ; 0x2012 <textPrint+0x146>
    2cd5: 18           	clc
    2cd6: 8a           	txa
    2cd7: 69 30        	adc	#$30
    2cd9: 85 12        	sta	$12                     ; 0x2012 <textPrint+0x146>
    2cdb: a5 14        	lda	$14                     ; 0x2014 <textPrint+0x148>
    2cdd: 69 00        	adc	#$0
    2cdf: 85 13        	sta	$13                     ; 0x2013 <textPrint+0x147>
    2ce1: a0 01        	ldy	#$1
    2ce3: b1 28        	lda	($28),y                 ; 0x2028 <textPrint+0x15c>
    2ce5: 91 12        	sta	($12),y                 ; 0x2012 <textPrint+0x146>
    2ce7: c8           	iny
    2ce8: b1 28        	lda	($28),y                 ; 0x2028 <textPrint+0x15c>
    2cea: 91 12        	sta	($12),y                 ; 0x2012 <textPrint+0x146>
    2cec: c8           	iny
    2ced: b1 28        	lda	($28),y                 ; 0x2028 <textPrint+0x15c>
    2cef: 91 12        	sta	($12),y                 ; 0x2012 <textPrint+0x146>
    2cf1: a0 00        	ldy	#$0
    2cf3: b1 10        	lda	($10),y                 ; 0x2010 <textPrint+0x144>
    2cf5: 85 29        	sta	$29                     ; 0x2029 <textPrint+0x15d>
    2cf7: c8           	iny
    2cf8: b1 10        	lda	($10),y                 ; 0x2010 <textPrint+0x144>
    2cfa: 85 28        	sta	$28                     ; 0x2028 <textPrint+0x15c>
    2cfc: fa           	plx
    2cfd: 86 27        	stx	$27                     ; 0x2027 <textPrint+0x15b>
    2cff: fa           	plx
    2d00: 86 26        	stx	$26                     ; 0x2026 <textPrint+0x15a>
    2d02: fa           	plx
    2d03: 86 25        	stx	$25                     ; 0x2025 <textPrint+0x159>
    2d05: fa           	plx
    2d06: 86 24        	stx	$24                     ; 0x2024 <textPrint+0x158>
    2d08: 18           	clc
    2d09: a5 10        	lda	$10                     ; 0x2010 <textPrint+0x144>
    2d0b: 69 0c        	adc	#$c
    2d0d: 85 10        	sta	$10                     ; 0x2010 <textPrint+0x144>
    2d0f: a5 11        	lda	$11                     ; 0x2011 <textPrint+0x145>
    2d11: 69 00        	adc	#$0
    2d13: 85 11        	sta	$11                     ; 0x2011 <textPrint+0x145>
    2d15: 60           	rts

00002d16 <initBigList>:
    2d16: 18           	clc
    2d17: a5 10        	lda	$10                     ; 0x2010 <textPrint+0x144>
    2d19: 69 fe        	adc	#$fe
    2d1b: 85 10        	sta	$10                     ; 0x2010 <textPrint+0x144>
    2d1d: a5 11        	lda	$11                     ; 0x2011 <textPrint+0x145>
    2d1f: 69 ff        	adc	#$ff
    2d21: 85 11        	sta	$11                     ; 0x2011 <textPrint+0x145>
    2d23: a5 12        	lda	$12                     ; 0x2012 <textPrint+0x146>
    2d25: a6 13        	ldx	$13                     ; 0x2013 <textPrint+0x147>
    2d27: 18           	clc
    2d28: a4 10        	ldy	$10                     ; 0x2010 <textPrint+0x144>
    2d2a: 84 12        	sty	$12                     ; 0x2012 <textPrint+0x146>
    2d2c: a4 11        	ldy	$11                     ; 0x2011 <textPrint+0x145>
    2d2e: 84 13        	sty	$13                     ; 0x2013 <textPrint+0x147>
    2d30: 92 12        	sta	($12)                   ; 0x2012 <textPrint+0x146>
    2d32: a0 01        	ldy	#$1
    2d34: 8a           	txa
    2d35: 91 12        	sta	($12),y                 ; 0x2012 <textPrint+0x146>
    2d37: b2 12        	lda	($12)                   ; 0x2012 <textPrint+0x146>
    2d39: 85 14        	sta	$14                     ; 0x2014 <textPrint+0x148>
    2d3b: b1 12        	lda	($12),y                 ; 0x2012 <textPrint+0x146>
    2d3d: 85 15        	sta	$15                     ; 0x2015 <textPrint+0x149>
    2d3f: a9 00        	lda	#$0
    2d41: 92 14        	sta	($14)                   ; 0x2014 <textPrint+0x148>
    2d43: b2 12        	lda	($12)                   ; 0x2012 <textPrint+0x146>
    2d45: 85 14        	sta	$14                     ; 0x2014 <textPrint+0x148>
    2d47: b1 12        	lda	($12),y                 ; 0x2012 <textPrint+0x146>
    2d49: 85 15        	sta	$15                     ; 0x2015 <textPrint+0x149>
    2d4b: a6 14        	ldx	$14                     ; 0x2014 <textPrint+0x148>
    2d4d: 86 16        	stx	$16                     ; 0x2016 <textPrint+0x14a>
    2d4f: 85 17        	sta	$17                     ; 0x2017 <textPrint+0x14b>
    2d51: e6 16        	inc	$16                     ; 0x2016 <textPrint+0x14a>
    2d53: f0 03        	beq	$2d58 <initBigList+0x42>
    2d55: 4c 5d 2d     	jmp	$2d5d <initBigList+0x47>
    2d58: e6 17        	inc	$17                     ; 0x2017 <textPrint+0x14b>
    2d5a: 4c 5d 2d     	jmp	$2d5d <initBigList+0x47>
    2d5d: a9 00        	lda	#$0
    2d5f: 91 14        	sta	($14),y                 ; 0x2014 <textPrint+0x148>
    2d61: a9 00        	lda	#$0
    2d63: 91 16        	sta	($16),y                 ; 0x2016 <textPrint+0x14a>
    2d65: b2 12        	lda	($12)                   ; 0x2012 <textPrint+0x146>
    2d67: 85 14        	sta	$14                     ; 0x2014 <textPrint+0x148>
    2d69: b1 12        	lda	($12),y                 ; 0x2012 <textPrint+0x146>
    2d6b: aa           	tax
    2d6c: a5 14        	lda	$14                     ; 0x2014 <textPrint+0x148>
    2d6e: 85 12        	sta	$12                     ; 0x2012 <textPrint+0x146>
    2d70: 86 13        	stx	$13                     ; 0x2013 <textPrint+0x147>
    2d72: 18           	clc
    2d73: 69 03        	adc	#$3
    2d75: 85 14        	sta	$14                     ; 0x2014 <textPrint+0x148>
    2d77: 8a           	txa
    2d78: 69 00        	adc	#$0
    2d7a: 85 15        	sta	$15                     ; 0x2015 <textPrint+0x149>
    2d7c: a2 00        	ldx	#$0
    2d7e: 86 16        	stx	$16                     ; 0x2016 <textPrint+0x14a>
    2d80: a2 00        	ldx	#$0
    2d82: 86 17        	stx	$17                     ; 0x2017 <textPrint+0x14b>
    2d84: a5 16        	lda	$16                     ; 0x2016 <textPrint+0x14a>
    2d86: a0 03        	ldy	#$3
    2d88: 91 12        	sta	($12),y                 ; 0x2012 <textPrint+0x146>
    2d8a: a0 01        	ldy	#$1
    2d8c: a5 17        	lda	$17                     ; 0x2017 <textPrint+0x14b>
    2d8e: 91 14        	sta	($14),y                 ; 0x2014 <textPrint+0x148>
    2d90: 18           	clc
    2d91: a5 10        	lda	$10                     ; 0x2010 <textPrint+0x144>
    2d93: 69 02        	adc	#$2
    2d95: 85 10        	sta	$10                     ; 0x2010 <textPrint+0x144>
    2d97: a5 11        	lda	$11                     ; 0x2011 <textPrint+0x145>
    2d99: 69 00        	adc	#$0
    2d9b: 85 11        	sta	$11                     ; 0x2011 <textPrint+0x145>
    2d9d: 60           	rts

00002d9e <getTotalLeft>:
    2d9e: 18           	clc
    2d9f: a5 10        	lda	$10                     ; 0x2010 <textPrint+0x144>
    2da1: 69 f8        	adc	#$f8
    2da3: 85 10        	sta	$10                     ; 0x2010 <textPrint+0x144>
    2da5: a5 11        	lda	$11                     ; 0x2011 <textPrint+0x145>
    2da7: 69 ff        	adc	#$ff
    2da9: 85 11        	sta	$11                     ; 0x2011 <textPrint+0x145>
    2dab: a5 12        	lda	$12                     ; 0x2012 <textPrint+0x146>
    2dad: a6 13        	ldx	$13                     ; 0x2013 <textPrint+0x147>
    2daf: 18           	clc
    2db0: 48           	pha
    2db1: a5 10        	lda	$10                     ; 0x2010 <textPrint+0x144>
    2db3: 69 06        	adc	#$6
    2db5: 85 12        	sta	$12                     ; 0x2012 <textPrint+0x146>
    2db7: a5 11        	lda	$11                     ; 0x2011 <textPrint+0x145>
    2db9: 69 00        	adc	#$0
    2dbb: 85 13        	sta	$13                     ; 0x2013 <textPrint+0x147>
    2dbd: 68           	pla
    2dbe: 92 12        	sta	($12)                   ; 0x2012 <textPrint+0x146>
    2dc0: a0 01        	ldy	#$1
    2dc2: 8a           	txa
    2dc3: 91 12        	sta	($12),y                 ; 0x2012 <textPrint+0x146>
    2dc5: a9 00        	lda	#$0
    2dc7: 18           	clc
    2dc8: 48           	pha
    2dc9: a5 10        	lda	$10                     ; 0x2010 <textPrint+0x144>
    2dcb: 69 02        	adc	#$2
    2dcd: 85 12        	sta	$12                     ; 0x2012 <textPrint+0x146>
    2dcf: a5 11        	lda	$11                     ; 0x2011 <textPrint+0x145>
    2dd1: 69 00        	adc	#$0
    2dd3: 85 13        	sta	$13                     ; 0x2013 <textPrint+0x147>
    2dd5: 68           	pla
    2dd6: 92 12        	sta	($12)                   ; 0x2012 <textPrint+0x146>
    2dd8: 91 12        	sta	($12),y                 ; 0x2012 <textPrint+0x146>
    2dda: c8           	iny
    2ddb: 91 12        	sta	($12),y                 ; 0x2012 <textPrint+0x146>
    2ddd: c8           	iny
    2dde: 91 12        	sta	($12),y                 ; 0x2012 <textPrint+0x146>
    2de0: 18           	clc
    2de1: a6 10        	ldx	$10                     ; 0x2010 <textPrint+0x144>
    2de3: 86 12        	stx	$12                     ; 0x2012 <textPrint+0x146>
    2de5: a6 11        	ldx	$11                     ; 0x2011 <textPrint+0x145>
    2de7: 86 13        	stx	$13                     ; 0x2013 <textPrint+0x147>
    2de9: a9 00        	lda	#$0
    2deb: 92 12        	sta	($12)                   ; 0x2012 <textPrint+0x146>
    2ded: a0 01        	ldy	#$1
    2def: 91 12        	sta	($12),y                 ; 0x2012 <textPrint+0x146>
    2df1: 92 12        	sta	($12)                   ; 0x2012 <textPrint+0x146>
    2df3: 91 12        	sta	($12),y                 ; 0x2012 <textPrint+0x146>
    2df5: 18           	clc
    2df6: a6 10        	ldx	$10                     ; 0x2010 <textPrint+0x144>
    2df8: 86 12        	stx	$12                     ; 0x2012 <textPrint+0x146>
    2dfa: a6 11        	ldx	$11                     ; 0x2011 <textPrint+0x145>
    2dfc: 86 13        	stx	$13                     ; 0x2013 <textPrint+0x147>
    2dfe: b2 12        	lda	($12)                   ; 0x2012 <textPrint+0x146>
    2e00: 85 16        	sta	$16                     ; 0x2016 <textPrint+0x14a>
    2e02: a0 01        	ldy	#$1
    2e04: b1 12        	lda	($12),y                 ; 0x2012 <textPrint+0x146>
    2e06: aa           	tax
    2e07: 18           	clc
    2e08: a5 10        	lda	$10                     ; 0x2010 <textPrint+0x144>
    2e0a: 69 06        	adc	#$6
    2e0c: 85 12        	sta	$12                     ; 0x2012 <textPrint+0x146>
    2e0e: a5 11        	lda	$11                     ; 0x2011 <textPrint+0x145>
    2e10: 69 00        	adc	#$0
    2e12: 85 13        	sta	$13                     ; 0x2013 <textPrint+0x147>
    2e14: b2 12        	lda	($12)                   ; 0x2012 <textPrint+0x146>
    2e16: 85 14        	sta	$14                     ; 0x2014 <textPrint+0x148>
    2e18: b1 12        	lda	($12),y                 ; 0x2012 <textPrint+0x146>
    2e1a: 5a           	phy
    2e1b: a4 14        	ldy	$14                     ; 0x2014 <textPrint+0x148>
    2e1d: 84 12        	sty	$12                     ; 0x2012 <textPrint+0x146>
    2e1f: 85 13        	sta	$13                     ; 0x2013 <textPrint+0x147>
    2e21: a4 12        	ldy	$12                     ; 0x2012 <textPrint+0x146>
    2e23: 84 14        	sty	$14                     ; 0x2014 <textPrint+0x148>
    2e25: 7a           	ply
    2e26: 85 15        	sta	$15                     ; 0x2015 <textPrint+0x149>
    2e28: e6 14        	inc	$14                     ; 0x2014 <textPrint+0x148>
    2e2a: f0 03        	beq	$2e2f <getTotalLeft+0x91>
    2e2c: 4c 34 2e     	jmp	$2e34 <getTotalLeft+0x96>
    2e2f: e6 15        	inc	$15                     ; 0x2015 <textPrint+0x149>
    2e31: 4c 34 2e     	jmp	$2e34 <getTotalLeft+0x96>
    2e34: b1 12        	lda	($12),y                 ; 0x2012 <textPrint+0x146>
    2e36: 85 12        	sta	$12                     ; 0x2012 <textPrint+0x146>
    2e38: 8a           	txa
    2e39: d1 14        	cmp	($14),y                 ; 0x2014 <textPrint+0x148>
    2e3b: a2 01        	ldx	#$1
    2e3d: b0 02        	bcs	$2e41 <getTotalLeft+0xa3>
    2e3f: a2 00        	ldx	#$0
    2e41: 86 13        	stx	$13                     ; 0x2013 <textPrint+0x147>
    2e43: d1 14        	cmp	($14),y                 ; 0x2014 <textPrint+0x148>
    2e45: f0 02        	beq	$2e49 <getTotalLeft+0xab>
    2e47: 80 09        	bra	$2e52 <getTotalLeft+0xb4>
    2e49: a6 16        	ldx	$16                     ; 0x2016 <textPrint+0x14a>
    2e4b: e4 12        	cpx	$12                     ; 0x2012 <textPrint+0x146>
    2e4d: 90 0a        	bcc	$2e59 <getTotalLeft+0xbb>
    2e4f: 4c 2e 2f     	jmp	$2f2e <getTotalLeft+0x190>
    2e52: a5 13        	lda	$13                     ; 0x2013 <textPrint+0x147>
    2e54: f0 03        	beq	$2e59 <getTotalLeft+0xbb>
    2e56: 4c 2e 2f     	jmp	$2f2e <getTotalLeft+0x190>
    2e59: 80 00        	bra	$2e5b <getTotalLeft+0xbd>
    2e5b: 18           	clc
    2e5c: a5 10        	lda	$10                     ; 0x2010 <textPrint+0x144>
    2e5e: 69 06        	adc	#$6
    2e60: 85 12        	sta	$12                     ; 0x2012 <textPrint+0x146>
    2e62: a5 11        	lda	$11                     ; 0x2011 <textPrint+0x145>
    2e64: 69 00        	adc	#$0
    2e66: 85 13        	sta	$13                     ; 0x2013 <textPrint+0x147>
    2e68: b2 12        	lda	($12)                   ; 0x2012 <textPrint+0x146>
    2e6a: aa           	tax
    2e6b: a0 01        	ldy	#$1
    2e6d: b1 12        	lda	($12),y                 ; 0x2012 <textPrint+0x146>
    2e6f: 86 12        	stx	$12                     ; 0x2012 <textPrint+0x146>
    2e71: 85 13        	sta	$13                     ; 0x2013 <textPrint+0x147>
    2e73: 85 15        	sta	$15                     ; 0x2015 <textPrint+0x149>
    2e75: 18           	clc
    2e76: 8a           	txa
    2e77: 69 03        	adc	#$3
    2e79: 85 14        	sta	$14                     ; 0x2014 <textPrint+0x148>
    2e7b: a5 15        	lda	$15                     ; 0x2015 <textPrint+0x149>
    2e7d: 69 00        	adc	#$0
    2e7f: 85 15        	sta	$15                     ; 0x2015 <textPrint+0x149>
    2e81: 18           	clc
    2e82: a6 10        	ldx	$10                     ; 0x2010 <textPrint+0x144>
    2e84: 86 16        	stx	$16                     ; 0x2016 <textPrint+0x14a>
    2e86: a6 11        	ldx	$11                     ; 0x2011 <textPrint+0x145>
    2e88: 86 17        	stx	$17                     ; 0x2017 <textPrint+0x14b>
    2e8a: b2 16        	lda	($16)                   ; 0x2016 <textPrint+0x14a>
    2e8c: 85 19        	sta	$19                     ; 0x2019 <textPrint+0x14d>
    2e8e: b1 16        	lda	($16),y                 ; 0x2016 <textPrint+0x14a>
    2e90: 85 18        	sta	$18                     ; 0x2018 <textPrint+0x14c>
    2e92: 06 19        	asl	$19                     ; 0x2019 <textPrint+0x14d>
    2e94: 2a           	rol
    2e95: 06 19        	asl	$19                     ; 0x2019 <textPrint+0x14d>
    2e97: 2a           	rol
    2e98: 06 19        	asl	$19                     ; 0x2019 <textPrint+0x14d>
    2e9a: 2a           	rol
    2e9b: aa           	tax
    2e9c: 38           	sec
    2e9d: a5 19        	lda	$19                     ; 0x2019 <textPrint+0x14d>
    2e9f: f2 16        	sbc	($16)                   ; 0x2016 <textPrint+0x14a>
    2ea1: 85 16        	sta	$16                     ; 0x2016 <textPrint+0x14a>
    2ea3: 8a           	txa
    2ea4: e5 18        	sbc	$18                     ; 0x2018 <textPrint+0x14c>
    2ea6: aa           	tax
    2ea7: 18           	clc
    2ea8: a0 03        	ldy	#$3
    2eaa: a5 16        	lda	$16                     ; 0x2016 <textPrint+0x14a>
    2eac: 71 12        	adc	($12),y                 ; 0x2012 <textPrint+0x146>
    2eae: 85 12        	sta	$12                     ; 0x2012 <textPrint+0x146>
    2eb0: a0 01        	ldy	#$1
    2eb2: 8a           	txa
    2eb3: 71 14        	adc	($14),y                 ; 0x2014 <textPrint+0x148>
    2eb5: 85 13        	sta	$13                     ; 0x2013 <textPrint+0x147>
    2eb7: a6 12        	ldx	$12                     ; 0x2012 <textPrint+0x146>
    2eb9: 86 14        	stx	$14                     ; 0x2014 <textPrint+0x148>
    2ebb: 85 15        	sta	$15                     ; 0x2015 <textPrint+0x149>
    2ebd: e6 14        	inc	$14                     ; 0x2014 <textPrint+0x148>
    2ebf: f0 03        	beq	$2ec4 <getTotalLeft+0x126>
    2ec1: 4c c9 2e     	jmp	$2ec9 <getTotalLeft+0x12b>
    2ec4: e6 15        	inc	$15                     ; 0x2015 <textPrint+0x149>
    2ec6: 4c c9 2e     	jmp	$2ec9 <getTotalLeft+0x12b>
    2ec9: b1 12        	lda	($12),y                 ; 0x2012 <textPrint+0x146>
    2ecb: 85 16        	sta	$16                     ; 0x2016 <textPrint+0x14a>
    2ecd: 18           	clc
    2ece: a5 10        	lda	$10                     ; 0x2010 <textPrint+0x144>
    2ed0: 69 02        	adc	#$2
    2ed2: 85 12        	sta	$12                     ; 0x2012 <textPrint+0x146>
    2ed4: a5 11        	lda	$11                     ; 0x2011 <textPrint+0x145>
    2ed6: 69 00        	adc	#$0
    2ed8: 85 13        	sta	$13                     ; 0x2013 <textPrint+0x147>
    2eda: b1 14        	lda	($14),y                 ; 0x2014 <textPrint+0x148>
    2edc: 85 17        	sta	$17                     ; 0x2017 <textPrint+0x14b>
    2ede: a0 02        	ldy	#$2
    2ee0: b1 12        	lda	($12),y                 ; 0x2012 <textPrint+0x146>
    2ee2: 85 15        	sta	$15                     ; 0x2015 <textPrint+0x149>
    2ee4: c8           	iny
    2ee5: b1 12        	lda	($12),y                 ; 0x2012 <textPrint+0x146>
    2ee7: aa           	tax
    2ee8: 18           	clc
    2ee9: a5 16        	lda	$16                     ; 0x2016 <textPrint+0x14a>
    2eeb: 72 12        	adc	($12)                   ; 0x2012 <textPrint+0x146>
    2eed: 85 14        	sta	$14                     ; 0x2014 <textPrint+0x148>
    2eef: a5 17        	lda	$17                     ; 0x2017 <textPrint+0x14b>
    2ef1: a0 01        	ldy	#$1
    2ef3: 71 12        	adc	($12),y                 ; 0x2012 <textPrint+0x146>
    2ef5: 91 12        	sta	($12),y                 ; 0x2012 <textPrint+0x146>
    2ef7: a5 15        	lda	$15                     ; 0x2015 <textPrint+0x149>
    2ef9: 69 00        	adc	#$0
    2efb: c8           	iny
    2efc: 91 12        	sta	($12),y                 ; 0x2012 <textPrint+0x146>
    2efe: 8a           	txa
    2eff: 69 00        	adc	#$0
    2f01: c8           	iny
    2f02: 91 12        	sta	($12),y                 ; 0x2012 <textPrint+0x146>
    2f04: a5 14        	lda	$14                     ; 0x2014 <textPrint+0x148>
    2f06: 92 12        	sta	($12)                   ; 0x2012 <textPrint+0x146>
    2f08: 18           	clc
    2f09: a6 10        	ldx	$10                     ; 0x2010 <textPrint+0x144>
    2f0b: 86 12        	stx	$12                     ; 0x2012 <textPrint+0x146>
    2f0d: a6 11        	ldx	$11                     ; 0x2011 <textPrint+0x145>
    2f0f: 86 13        	stx	$13                     ; 0x2013 <textPrint+0x147>
    2f11: b2 12        	lda	($12)                   ; 0x2012 <textPrint+0x146>
    2f13: aa           	tax
    2f14: a0 01        	ldy	#$1
    2f16: b1 12        	lda	($12),y                 ; 0x2012 <textPrint+0x146>
    2f18: e8           	inx
    2f19: f0 03        	beq	$2f1e <getTotalLeft+0x180>
    2f1b: 4c 22 2f     	jmp	$2f22 <getTotalLeft+0x184>
    2f1e: 1a           	inc
    2f1f: 4c 22 2f     	jmp	$2f22 <getTotalLeft+0x184>
    2f22: 85 14        	sta	$14                     ; 0x2014 <textPrint+0x148>
    2f24: 8a           	txa
    2f25: 92 12        	sta	($12)                   ; 0x2012 <textPrint+0x146>
    2f27: a5 14        	lda	$14                     ; 0x2014 <textPrint+0x148>
    2f29: 91 12        	sta	($12),y                 ; 0x2012 <textPrint+0x146>
    2f2b: 4c f5 2d     	jmp	$2df5 <getTotalLeft+0x57>
    2f2e: 18           	clc
    2f2f: a5 10        	lda	$10                     ; 0x2010 <textPrint+0x144>
    2f31: 69 02        	adc	#$2
    2f33: 85 16        	sta	$16                     ; 0x2016 <textPrint+0x14a>
    2f35: a5 11        	lda	$11                     ; 0x2011 <textPrint+0x145>
    2f37: 69 00        	adc	#$0
    2f39: 85 17        	sta	$17                     ; 0x2017 <textPrint+0x14b>
    2f3b: b2 16        	lda	($16)                   ; 0x2016 <textPrint+0x14a>
    2f3d: 85 14        	sta	$14                     ; 0x2014 <textPrint+0x148>
    2f3f: a0 01        	ldy	#$1
    2f41: b1 16        	lda	($16),y                 ; 0x2016 <textPrint+0x14a>
    2f43: aa           	tax
    2f44: c8           	iny
    2f45: b1 16        	lda	($16),y                 ; 0x2016 <textPrint+0x14a>
    2f47: 85 12        	sta	$12                     ; 0x2012 <textPrint+0x146>
    2f49: c8           	iny
    2f4a: b1 16        	lda	($16),y                 ; 0x2016 <textPrint+0x14a>
    2f4c: 85 13        	sta	$13                     ; 0x2013 <textPrint+0x147>
    2f4e: a5 14        	lda	$14                     ; 0x2014 <textPrint+0x148>
    2f50: 48           	pha
    2f51: 18           	clc
    2f52: a5 10        	lda	$10                     ; 0x2010 <textPrint+0x144>
    2f54: 69 08        	adc	#$8
    2f56: 85 10        	sta	$10                     ; 0x2010 <textPrint+0x144>
    2f58: a5 11        	lda	$11                     ; 0x2011 <textPrint+0x145>
    2f5a: 69 00        	adc	#$0
    2f5c: 85 11        	sta	$11                     ; 0x2011 <textPrint+0x145>
    2f5e: 68           	pla
    2f5f: 60           	rts

00002f60 <checkKeySkip>:
    2f60: 18           	clc
    2f61: a5 10        	lda	$10                     ; 0x2010 <textPrint+0x144>
    2f63: 69 fc        	adc	#$fc
    2f65: 85 10        	sta	$10                     ; 0x2010 <textPrint+0x144>
    2f67: a5 11        	lda	$11                     ; 0x2011 <textPrint+0x145>
    2f69: 69 ff        	adc	#$ff
    2f6b: 85 11        	sta	$11                     ; 0x2011 <textPrint+0x145>
    2f6d: a2 08        	ldx	#$8
    2f6f: 86 12        	stx	$12                     ; 0x2012 <textPrint+0x146>
    2f71: a2 00        	ldx	#$0
    2f73: 86 13        	stx	$13                     ; 0x2013 <textPrint+0x147>
    2f75: a2 00        	ldx	#$0
    2f77: 64 4d        	stz	$4d                     ; 0x204d <textPrint+0x181>
    2f79: 18           	clc
    2f7a: a5 10        	lda	$10                     ; 0x2010 <textPrint+0x144>
    2f7c: 69 01        	adc	#$1
    2f7e: 85 14        	sta	$14                     ; 0x2014 <textPrint+0x148>
    2f80: a5 11        	lda	$11                     ; 0x2011 <textPrint+0x145>
    2f82: 69 00        	adc	#$0
    2f84: 85 15        	sta	$15                     ; 0x2015 <textPrint+0x149>
    2f86: a0 f3        	ldy	#$f3
    2f88: 84 16        	sty	$16                     ; 0x2016 <textPrint+0x14a>
    2f8a: a0 6a        	ldy	#$6a
    2f8c: 84 17        	sty	$17                     ; 0x2017 <textPrint+0x14b>
    2f8e: 20 00 ff     	jsr	$ff00 <end_block9+0x940c>
    2f91: 92 14        	sta	($14)                   ; 0x2014 <textPrint+0x148>
    2f93: a9 00        	lda	#$0
    2f95: 6a           	ror
    2f96: 85 16        	sta	$16                     ; 0x2016 <textPrint+0x14a>
    2f98: b2 14        	lda	($14)                   ; 0x2014 <textPrint+0x148>
    2f9a: 18           	clc
    2f9b: a4 10        	ldy	$10                     ; 0x2010 <textPrint+0x144>
    2f9d: 84 14        	sty	$14                     ; 0x2014 <textPrint+0x148>
    2f9f: a4 11        	ldy	$11                     ; 0x2011 <textPrint+0x145>
    2fa1: 84 15        	sty	$15                     ; 0x2015 <textPrint+0x149>
    2fa3: 92 14        	sta	($14)                   ; 0x2014 <textPrint+0x148>
    2fa5: b2 14        	lda	($14)                   ; 0x2014 <textPrint+0x148>
    2fa7: 18           	clc
    2fa8: 48           	pha
    2fa9: a5 10        	lda	$10                     ; 0x2010 <textPrint+0x144>
    2fab: 69 02        	adc	#$2
    2fad: 85 14        	sta	$14                     ; 0x2014 <textPrint+0x148>
    2faf: a5 11        	lda	$11                     ; 0x2011 <textPrint+0x145>
    2fb1: 69 00        	adc	#$0
    2fb3: 85 15        	sta	$15                     ; 0x2015 <textPrint+0x149>
    2fb5: 68           	pla
    2fb6: 92 14        	sta	($14)                   ; 0x2014 <textPrint+0x148>
    2fb8: a4 4d        	ldy	$4d                     ; 0x204d <textPrint+0x181>
    2fba: e4 13        	cpx	$13                     ; 0x2013 <textPrint+0x147>
    2fbc: f0 02        	beq	$2fc0 <checkKeySkip+0x60>
    2fbe: 80 0c        	bra	$2fcc <checkKeySkip+0x6c>
    2fc0: c4 12        	cpy	$12                     ; 0x2012 <textPrint+0x146>
    2fc2: f0 02        	beq	$2fc6 <checkKeySkip+0x66>
    2fc4: 80 02        	bra	$2fc8 <checkKeySkip+0x68>
    2fc6: 80 02        	bra	$2fca <checkKeySkip+0x6a>
    2fc8: 80 19        	bra	$2fe3 <checkKeySkip+0x83>
    2fca: 80 02        	bra	$2fce <checkKeySkip+0x6e>
    2fcc: 80 15        	bra	$2fe3 <checkKeySkip+0x83>
    2fce: 80 00        	bra	$2fd0 <checkKeySkip+0x70>
    2fd0: 18           	clc
    2fd1: a5 10        	lda	$10                     ; 0x2010 <textPrint+0x144>
    2fd3: 69 03        	adc	#$3
    2fd5: 85 12        	sta	$12                     ; 0x2012 <textPrint+0x146>
    2fd7: a5 11        	lda	$11                     ; 0x2011 <textPrint+0x145>
    2fd9: 69 00        	adc	#$0
    2fdb: 85 13        	sta	$13                     ; 0x2013 <textPrint+0x147>
    2fdd: a9 01        	lda	#$1
    2fdf: 92 12        	sta	($12)                   ; 0x2012 <textPrint+0x146>
    2fe1: 80 11        	bra	$2ff4 <checkKeySkip+0x94>
    2fe3: 18           	clc
    2fe4: a5 10        	lda	$10                     ; 0x2010 <textPrint+0x144>
    2fe6: 69 03        	adc	#$3
    2fe8: 85 12        	sta	$12                     ; 0x2012 <textPrint+0x146>
    2fea: a5 11        	lda	$11                     ; 0x2011 <textPrint+0x145>
    2fec: 69 00        	adc	#$0
    2fee: 85 13        	sta	$13                     ; 0x2013 <textPrint+0x147>
    2ff0: a9 00        	lda	#$0
    2ff2: 92 12        	sta	($12)                   ; 0x2012 <textPrint+0x146>
    2ff4: 18           	clc
    2ff5: a5 10        	lda	$10                     ; 0x2010 <textPrint+0x144>
    2ff7: 69 03        	adc	#$3
    2ff9: 85 12        	sta	$12                     ; 0x2012 <textPrint+0x146>
    2ffb: a5 11        	lda	$11                     ; 0x2011 <textPrint+0x145>
    2ffd: 69 00        	adc	#$0
    2fff: 85 13        	sta	$13                     ; 0x2013 <textPrint+0x147>
    3001: b2 12        	lda	($12)                   ; 0x2012 <textPrint+0x146>
    3003: 48           	pha
    3004: 18           	clc
    3005: a5 10        	lda	$10                     ; 0x2010 <textPrint+0x144>
    3007: 69 04        	adc	#$4
    3009: 85 10        	sta	$10                     ; 0x2010 <textPrint+0x144>
    300b: a5 11        	lda	$11                     ; 0x2011 <textPrint+0x145>
    300d: 69 00        	adc	#$0
    300f: 85 11        	sta	$11                     ; 0x2011 <textPrint+0x145>
    3011: 68           	pla
    3012: 60           	rts

00003013 <sendAME>:
    3013: 18           	clc
    3014: a5 10        	lda	$10                     ; 0x2010 <textPrint+0x144>
    3016: 69 fd        	adc	#$fd
    3018: 85 10        	sta	$10                     ; 0x2010 <textPrint+0x144>
    301a: a5 11        	lda	$11                     ; 0x2011 <textPrint+0x145>
    301c: 69 ff        	adc	#$ff
    301e: 85 11        	sta	$11                     ; 0x2011 <textPrint+0x145>
    3020: a5 12        	lda	$12                     ; 0x2012 <textPrint+0x146>
    3022: a6 13        	ldx	$13                     ; 0x2013 <textPrint+0x147>
    3024: 18           	clc
    3025: 48           	pha
    3026: a5 10        	lda	$10                     ; 0x2010 <textPrint+0x144>
    3028: 69 01        	adc	#$1
    302a: 85 12        	sta	$12                     ; 0x2012 <textPrint+0x146>
    302c: a5 11        	lda	$11                     ; 0x2011 <textPrint+0x145>
    302e: 69 00        	adc	#$0
    3030: 85 13        	sta	$13                     ; 0x2013 <textPrint+0x147>
    3032: 68           	pla
    3033: 92 12        	sta	($12)                   ; 0x2012 <textPrint+0x146>
    3035: a0 01        	ldy	#$1
    3037: 8a           	txa
    3038: 91 12        	sta	($12),y                 ; 0x2012 <textPrint+0x146>
    303a: 18           	clc
    303b: a6 10        	ldx	$10                     ; 0x2010 <textPrint+0x144>
    303d: 86 14        	stx	$14                     ; 0x2014 <textPrint+0x148>
    303f: a6 11        	ldx	$11                     ; 0x2011 <textPrint+0x145>
    3041: 86 15        	stx	$15                     ; 0x2015 <textPrint+0x149>
    3043: a9 00        	lda	#$0
    3045: 92 14        	sta	($14)                   ; 0x2014 <textPrint+0x148>
    3047: b2 12        	lda	($12)                   ; 0x2012 <textPrint+0x146>
    3049: aa           	tax
    304a: b1 12        	lda	($12),y                 ; 0x2012 <textPrint+0x146>
    304c: 86 12        	stx	$12                     ; 0x2012 <textPrint+0x146>
    304e: 85 13        	sta	$13                     ; 0x2013 <textPrint+0x147>
    3050: a0 05        	ldy	#$5
    3052: b1 12        	lda	($12),y                 ; 0x2012 <textPrint+0x146>
    3054: 85 16        	sta	$16                     ; 0x2016 <textPrint+0x14a>
    3056: b2 14        	lda	($14)                   ; 0x2014 <textPrint+0x148>
    3058: f0 02        	beq	$305c <sendAME+0x49>
    305a: 80 02        	bra	$305e <sendAME+0x4b>
    305c: 80 04        	bra	$3062 <sendAME+0x4f>
    305e: 80 00        	bra	$3060 <sendAME+0x4d>
    3060: 80 02        	bra	$3064 <sendAME+0x51>
    3062: 80 02        	bra	$3066 <sendAME+0x53>
    3064: 80 02        	bra	$3068 <sendAME+0x55>
    3066: 80 06        	bra	$306e <sendAME+0x5b>
    3068: a2 b1        	ldx	#$b1
    306a: 86 12        	stx	$12                     ; 0x2012 <textPrint+0x146>
    306c: 80 06        	bra	$3074 <sendAME+0x61>
    306e: a2 a1        	ldx	#$a1
    3070: 86 12        	stx	$12                     ; 0x2012 <textPrint+0x146>
    3072: 80 00        	bra	$3074 <sendAME+0x61>
    3074: a2 dd        	ldx	#$dd
    3076: 86 13        	stx	$13                     ; 0x2013 <textPrint+0x147>
    3078: a5 16        	lda	$16                     ; 0x2016 <textPrint+0x14a>
    307a: 92 12        	sta	($12)                   ; 0x2012 <textPrint+0x146>
    307c: 18           	clc
    307d: a5 10        	lda	$10                     ; 0x2010 <textPrint+0x144>
    307f: 69 01        	adc	#$1
    3081: 85 12        	sta	$12                     ; 0x2012 <textPrint+0x146>
    3083: a5 11        	lda	$11                     ; 0x2011 <textPrint+0x145>
    3085: 69 00        	adc	#$0
    3087: 85 13        	sta	$13                     ; 0x2013 <textPrint+0x147>
    3089: b2 12        	lda	($12)                   ; 0x2012 <textPrint+0x146>
    308b: aa           	tax
    308c: a0 01        	ldy	#$1
    308e: b1 12        	lda	($12),y                 ; 0x2012 <textPrint+0x146>
    3090: 86 12        	stx	$12                     ; 0x2012 <textPrint+0x146>
    3092: 85 13        	sta	$13                     ; 0x2013 <textPrint+0x147>
    3094: a0 06        	ldy	#$6
    3096: b1 12        	lda	($12),y                 ; 0x2012 <textPrint+0x146>
    3098: 85 14        	sta	$14                     ; 0x2014 <textPrint+0x148>
    309a: 18           	clc
    309b: a6 10        	ldx	$10                     ; 0x2010 <textPrint+0x144>
    309d: 86 12        	stx	$12                     ; 0x2012 <textPrint+0x146>
    309f: a6 11        	ldx	$11                     ; 0x2011 <textPrint+0x145>
    30a1: 86 13        	stx	$13                     ; 0x2013 <textPrint+0x147>
    30a3: b2 12        	lda	($12)                   ; 0x2012 <textPrint+0x146>
    30a5: f0 02        	beq	$30a9 <sendAME+0x96>
    30a7: 80 02        	bra	$30ab <sendAME+0x98>
    30a9: 80 04        	bra	$30af <sendAME+0x9c>
    30ab: 80 00        	bra	$30ad <sendAME+0x9a>
    30ad: 80 02        	bra	$30b1 <sendAME+0x9e>
    30af: 80 02        	bra	$30b3 <sendAME+0xa0>
    30b1: 80 02        	bra	$30b5 <sendAME+0xa2>
    30b3: 80 06        	bra	$30bb <sendAME+0xa8>
    30b5: a2 b1        	ldx	#$b1
    30b7: 86 12        	stx	$12                     ; 0x2012 <textPrint+0x146>
    30b9: 80 06        	bra	$30c1 <sendAME+0xae>
    30bb: a2 a1        	ldx	#$a1
    30bd: 86 12        	stx	$12                     ; 0x2012 <textPrint+0x146>
    30bf: 80 00        	bra	$30c1 <sendAME+0xae>
    30c1: a2 dd        	ldx	#$dd
    30c3: 86 13        	stx	$13                     ; 0x2013 <textPrint+0x147>
    30c5: a5 14        	lda	$14                     ; 0x2014 <textPrint+0x148>
    30c7: 92 12        	sta	($12)                   ; 0x2012 <textPrint+0x146>
    30c9: 18           	clc
    30ca: a5 10        	lda	$10                     ; 0x2010 <textPrint+0x144>
    30cc: 69 01        	adc	#$1
    30ce: 85 12        	sta	$12                     ; 0x2012 <textPrint+0x146>
    30d0: a5 11        	lda	$11                     ; 0x2011 <textPrint+0x145>
    30d2: 69 00        	adc	#$0
    30d4: 85 13        	sta	$13                     ; 0x2013 <textPrint+0x147>
    30d6: b2 12        	lda	($12)                   ; 0x2012 <textPrint+0x146>
    30d8: aa           	tax
    30d9: a0 01        	ldy	#$1
    30db: b1 12        	lda	($12),y                 ; 0x2012 <textPrint+0x146>
    30dd: 86 12        	stx	$12                     ; 0x2012 <textPrint+0x146>
    30df: 85 13        	sta	$13                     ; 0x2013 <textPrint+0x147>
    30e1: a0 04        	ldy	#$4
    30e3: b1 12        	lda	($12),y                 ; 0x2012 <textPrint+0x146>
    30e5: c9 03        	cmp	#$3
    30e7: f0 02        	beq	$30eb <sendAME+0xd8>
    30e9: 80 02        	bra	$30ed <sendAME+0xda>
    30eb: 80 02        	bra	$30ef <sendAME+0xdc>
    30ed: 80 4f        	bra	$313e <sendAME+0x12b>
    30ef: 80 00        	bra	$30f1 <sendAME+0xde>
    30f1: 18           	clc
    30f2: a5 10        	lda	$10                     ; 0x2010 <textPrint+0x144>
    30f4: 69 01        	adc	#$1
    30f6: 85 12        	sta	$12                     ; 0x2012 <textPrint+0x146>
    30f8: a5 11        	lda	$11                     ; 0x2011 <textPrint+0x145>
    30fa: 69 00        	adc	#$0
    30fc: 85 13        	sta	$13                     ; 0x2013 <textPrint+0x147>
    30fe: b2 12        	lda	($12)                   ; 0x2012 <textPrint+0x146>
    3100: aa           	tax
    3101: a0 01        	ldy	#$1
    3103: b1 12        	lda	($12),y                 ; 0x2012 <textPrint+0x146>
    3105: 86 12        	stx	$12                     ; 0x2012 <textPrint+0x146>
    3107: 85 13        	sta	$13                     ; 0x2013 <textPrint+0x147>
    3109: a0 07        	ldy	#$7
    310b: b1 12        	lda	($12),y                 ; 0x2012 <textPrint+0x146>
    310d: 85 14        	sta	$14                     ; 0x2014 <textPrint+0x148>
    310f: 18           	clc
    3110: a6 10        	ldx	$10                     ; 0x2010 <textPrint+0x144>
    3112: 86 12        	stx	$12                     ; 0x2012 <textPrint+0x146>
    3114: a6 11        	ldx	$11                     ; 0x2011 <textPrint+0x145>
    3116: 86 13        	stx	$13                     ; 0x2013 <textPrint+0x147>
    3118: b2 12        	lda	($12)                   ; 0x2012 <textPrint+0x146>
    311a: f0 02        	beq	$311e <sendAME+0x10b>
    311c: 80 02        	bra	$3120 <sendAME+0x10d>
    311e: 80 04        	bra	$3124 <sendAME+0x111>
    3120: 80 00        	bra	$3122 <sendAME+0x10f>
    3122: 80 02        	bra	$3126 <sendAME+0x113>
    3124: 80 02        	bra	$3128 <sendAME+0x115>
    3126: 80 02        	bra	$312a <sendAME+0x117>
    3128: 80 06        	bra	$3130 <sendAME+0x11d>
    312a: a2 b1        	ldx	#$b1
    312c: 86 12        	stx	$12                     ; 0x2012 <textPrint+0x146>
    312e: 80 06        	bra	$3136 <sendAME+0x123>
    3130: a2 a1        	ldx	#$a1
    3132: 86 12        	stx	$12                     ; 0x2012 <textPrint+0x146>
    3134: 80 00        	bra	$3136 <sendAME+0x123>
    3136: a2 dd        	ldx	#$dd
    3138: 86 13        	stx	$13                     ; 0x2013 <textPrint+0x147>
    313a: a5 14        	lda	$14                     ; 0x2014 <textPrint+0x148>
    313c: 92 12        	sta	($12)                   ; 0x2012 <textPrint+0x146>
    313e: 18           	clc
    313f: a5 10        	lda	$10                     ; 0x2010 <textPrint+0x144>
    3141: 69 03        	adc	#$3
    3143: 85 10        	sta	$10                     ; 0x2010 <textPrint+0x144>
    3145: a5 11        	lda	$11                     ; 0x2011 <textPrint+0x145>
    3147: 69 00        	adc	#$0
    3149: 85 11        	sta	$11                     ; 0x2011 <textPrint+0x145>
    314b: 60           	rts

0000314c <adjustOffsets>:
    314c: 18           	clc
    314d: a5 10        	lda	$10                     ; 0x2010 <textPrint+0x144>
    314f: 69 f6        	adc	#$f6
    3151: 85 10        	sta	$10                     ; 0x2010 <textPrint+0x144>
    3153: a5 11        	lda	$11                     ; 0x2011 <textPrint+0x145>
    3155: 69 ff        	adc	#$ff
    3157: 85 11        	sta	$11                     ; 0x2011 <textPrint+0x145>
    3159: a5 12        	lda	$12                     ; 0x2012 <textPrint+0x146>
    315b: a6 13        	ldx	$13                     ; 0x2013 <textPrint+0x147>
    315d: 18           	clc
    315e: 48           	pha
    315f: a5 10        	lda	$10                     ; 0x2010 <textPrint+0x144>
    3161: 69 08        	adc	#$8
    3163: 85 12        	sta	$12                     ; 0x2012 <textPrint+0x146>
    3165: a5 11        	lda	$11                     ; 0x2011 <textPrint+0x145>
    3167: 69 00        	adc	#$0
    3169: 85 13        	sta	$13                     ; 0x2013 <textPrint+0x147>
    316b: 68           	pla
    316c: 92 12        	sta	($12)                   ; 0x2012 <textPrint+0x146>
    316e: a0 01        	ldy	#$1
    3170: 8a           	txa
    3171: 91 12        	sta	($12),y                 ; 0x2012 <textPrint+0x146>
    3173: 18           	clc
    3174: a5 10        	lda	$10                     ; 0x2010 <textPrint+0x144>
    3176: 69 06        	adc	#$6
    3178: 85 12        	sta	$12                     ; 0x2012 <textPrint+0x146>
    317a: a5 11        	lda	$11                     ; 0x2011 <textPrint+0x145>
    317c: 69 00        	adc	#$0
    317e: 85 13        	sta	$13                     ; 0x2013 <textPrint+0x147>
    3180: a9 00        	lda	#$0
    3182: 92 12        	sta	($12)                   ; 0x2012 <textPrint+0x146>
    3184: 91 12        	sta	($12),y                 ; 0x2012 <textPrint+0x146>
    3186: 18           	clc
    3187: 48           	pha
    3188: a5 10        	lda	$10                     ; 0x2010 <textPrint+0x144>
    318a: 69 04        	adc	#$4
    318c: 85 14        	sta	$14                     ; 0x2014 <textPrint+0x148>
    318e: a5 11        	lda	$11                     ; 0x2011 <textPrint+0x145>
    3190: 69 00        	adc	#$0
    3192: 85 15        	sta	$15                     ; 0x2015 <textPrint+0x149>
    3194: 68           	pla
    3195: 92 14        	sta	($14)                   ; 0x2014 <textPrint+0x148>
    3197: 91 14        	sta	($14),y                 ; 0x2014 <textPrint+0x148>
    3199: 18           	clc
    319a: a6 10        	ldx	$10                     ; 0x2010 <textPrint+0x144>
    319c: 86 14        	stx	$14                     ; 0x2014 <textPrint+0x148>
    319e: a6 11        	ldx	$11                     ; 0x2011 <textPrint+0x145>
    31a0: 86 15        	stx	$15                     ; 0x2015 <textPrint+0x149>
    31a2: a9 00        	lda	#$0
    31a4: 92 14        	sta	($14)                   ; 0x2014 <textPrint+0x148>
    31a6: a9 00        	lda	#$0
    31a8: 91 14        	sta	($14),y                 ; 0x2014 <textPrint+0x148>
    31aa: c8           	iny
    31ab: 91 14        	sta	($14),y                 ; 0x2014 <textPrint+0x148>
    31ad: a9 00        	lda	#$0
    31af: c8           	iny
    31b0: 91 14        	sta	($14),y                 ; 0x2014 <textPrint+0x148>
    31b2: a9 00        	lda	#$0
    31b4: 92 12        	sta	($12)                   ; 0x2012 <textPrint+0x146>
    31b6: a0 01        	ldy	#$1
    31b8: 91 12        	sta	($12),y                 ; 0x2012 <textPrint+0x146>
    31ba: 18           	clc
    31bb: a5 10        	lda	$10                     ; 0x2010 <textPrint+0x144>
    31bd: 69 06        	adc	#$6
    31bf: 85 12        	sta	$12                     ; 0x2012 <textPrint+0x146>
    31c1: a5 11        	lda	$11                     ; 0x2011 <textPrint+0x145>
    31c3: 69 00        	adc	#$0
    31c5: 85 13        	sta	$13                     ; 0x2013 <textPrint+0x147>
    31c7: b2 12        	lda	($12)                   ; 0x2012 <textPrint+0x146>
    31c9: 85 16        	sta	$16                     ; 0x2016 <textPrint+0x14a>
    31cb: a0 01        	ldy	#$1
    31cd: b1 12        	lda	($12),y                 ; 0x2012 <textPrint+0x146>
    31cf: aa           	tax
    31d0: 18           	clc
    31d1: a5 10        	lda	$10                     ; 0x2010 <textPrint+0x144>
    31d3: 69 08        	adc	#$8
    31d5: 85 12        	sta	$12                     ; 0x2012 <textPrint+0x146>
    31d7: a5 11        	lda	$11                     ; 0x2011 <textPrint+0x145>
    31d9: 69 00        	adc	#$0
    31db: 85 13        	sta	$13                     ; 0x2013 <textPrint+0x147>
    31dd: b2 12        	lda	($12)                   ; 0x2012 <textPrint+0x146>
    31df: 85 14        	sta	$14                     ; 0x2014 <textPrint+0x148>
    31e1: b1 12        	lda	($12),y                 ; 0x2012 <textPrint+0x146>
    31e3: 5a           	phy
    31e4: a4 14        	ldy	$14                     ; 0x2014 <textPrint+0x148>
    31e6: 84 12        	sty	$12                     ; 0x2012 <textPrint+0x146>
    31e8: 85 13        	sta	$13                     ; 0x2013 <textPrint+0x147>
    31ea: a4 12        	ldy	$12                     ; 0x2012 <textPrint+0x146>
    31ec: 84 14        	sty	$14                     ; 0x2014 <textPrint+0x148>
    31ee: 7a           	ply
    31ef: 85 15        	sta	$15                     ; 0x2015 <textPrint+0x149>
    31f1: e6 14        	inc	$14                     ; 0x2014 <textPrint+0x148>
    31f3: f0 03        	beq	$31f8 <adjustOffsets+0xac>
    31f5: 4c fd 31     	jmp	$31fd <adjustOffsets+0xb1>
    31f8: e6 15        	inc	$15                     ; 0x2015 <textPrint+0x149>
    31fa: 4c fd 31     	jmp	$31fd <adjustOffsets+0xb1>
    31fd: b1 12        	lda	($12),y                 ; 0x2012 <textPrint+0x146>
    31ff: 85 12        	sta	$12                     ; 0x2012 <textPrint+0x146>
    3201: 8a           	txa
    3202: d1 14        	cmp	($14),y                 ; 0x2014 <textPrint+0x148>
    3204: a2 01        	ldx	#$1
    3206: b0 02        	bcs	$320a <adjustOffsets+0xbe>
    3208: a2 00        	ldx	#$0
    320a: 86 13        	stx	$13                     ; 0x2013 <textPrint+0x147>
    320c: d1 14        	cmp	($14),y                 ; 0x2014 <textPrint+0x148>
    320e: f0 02        	beq	$3212 <adjustOffsets+0xc6>
    3210: 80 09        	bra	$321b <adjustOffsets+0xcf>
    3212: a6 16        	ldx	$16                     ; 0x2016 <textPrint+0x14a>
    3214: e4 12        	cpx	$12                     ; 0x2012 <textPrint+0x146>
    3216: 90 0a        	bcc	$3222 <adjustOffsets+0xd6>
    3218: 4c b9 34     	jmp	$34b9 <adjustOffsets+0x36d>
    321b: a5 13        	lda	$13                     ; 0x2013 <textPrint+0x147>
    321d: f0 03        	beq	$3222 <adjustOffsets+0xd6>
    321f: 4c b9 34     	jmp	$34b9 <adjustOffsets+0x36d>
    3222: 80 00        	bra	$3224 <adjustOffsets+0xd8>
    3224: 18           	clc
    3225: a5 10        	lda	$10                     ; 0x2010 <textPrint+0x144>
    3227: 69 08        	adc	#$8
    3229: 85 12        	sta	$12                     ; 0x2012 <textPrint+0x146>
    322b: a5 11        	lda	$11                     ; 0x2011 <textPrint+0x145>
    322d: 69 00        	adc	#$0
    322f: 85 13        	sta	$13                     ; 0x2013 <textPrint+0x147>
    3231: b2 12        	lda	($12)                   ; 0x2012 <textPrint+0x146>
    3233: aa           	tax
    3234: a0 01        	ldy	#$1
    3236: b1 12        	lda	($12),y                 ; 0x2012 <textPrint+0x146>
    3238: a0 01        	ldy	#$1
    323a: 86 12        	stx	$12                     ; 0x2012 <textPrint+0x146>
    323c: 85 13        	sta	$13                     ; 0x2013 <textPrint+0x147>
    323e: 85 15        	sta	$15                     ; 0x2015 <textPrint+0x149>
    3240: 18           	clc
    3241: 8a           	txa
    3242: 69 03        	adc	#$3
    3244: 85 14        	sta	$14                     ; 0x2014 <textPrint+0x148>
    3246: a5 15        	lda	$15                     ; 0x2015 <textPrint+0x149>
    3248: 69 00        	adc	#$0
    324a: 85 15        	sta	$15                     ; 0x2015 <textPrint+0x149>
    324c: 18           	clc
    324d: a5 10        	lda	$10                     ; 0x2010 <textPrint+0x144>
    324f: 69 06        	adc	#$6
    3251: 85 16        	sta	$16                     ; 0x2016 <textPrint+0x14a>
    3253: a5 11        	lda	$11                     ; 0x2011 <textPrint+0x145>
    3255: 69 00        	adc	#$0
    3257: 85 17        	sta	$17                     ; 0x2017 <textPrint+0x14b>
    3259: b2 16        	lda	($16)                   ; 0x2016 <textPrint+0x14a>
    325b: 85 19        	sta	$19                     ; 0x2019 <textPrint+0x14d>
    325d: b1 16        	lda	($16),y                 ; 0x2016 <textPrint+0x14a>
    325f: 85 18        	sta	$18                     ; 0x2018 <textPrint+0x14c>
    3261: 06 19        	asl	$19                     ; 0x2019 <textPrint+0x14d>
    3263: 2a           	rol
    3264: 06 19        	asl	$19                     ; 0x2019 <textPrint+0x14d>
    3266: 2a           	rol
    3267: 06 19        	asl	$19                     ; 0x2019 <textPrint+0x14d>
    3269: 2a           	rol
    326a: aa           	tax
    326b: 38           	sec
    326c: a5 19        	lda	$19                     ; 0x2019 <textPrint+0x14d>
    326e: f2 16        	sbc	($16)                   ; 0x2016 <textPrint+0x14a>
    3270: 85 16        	sta	$16                     ; 0x2016 <textPrint+0x14a>
    3272: 8a           	txa
    3273: e5 18        	sbc	$18                     ; 0x2018 <textPrint+0x14c>
    3275: 85 17        	sta	$17                     ; 0x2017 <textPrint+0x14b>
    3277: 18           	clc
    3278: a0 03        	ldy	#$3
    327a: a5 16        	lda	$16                     ; 0x2016 <textPrint+0x14a>
    327c: 71 12        	adc	($12),y                 ; 0x2012 <textPrint+0x146>
    327e: aa           	tax
    327f: a5 17        	lda	$17                     ; 0x2017 <textPrint+0x14b>
    3281: a0 01        	ldy	#$1
    3283: 71 14        	adc	($14),y                 ; 0x2014 <textPrint+0x148>
    3285: 86 12        	stx	$12                     ; 0x2012 <textPrint+0x146>
    3287: 85 13        	sta	$13                     ; 0x2013 <textPrint+0x147>
    3289: a8           	tay
    328a: 18           	clc
    328b: 8a           	txa
    328c: 69 03        	adc	#$3
    328e: 85 14        	sta	$14                     ; 0x2014 <textPrint+0x148>
    3290: 98           	tya
    3291: 69 00        	adc	#$0
    3293: a0 02        	ldy	#$2
    3295: 85 15        	sta	$15                     ; 0x2015 <textPrint+0x149>
    3297: a9 00        	lda	#$0
    3299: 91 14        	sta	($14),y                 ; 0x2014 <textPrint+0x148>
    329b: c8           	iny
    329c: 91 12        	sta	($12),y                 ; 0x2012 <textPrint+0x146>
    329e: a0 01        	ldy	#$1
    32a0: 91 14        	sta	($14),y                 ; 0x2014 <textPrint+0x148>
    32a2: a0 03        	ldy	#$3
    32a4: 91 14        	sta	($14),y                 ; 0x2014 <textPrint+0x148>
    32a6: 18           	clc
    32a7: a5 10        	lda	$10                     ; 0x2010 <textPrint+0x144>
    32a9: 69 04        	adc	#$4
    32ab: 85 12        	sta	$12                     ; 0x2012 <textPrint+0x146>
    32ad: a5 11        	lda	$11                     ; 0x2011 <textPrint+0x145>
    32af: 69 00        	adc	#$0
    32b1: 85 13        	sta	$13                     ; 0x2013 <textPrint+0x147>
    32b3: a9 00        	lda	#$0
    32b5: a0 01        	ldy	#$1
    32b7: 91 12        	sta	($12),y                 ; 0x2012 <textPrint+0x146>
    32b9: 92 12        	sta	($12)                   ; 0x2012 <textPrint+0x146>
    32bb: 18           	clc
    32bc: a5 10        	lda	$10                     ; 0x2010 <textPrint+0x144>
    32be: 69 04        	adc	#$4
    32c0: 85 12        	sta	$12                     ; 0x2012 <textPrint+0x146>
    32c2: a5 11        	lda	$11                     ; 0x2011 <textPrint+0x145>
    32c4: 69 00        	adc	#$0
    32c6: 85 13        	sta	$13                     ; 0x2013 <textPrint+0x147>
    32c8: b2 12        	lda	($12)                   ; 0x2012 <textPrint+0x146>
    32ca: 85 16        	sta	$16                     ; 0x2016 <textPrint+0x14a>
    32cc: a0 01        	ldy	#$1
    32ce: b1 12        	lda	($12),y                 ; 0x2012 <textPrint+0x146>
    32d0: aa           	tax
    32d1: 18           	clc
    32d2: a5 10        	lda	$10                     ; 0x2010 <textPrint+0x144>
    32d4: 69 06        	adc	#$6
    32d6: 85 14        	sta	$14                     ; 0x2014 <textPrint+0x148>
    32d8: a5 11        	lda	$11                     ; 0x2011 <textPrint+0x145>
    32da: 69 00        	adc	#$0
    32dc: 85 15        	sta	$15                     ; 0x2015 <textPrint+0x149>
    32de: b2 14        	lda	($14)                   ; 0x2014 <textPrint+0x148>
    32e0: 85 12        	sta	$12                     ; 0x2012 <textPrint+0x146>
    32e2: 8a           	txa
    32e3: d1 14        	cmp	($14),y                 ; 0x2014 <textPrint+0x148>
    32e5: a2 01        	ldx	#$1
    32e7: b0 02        	bcs	$32eb <adjustOffsets+0x19f>
    32e9: a2 00        	ldx	#$0
    32eb: 86 13        	stx	$13                     ; 0x2013 <textPrint+0x147>
    32ed: d1 14        	cmp	($14),y                 ; 0x2014 <textPrint+0x148>
    32ef: f0 02        	beq	$32f3 <adjustOffsets+0x1a7>
    32f1: 80 09        	bra	$32fc <adjustOffsets+0x1b0>
    32f3: a6 16        	ldx	$16                     ; 0x2016 <textPrint+0x14a>
    32f5: e4 12        	cpx	$12                     ; 0x2012 <textPrint+0x146>
    32f7: 90 0a        	bcc	$3303 <adjustOffsets+0x1b7>
    32f9: 4c 8f 34     	jmp	$348f <adjustOffsets+0x343>
    32fc: a5 13        	lda	$13                     ; 0x2013 <textPrint+0x147>
    32fe: f0 03        	beq	$3303 <adjustOffsets+0x1b7>
    3300: 4c 8f 34     	jmp	$348f <adjustOffsets+0x343>
    3303: 80 00        	bra	$3305 <adjustOffsets+0x1b9>
    3305: 18           	clc
    3306: a5 10        	lda	$10                     ; 0x2010 <textPrint+0x144>
    3308: 69 08        	adc	#$8
    330a: 85 12        	sta	$12                     ; 0x2012 <textPrint+0x146>
    330c: a5 11        	lda	$11                     ; 0x2011 <textPrint+0x145>
    330e: 69 00        	adc	#$0
    3310: 85 13        	sta	$13                     ; 0x2013 <textPrint+0x147>
    3312: b2 12        	lda	($12)                   ; 0x2012 <textPrint+0x146>
    3314: aa           	tax
    3315: a0 01        	ldy	#$1
    3317: b1 12        	lda	($12),y                 ; 0x2012 <textPrint+0x146>
    3319: a0 01        	ldy	#$1
    331b: 86 14        	stx	$14                     ; 0x2014 <textPrint+0x148>
    331d: 85 15        	sta	$15                     ; 0x2015 <textPrint+0x149>
    331f: 85 17        	sta	$17                     ; 0x2017 <textPrint+0x14b>
    3321: 18           	clc
    3322: 8a           	txa
    3323: 69 03        	adc	#$3
    3325: 85 16        	sta	$16                     ; 0x2016 <textPrint+0x14a>
    3327: a5 17        	lda	$17                     ; 0x2017 <textPrint+0x14b>
    3329: 69 00        	adc	#$0
    332b: 85 17        	sta	$17                     ; 0x2017 <textPrint+0x14b>
    332d: 18           	clc
    332e: a5 10        	lda	$10                     ; 0x2010 <textPrint+0x144>
    3330: 69 04        	adc	#$4
    3332: 85 18        	sta	$18                     ; 0x2018 <textPrint+0x14c>
    3334: a5 11        	lda	$11                     ; 0x2011 <textPrint+0x145>
    3336: 69 00        	adc	#$0
    3338: 85 19        	sta	$19                     ; 0x2019 <textPrint+0x14d>
    333a: b2 18        	lda	($18)                   ; 0x2018 <textPrint+0x14c>
    333c: 85 1b        	sta	$1b                     ; 0x201b <textPrint+0x14f>
    333e: b1 18        	lda	($18),y                 ; 0x2018 <textPrint+0x14c>
    3340: 85 1a        	sta	$1a                     ; 0x201a <textPrint+0x14e>
    3342: 06 1b        	asl	$1b                     ; 0x201b <textPrint+0x14f>
    3344: 2a           	rol
    3345: 06 1b        	asl	$1b                     ; 0x201b <textPrint+0x14f>
    3347: 2a           	rol
    3348: 06 1b        	asl	$1b                     ; 0x201b <textPrint+0x14f>
    334a: 2a           	rol
    334b: aa           	tax
    334c: 38           	sec
    334d: a5 1b        	lda	$1b                     ; 0x201b <textPrint+0x14f>
    334f: f2 18        	sbc	($18)                   ; 0x2018 <textPrint+0x14c>
    3351: 85 18        	sta	$18                     ; 0x2018 <textPrint+0x14c>
    3353: 8a           	txa
    3354: e5 1a        	sbc	$1a                     ; 0x201a <textPrint+0x14e>
    3356: aa           	tax
    3357: 18           	clc
    3358: a0 03        	ldy	#$3
    335a: a5 18        	lda	$18                     ; 0x2018 <textPrint+0x14c>
    335c: 71 14        	adc	($14),y                 ; 0x2014 <textPrint+0x148>
    335e: 85 14        	sta	$14                     ; 0x2014 <textPrint+0x148>
    3360: a0 01        	ldy	#$1
    3362: 8a           	txa
    3363: 71 16        	adc	($16),y                 ; 0x2016 <textPrint+0x14a>
    3365: 85 15        	sta	$15                     ; 0x2015 <textPrint+0x149>
    3367: a6 14        	ldx	$14                     ; 0x2014 <textPrint+0x148>
    3369: 86 16        	stx	$16                     ; 0x2016 <textPrint+0x14a>
    336b: 85 17        	sta	$17                     ; 0x2017 <textPrint+0x14b>
    336d: e6 16        	inc	$16                     ; 0x2016 <textPrint+0x14a>
    336f: f0 03        	beq	$3374 <adjustOffsets+0x228>
    3371: 4c 79 33     	jmp	$3379 <adjustOffsets+0x22d>
    3374: e6 17        	inc	$17                     ; 0x2017 <textPrint+0x14b>
    3376: 4c 79 33     	jmp	$3379 <adjustOffsets+0x22d>
    3379: b1 14        	lda	($14),y                 ; 0x2014 <textPrint+0x148>
    337b: 85 18        	sta	$18                     ; 0x2018 <textPrint+0x14c>
    337d: 18           	clc
    337e: a6 10        	ldx	$10                     ; 0x2010 <textPrint+0x144>
    3380: 86 14        	stx	$14                     ; 0x2014 <textPrint+0x148>
    3382: a6 11        	ldx	$11                     ; 0x2011 <textPrint+0x145>
    3384: 86 15        	stx	$15                     ; 0x2015 <textPrint+0x149>
    3386: b1 16        	lda	($16),y                 ; 0x2016 <textPrint+0x14a>
    3388: 85 16        	sta	$16                     ; 0x2016 <textPrint+0x14a>
    338a: a5 18        	lda	$18                     ; 0x2018 <textPrint+0x14c>
    338c: 92 14        	sta	($14)                   ; 0x2014 <textPrint+0x148>
    338e: a5 16        	lda	$16                     ; 0x2016 <textPrint+0x14a>
    3390: 91 14        	sta	($14),y                 ; 0x2014 <textPrint+0x148>
    3392: a9 00        	lda	#$0
    3394: a0 02        	ldy	#$2
    3396: 91 14        	sta	($14),y                 ; 0x2014 <textPrint+0x148>
    3398: c8           	iny
    3399: 91 14        	sta	($14),y                 ; 0x2014 <textPrint+0x148>
    339b: b2 14        	lda	($14)                   ; 0x2014 <textPrint+0x148>
    339d: 85 19        	sta	$19                     ; 0x2019 <textPrint+0x14d>
    339f: a0 01        	ldy	#$1
    33a1: b1 14        	lda	($14),y                 ; 0x2014 <textPrint+0x148>
    33a3: 06 19        	asl	$19                     ; 0x2019 <textPrint+0x14d>
    33a5: 85 17        	sta	$17                     ; 0x2017 <textPrint+0x14b>
    33a7: 26 17        	rol	$17                     ; 0x2017 <textPrint+0x14b>
    33a9: c8           	iny
    33aa: b1 14        	lda	($14),y                 ; 0x2014 <textPrint+0x148>
    33ac: 2a           	rol
    33ad: 85 16        	sta	$16                     ; 0x2016 <textPrint+0x14a>
    33af: c8           	iny
    33b0: b1 14        	lda	($14),y                 ; 0x2014 <textPrint+0x148>
    33b2: 2a           	rol
    33b3: 06 19        	asl	$19                     ; 0x2019 <textPrint+0x14d>
    33b5: 26 17        	rol	$17                     ; 0x2017 <textPrint+0x14b>
    33b7: a6 16        	ldx	$16                     ; 0x2016 <textPrint+0x14a>
    33b9: 86 14        	stx	$14                     ; 0x2014 <textPrint+0x148>
    33bb: 26 14        	rol	$14                     ; 0x2014 <textPrint+0x148>
    33bd: 2a           	rol
    33be: aa           	tax
    33bf: 06 19        	asl	$19                     ; 0x2019 <textPrint+0x14d>
    33c1: 26 17        	rol	$17                     ; 0x2017 <textPrint+0x14b>
    33c3: a4 17        	ldy	$17                     ; 0x2017 <textPrint+0x14b>
    33c5: 84 1c        	sty	$1c                     ; 0x201c <textPrint+0x150>
    33c7: a5 14        	lda	$14                     ; 0x2014 <textPrint+0x148>
    33c9: 2a           	rol
    33ca: 85 1a        	sta	$1a                     ; 0x201a <textPrint+0x14e>
    33cc: 8a           	txa
    33cd: 2a           	rol
    33ce: 85 1b        	sta	$1b                     ; 0x201b <textPrint+0x14f>
    33d0: b2 12        	lda	($12)                   ; 0x2012 <textPrint+0x146>
    33d2: 85 14        	sta	$14                     ; 0x2014 <textPrint+0x148>
    33d4: aa           	tax
    33d5: a0 01        	ldy	#$1
    33d7: b1 12        	lda	($12),y                 ; 0x2012 <textPrint+0x146>
    33d9: 85 15        	sta	$15                     ; 0x2015 <textPrint+0x149>
    33db: 85 13        	sta	$13                     ; 0x2013 <textPrint+0x147>
    33dd: 18           	clc
    33de: 8a           	txa
    33df: 69 03        	adc	#$3
    33e1: 85 12        	sta	$12                     ; 0x2012 <textPrint+0x146>
    33e3: a5 13        	lda	$13                     ; 0x2013 <textPrint+0x147>
    33e5: 69 00        	adc	#$0
    33e7: 85 13        	sta	$13                     ; 0x2013 <textPrint+0x147>
    33e9: 18           	clc
    33ea: a5 10        	lda	$10                     ; 0x2010 <textPrint+0x144>
    33ec: 69 06        	adc	#$6
    33ee: 85 16        	sta	$16                     ; 0x2016 <textPrint+0x14a>
    33f0: a5 11        	lda	$11                     ; 0x2011 <textPrint+0x145>
    33f2: 69 00        	adc	#$0
    33f4: 85 17        	sta	$17                     ; 0x2017 <textPrint+0x14b>
    33f6: b1 16        	lda	($16),y                 ; 0x2016 <textPrint+0x14a>
    33f8: 85 18        	sta	$18                     ; 0x2018 <textPrint+0x14c>
    33fa: b2 16        	lda	($16)                   ; 0x2016 <textPrint+0x14a>
    33fc: 0a           	asl
    33fd: aa           	tax
    33fe: a5 18        	lda	$18                     ; 0x2018 <textPrint+0x14c>
    3400: 2a           	rol
    3401: 86 1d        	stx	$1d                     ; 0x201d <textPrint+0x151>
    3403: 06 1d        	asl	$1d                     ; 0x201d <textPrint+0x151>
    3405: 2a           	rol
    3406: 06 1d        	asl	$1d                     ; 0x201d <textPrint+0x151>
    3408: 2a           	rol
    3409: aa           	tax
    340a: 38           	sec
    340b: a5 1d        	lda	$1d                     ; 0x201d <textPrint+0x151>
    340d: f2 16        	sbc	($16)                   ; 0x2016 <textPrint+0x14a>
    340f: 85 16        	sta	$16                     ; 0x2016 <textPrint+0x14a>
    3411: 8a           	txa
    3412: e5 18        	sbc	$18                     ; 0x2018 <textPrint+0x14c>
    3414: 85 17        	sta	$17                     ; 0x2017 <textPrint+0x14b>
    3416: 18           	clc
    3417: a0 03        	ldy	#$3
    3419: a5 16        	lda	$16                     ; 0x2016 <textPrint+0x14a>
    341b: 71 14        	adc	($14),y                 ; 0x2014 <textPrint+0x148>
    341d: aa           	tax
    341e: a0 01        	ldy	#$1
    3420: a5 17        	lda	$17                     ; 0x2017 <textPrint+0x14b>
    3422: 71 12        	adc	($12),y                 ; 0x2012 <textPrint+0x146>
    3424: 86 12        	stx	$12                     ; 0x2012 <textPrint+0x146>
    3426: 85 13        	sta	$13                     ; 0x2013 <textPrint+0x147>
    3428: a8           	tay
    3429: 18           	clc
    342a: 8a           	txa
    342b: 69 03        	adc	#$3
    342d: 85 14        	sta	$14                     ; 0x2014 <textPrint+0x148>
    342f: 98           	tya
    3430: 69 00        	adc	#$0
    3432: 85 15        	sta	$15                     ; 0x2015 <textPrint+0x149>
    3434: 18           	clc
    3435: a5 19        	lda	$19                     ; 0x2019 <textPrint+0x14d>
    3437: a0 03        	ldy	#$3
    3439: 71 12        	adc	($12),y                 ; 0x2012 <textPrint+0x146>
    343b: aa           	tax
    343c: a5 1c        	lda	$1c                     ; 0x201c <textPrint+0x150>
    343e: a0 01        	ldy	#$1
    3440: 71 14        	adc	($14),y                 ; 0x2014 <textPrint+0x148>
    3442: 85 18        	sta	$18                     ; 0x2018 <textPrint+0x14c>
    3444: a5 1a        	lda	$1a                     ; 0x201a <textPrint+0x14e>
    3446: c8           	iny
    3447: 71 14        	adc	($14),y                 ; 0x2014 <textPrint+0x148>
    3449: 85 16        	sta	$16                     ; 0x2016 <textPrint+0x14a>
    344b: c8           	iny
    344c: a5 1b        	lda	$1b                     ; 0x201b <textPrint+0x14f>
    344e: 71 14        	adc	($14),y                 ; 0x2014 <textPrint+0x148>
    3450: 85 17        	sta	$17                     ; 0x2017 <textPrint+0x14b>
    3452: a5 18        	lda	$18                     ; 0x2018 <textPrint+0x14c>
    3454: a0 01        	ldy	#$1
    3456: 91 14        	sta	($14),y                 ; 0x2014 <textPrint+0x148>
    3458: a5 16        	lda	$16                     ; 0x2016 <textPrint+0x14a>
    345a: c8           	iny
    345b: 91 14        	sta	($14),y                 ; 0x2014 <textPrint+0x148>
    345d: 8a           	txa
    345e: c8           	iny
    345f: 91 12        	sta	($12),y                 ; 0x2012 <textPrint+0x146>
    3461: a5 17        	lda	$17                     ; 0x2017 <textPrint+0x14b>
    3463: 91 14        	sta	($14),y                 ; 0x2014 <textPrint+0x148>
    3465: 18           	clc
    3466: a5 10        	lda	$10                     ; 0x2010 <textPrint+0x144>
    3468: 69 04        	adc	#$4
    346a: 85 12        	sta	$12                     ; 0x2012 <textPrint+0x146>
    346c: a5 11        	lda	$11                     ; 0x2011 <textPrint+0x145>
    346e: 69 00        	adc	#$0
    3470: 85 13        	sta	$13                     ; 0x2013 <textPrint+0x147>
    3472: b2 12        	lda	($12)                   ; 0x2012 <textPrint+0x146>
    3474: aa           	tax
    3475: a0 01        	ldy	#$1
    3477: b1 12        	lda	($12),y                 ; 0x2012 <textPrint+0x146>
    3479: e8           	inx
    347a: f0 03        	beq	$347f <adjustOffsets+0x333>
    347c: 4c 83 34     	jmp	$3483 <adjustOffsets+0x337>
    347f: 1a           	inc
    3480: 4c 83 34     	jmp	$3483 <adjustOffsets+0x337>
    3483: 85 14        	sta	$14                     ; 0x2014 <textPrint+0x148>
    3485: 8a           	txa
    3486: 92 12        	sta	($12)                   ; 0x2012 <textPrint+0x146>
    3488: a5 14        	lda	$14                     ; 0x2014 <textPrint+0x148>
    348a: 91 12        	sta	($12),y                 ; 0x2012 <textPrint+0x146>
    348c: 4c bb 32     	jmp	$32bb <adjustOffsets+0x16f>
    348f: 18           	clc
    3490: a5 10        	lda	$10                     ; 0x2010 <textPrint+0x144>
    3492: 69 06        	adc	#$6
    3494: 85 12        	sta	$12                     ; 0x2012 <textPrint+0x146>
    3496: a5 11        	lda	$11                     ; 0x2011 <textPrint+0x145>
    3498: 69 00        	adc	#$0
    349a: 85 13        	sta	$13                     ; 0x2013 <textPrint+0x147>
    349c: b2 12        	lda	($12)                   ; 0x2012 <textPrint+0x146>
    349e: aa           	tax
    349f: a0 01        	ldy	#$1
    34a1: b1 12        	lda	($12),y                 ; 0x2012 <textPrint+0x146>
    34a3: e8           	inx
    34a4: f0 03        	beq	$34a9 <adjustOffsets+0x35d>
    34a6: 4c ad 34     	jmp	$34ad <adjustOffsets+0x361>
    34a9: 1a           	inc
    34aa: 4c ad 34     	jmp	$34ad <adjustOffsets+0x361>
    34ad: 85 14        	sta	$14                     ; 0x2014 <textPrint+0x148>
    34af: 8a           	txa
    34b0: 92 12        	sta	($12)                   ; 0x2012 <textPrint+0x146>
    34b2: a5 14        	lda	$14                     ; 0x2014 <textPrint+0x148>
    34b4: 91 12        	sta	($12),y                 ; 0x2012 <textPrint+0x146>
    34b6: 4c ba 31     	jmp	$31ba <adjustOffsets+0x6e>
    34b9: 18           	clc
    34ba: a5 10        	lda	$10                     ; 0x2010 <textPrint+0x144>
    34bc: 69 0a        	adc	#$a
    34be: 85 10        	sta	$10                     ; 0x2010 <textPrint+0x144>
    34c0: a5 11        	lda	$11                     ; 0x2011 <textPrint+0x145>
    34c2: 69 00        	adc	#$0
    34c4: 85 11        	sta	$11                     ; 0x2011 <textPrint+0x145>
    34c6: 60           	rts

000034c7 <playEmbeddedDim>:
    34c7: 18           	clc
    34c8: a5 10        	lda	$10                     ; 0x2010 <textPrint+0x144>
    34ca: 69 b6        	adc	#$b6
    34cc: 85 10        	sta	$10                     ; 0x2010 <textPrint+0x144>
    34ce: a5 11        	lda	$11                     ; 0x2011 <textPrint+0x145>
    34d0: 69 ff        	adc	#$ff
    34d2: 85 11        	sta	$11                     ; 0x2011 <textPrint+0x145>
    34d4: a6 24        	ldx	$24                     ; 0x2024 <textPrint+0x158>
    34d6: da           	phx
    34d7: a6 25        	ldx	$25                     ; 0x2025 <textPrint+0x159>
    34d9: da           	phx
    34da: a6 26        	ldx	$26                     ; 0x2026 <textPrint+0x15a>
    34dc: da           	phx
    34dd: a6 27        	ldx	$27                     ; 0x2027 <textPrint+0x15b>
    34df: da           	phx
    34e0: a5 28        	lda	$28                     ; 0x2028 <textPrint+0x15c>
    34e2: a0 04        	ldy	#$4
    34e4: 91 10        	sta	($10),y                 ; 0x2010 <textPrint+0x144>
    34e6: a5 29        	lda	$29                     ; 0x2029 <textPrint+0x15d>
    34e8: 88           	dey
    34e9: 91 10        	sta	($10),y                 ; 0x2010 <textPrint+0x144>
    34eb: a5 2a        	lda	$2a                     ; 0x202a <textPrint+0x15e>
    34ed: 88           	dey
    34ee: 91 10        	sta	($10),y                 ; 0x2010 <textPrint+0x144>
    34f0: a5 2b        	lda	$2b                     ; 0x202b <textPrint+0x15f>
    34f2: 88           	dey
    34f3: 91 10        	sta	($10),y                 ; 0x2010 <textPrint+0x144>
    34f5: a5 2c        	lda	$2c                     ; 0x202c <textPrint+0x160>
    34f7: 88           	dey
    34f8: 91 10        	sta	($10),y                 ; 0x2010 <textPrint+0x144>
    34fa: 18           	clc
    34fb: a5 10        	lda	$10                     ; 0x2010 <textPrint+0x144>
    34fd: 69 46        	adc	#$46
    34ff: 85 12        	sta	$12                     ; 0x2012 <textPrint+0x146>
    3501: a5 11        	lda	$11                     ; 0x2011 <textPrint+0x145>
    3503: 69 00        	adc	#$0
    3505: 85 13        	sta	$13                     ; 0x2013 <textPrint+0x147>
    3507: 98           	tya
    3508: 92 12        	sta	($12)                   ; 0x2012 <textPrint+0x146>
    350a: c8           	iny
    350b: 91 12        	sta	($12),y                 ; 0x2012 <textPrint+0x146>
    350d: c8           	iny
    350e: a9 05        	lda	#$5
    3510: 91 12        	sta	($12),y                 ; 0x2012 <textPrint+0x146>
    3512: c8           	iny
    3513: a9 00        	lda	#$0
    3515: 91 12        	sta	($12),y                 ; 0x2012 <textPrint+0x146>
    3517: 18           	clc
    3518: a5 10        	lda	$10                     ; 0x2010 <textPrint+0x144>
    351a: 69 44        	adc	#$44
    351c: 85 26        	sta	$26                     ; 0x2026 <textPrint+0x15a>
    351e: a5 11        	lda	$11                     ; 0x2011 <textPrint+0x145>
    3520: 69 00        	adc	#$0
    3522: 85 27        	sta	$27                     ; 0x2027 <textPrint+0x15b>
    3524: 18           	clc
    3525: a5 10        	lda	$10                     ; 0x2010 <textPrint+0x144>
    3527: 69 40        	adc	#$40
    3529: 85 28        	sta	$28                     ; 0x2028 <textPrint+0x15c>
    352b: a5 11        	lda	$11                     ; 0x2011 <textPrint+0x145>
    352d: 69 00        	adc	#$0
    352f: 85 29        	sta	$29                     ; 0x2029 <textPrint+0x15d>
    3531: b2 12        	lda	($12)                   ; 0x2012 <textPrint+0x146>
    3533: 92 28        	sta	($28)                   ; 0x2028 <textPrint+0x15c>
    3535: a0 01        	ldy	#$1
    3537: b1 12        	lda	($12),y                 ; 0x2012 <textPrint+0x146>
    3539: 91 28        	sta	($28),y                 ; 0x2028 <textPrint+0x15c>
    353b: c8           	iny
    353c: b1 12        	lda	($12),y                 ; 0x2012 <textPrint+0x146>
    353e: 91 28        	sta	($28),y                 ; 0x2028 <textPrint+0x15c>
    3540: c8           	iny
    3541: b1 12        	lda	($12),y                 ; 0x2012 <textPrint+0x146>
    3543: a0 03        	ldy	#$3
    3545: 91 28        	sta	($28),y                 ; 0x2028 <textPrint+0x15c>
    3547: a9 00        	lda	#$0
    3549: 92 26        	sta	($26)                   ; 0x2026 <textPrint+0x15a>
    354b: a0 01        	ldy	#$1
    354d: 91 26        	sta	($26),y                 ; 0x2026 <textPrint+0x15a>
    354f: 18           	clc
    3550: a5 10        	lda	$10                     ; 0x2010 <textPrint+0x144>
    3552: 69 3b        	adc	#$3b
    3554: 85 2a        	sta	$2a                     ; 0x202a <textPrint+0x15e>
    3556: a5 11        	lda	$11                     ; 0x2011 <textPrint+0x145>
    3558: 69 00        	adc	#$0
    355a: 85 2b        	sta	$2b                     ; 0x202b <textPrint+0x15f>
    355c: 18           	clc
    355d: a5 10        	lda	$10                     ; 0x2010 <textPrint+0x144>
    355f: 69 3b        	adc	#$3b
    3561: 85 24        	sta	$24                     ; 0x2024 <textPrint+0x158>
    3563: a5 11        	lda	$11                     ; 0x2011 <textPrint+0x145>
    3565: 69 00        	adc	#$0
    3567: 85 25        	sta	$25                     ; 0x2025 <textPrint+0x159>
    3569: a6 24        	ldx	$24                     ; 0x2024 <textPrint+0x158>
    356b: 86 12        	stx	$12                     ; 0x2012 <textPrint+0x146>
    356d: 85 13        	sta	$13                     ; 0x2013 <textPrint+0x147>
    356f: 20 16 2d     	jsr	$2d16 <initBigList>
    3572: b2 28        	lda	($28)                   ; 0x2028 <textPrint+0x15c>
    3574: 85 14        	sta	$14                     ; 0x2014 <textPrint+0x148>
    3576: a0 01        	ldy	#$1
    3578: b1 28        	lda	($28),y                 ; 0x2028 <textPrint+0x15c>
    357a: aa           	tax
    357b: c8           	iny
    357c: b1 28        	lda	($28),y                 ; 0x2028 <textPrint+0x15c>
    357e: 85 12        	sta	$12                     ; 0x2012 <textPrint+0x146>
    3580: c8           	iny
    3581: b1 28        	lda	($28),y                 ; 0x2028 <textPrint+0x15c>
    3583: 85 13        	sta	$13                     ; 0x2013 <textPrint+0x147>
    3585: a5 14        	lda	$14                     ; 0x2014 <textPrint+0x148>
    3587: 20 3f 17     	jsr	$173f <FAR_PEEK>
    358a: 85 2c        	sta	$2c                     ; 0x202c <textPrint+0x160>
    358c: b2 28        	lda	($28)                   ; 0x2028 <textPrint+0x15c>
    358e: 85 14        	sta	$14                     ; 0x2014 <textPrint+0x148>
    3590: a0 01        	ldy	#$1
    3592: b1 28        	lda	($28),y                 ; 0x2028 <textPrint+0x15c>
    3594: aa           	tax
    3595: c8           	iny
    3596: b1 28        	lda	($28),y                 ; 0x2028 <textPrint+0x15c>
    3598: 85 12        	sta	$12                     ; 0x2012 <textPrint+0x146>
    359a: c8           	iny
    359b: b1 28        	lda	($28),y                 ; 0x2028 <textPrint+0x15c>
    359d: e6 14        	inc	$14                     ; 0x2014 <textPrint+0x148>
    359f: f0 03        	beq	$35a4 <playEmbeddedDim+0xdd>
    35a1: 4c bb 35     	jmp	$35bb <playEmbeddedDim+0xf4>
    35a4: e8           	inx
    35a5: f0 03        	beq	$35aa <playEmbeddedDim+0xe3>
    35a7: 4c b8 35     	jmp	$35b8 <playEmbeddedDim+0xf1>
    35aa: e6 12        	inc	$12                     ; 0x2012 <textPrint+0x146>
    35ac: f0 03        	beq	$35b1 <playEmbeddedDim+0xea>
    35ae: 4c b5 35     	jmp	$35b5 <playEmbeddedDim+0xee>
    35b1: 1a           	inc
    35b2: 4c b5 35     	jmp	$35b5 <playEmbeddedDim+0xee>
    35b5: 4c b8 35     	jmp	$35b8 <playEmbeddedDim+0xf1>
    35b8: 4c bb 35     	jmp	$35bb <playEmbeddedDim+0xf4>
    35bb: 85 13        	sta	$13                     ; 0x2013 <textPrint+0x147>
    35bd: a5 14        	lda	$14                     ; 0x2014 <textPrint+0x148>
    35bf: 20 3f 17     	jsr	$173f <FAR_PEEK>
    35c2: aa           	tax
    35c3: a5 2c        	lda	$2c                     ; 0x202c <textPrint+0x160>
    35c5: 92 26        	sta	($26)                   ; 0x2026 <textPrint+0x15a>
    35c7: a0 01        	ldy	#$1
    35c9: 8a           	txa
    35ca: 91 26        	sta	($26),y                 ; 0x2026 <textPrint+0x15a>
    35cc: b2 28        	lda	($28)                   ; 0x2028 <textPrint+0x15c>
    35ce: 85 13        	sta	$13                     ; 0x2013 <textPrint+0x147>
    35d0: b1 28        	lda	($28),y                 ; 0x2028 <textPrint+0x15c>
    35d2: 85 12        	sta	$12                     ; 0x2012 <textPrint+0x146>
    35d4: c8           	iny
    35d5: b1 28        	lda	($28),y                 ; 0x2028 <textPrint+0x15c>
    35d7: 85 14        	sta	$14                     ; 0x2014 <textPrint+0x148>
    35d9: c8           	iny
    35da: b1 28        	lda	($28),y                 ; 0x2028 <textPrint+0x15c>
    35dc: 85 15        	sta	$15                     ; 0x2015 <textPrint+0x149>
    35de: 18           	clc
    35df: a5 13        	lda	$13                     ; 0x2013 <textPrint+0x147>
    35e1: 69 02        	adc	#$2
    35e3: 85 13        	sta	$13                     ; 0x2013 <textPrint+0x147>
    35e5: a5 12        	lda	$12                     ; 0x2012 <textPrint+0x146>
    35e7: 69 00        	adc	#$0
    35e9: 85 12        	sta	$12                     ; 0x2012 <textPrint+0x146>
    35eb: a5 14        	lda	$14                     ; 0x2014 <textPrint+0x148>
    35ed: 69 00        	adc	#$0
    35ef: 85 14        	sta	$14                     ; 0x2014 <textPrint+0x148>
    35f1: a5 15        	lda	$15                     ; 0x2015 <textPrint+0x149>
    35f3: 69 00        	adc	#$0
    35f5: 85 15        	sta	$15                     ; 0x2015 <textPrint+0x149>
    35f7: a5 13        	lda	$13                     ; 0x2013 <textPrint+0x147>
    35f9: 92 28        	sta	($28)                   ; 0x2028 <textPrint+0x15c>
    35fb: a5 12        	lda	$12                     ; 0x2012 <textPrint+0x146>
    35fd: a0 01        	ldy	#$1
    35ff: 91 28        	sta	($28),y                 ; 0x2028 <textPrint+0x15c>
    3601: c8           	iny
    3602: a5 14        	lda	$14                     ; 0x2014 <textPrint+0x148>
    3604: 91 28        	sta	($28),y                 ; 0x2028 <textPrint+0x15c>
    3606: a5 15        	lda	$15                     ; 0x2015 <textPrint+0x149>
    3608: c8           	iny
    3609: 91 28        	sta	($28),y                 ; 0x2028 <textPrint+0x15c>
    360b: b2 26        	lda	($26)                   ; 0x2026 <textPrint+0x15a>
    360d: 85 15        	sta	$15                     ; 0x2015 <textPrint+0x149>
    360f: a0 01        	ldy	#$1
    3611: b1 26        	lda	($26),y                 ; 0x2026 <textPrint+0x15a>
    3613: 85 14        	sta	$14                     ; 0x2014 <textPrint+0x148>
    3615: a6 24        	ldx	$24                     ; 0x2024 <textPrint+0x158>
    3617: 86 12        	stx	$12                     ; 0x2012 <textPrint+0x146>
    3619: a6 25        	ldx	$25                     ; 0x2025 <textPrint+0x159>
    361b: 86 13        	stx	$13                     ; 0x2013 <textPrint+0x147>
    361d: e6 12        	inc	$12                     ; 0x2012 <textPrint+0x146>
    361f: f0 03        	beq	$3624 <playEmbeddedDim+0x15d>
    3621: 4c 29 36     	jmp	$3629 <playEmbeddedDim+0x162>
    3624: e6 13        	inc	$13                     ; 0x2013 <textPrint+0x147>
    3626: 4c 29 36     	jmp	$3629 <playEmbeddedDim+0x162>
    3629: a5 15        	lda	$15                     ; 0x2015 <textPrint+0x149>
    362b: 91 24        	sta	($24),y                 ; 0x2024 <textPrint+0x158>
    362d: a5 14        	lda	$14                     ; 0x2014 <textPrint+0x148>
    362f: 91 12        	sta	($12),y                 ; 0x2012 <textPrint+0x146>
    3631: b1 24        	lda	($24),y                 ; 0x2024 <textPrint+0x158>
    3633: a0 01        	ldy	#$1
    3635: 85 14        	sta	$14                     ; 0x2014 <textPrint+0x148>
    3637: b1 12        	lda	($12),y                 ; 0x2012 <textPrint+0x146>
    3639: 85 12        	sta	$12                     ; 0x2012 <textPrint+0x146>
    363b: a5 14        	lda	$14                     ; 0x2014 <textPrint+0x148>
    363d: 0a           	asl
    363e: aa           	tax
    363f: a5 12        	lda	$12                     ; 0x2012 <textPrint+0x146>
    3641: 2a           	rol
    3642: 86 13        	stx	$13                     ; 0x2013 <textPrint+0x147>
    3644: 06 13        	asl	$13                     ; 0x2013 <textPrint+0x147>
    3646: 2a           	rol
    3647: 06 13        	asl	$13                     ; 0x2013 <textPrint+0x147>
    3649: 2a           	rol
    364a: aa           	tax
    364b: 38           	sec
    364c: a5 13        	lda	$13                     ; 0x2013 <textPrint+0x147>
    364e: e5 14        	sbc	$14                     ; 0x2014 <textPrint+0x148>
    3650: a8           	tay
    3651: 8a           	txa
    3652: e5 12        	sbc	$12                     ; 0x2012 <textPrint+0x146>
    3654: aa           	tax
    3655: 98           	tya
    3656: 20 01 66     	jsr	$6601 <malloc>
    3659: a5 12        	lda	$12                     ; 0x2012 <textPrint+0x146>
    365b: a0 03        	ldy	#$3
    365d: 91 24        	sta	($24),y                 ; 0x2024 <textPrint+0x158>
    365f: a5 2a        	lda	$2a                     ; 0x202a <textPrint+0x15e>
    3661: 18           	clc
    3662: 69 03        	adc	#$3
    3664: 85 14        	sta	$14                     ; 0x2014 <textPrint+0x148>
    3666: a5 2b        	lda	$2b                     ; 0x202b <textPrint+0x15f>
    3668: 69 00        	adc	#$0
    366a: 85 15        	sta	$15                     ; 0x2015 <textPrint+0x149>
    366c: a5 13        	lda	$13                     ; 0x2013 <textPrint+0x147>
    366e: a0 01        	ldy	#$1
    3670: 91 14        	sta	($14),y                 ; 0x2014 <textPrint+0x148>
    3672: 18           	clc
    3673: a5 10        	lda	$10                     ; 0x2010 <textPrint+0x144>
    3675: 69 06        	adc	#$6
    3677: 85 12        	sta	$12                     ; 0x2012 <textPrint+0x146>
    3679: a5 11        	lda	$11                     ; 0x2011 <textPrint+0x145>
    367b: 69 00        	adc	#$0
    367d: 85 13        	sta	$13                     ; 0x2013 <textPrint+0x147>
    367f: a9 00        	lda	#$0
    3681: 92 12        	sta	($12)                   ; 0x2012 <textPrint+0x146>
    3683: 18           	clc
    3684: a5 10        	lda	$10                     ; 0x2010 <textPrint+0x144>
    3686: 69 06        	adc	#$6
    3688: 85 12        	sta	$12                     ; 0x2012 <textPrint+0x146>
    368a: a5 11        	lda	$11                     ; 0x2011 <textPrint+0x145>
    368c: 69 00        	adc	#$0
    368e: 85 13        	sta	$13                     ; 0x2013 <textPrint+0x147>
    3690: b2 12        	lda	($12)                   ; 0x2012 <textPrint+0x146>
    3692: 85 13        	sta	$13                     ; 0x2013 <textPrint+0x147>
    3694: 18           	clc
    3695: a5 10        	lda	$10                     ; 0x2010 <textPrint+0x144>
    3697: 69 44        	adc	#$44
    3699: 85 14        	sta	$14                     ; 0x2014 <textPrint+0x148>
    369b: a5 11        	lda	$11                     ; 0x2011 <textPrint+0x145>
    369d: 69 00        	adc	#$0
    369f: 85 15        	sta	$15                     ; 0x2015 <textPrint+0x149>
    36a1: b2 14        	lda	($14)                   ; 0x2014 <textPrint+0x148>
    36a3: 85 12        	sta	$12                     ; 0x2012 <textPrint+0x146>
    36a5: a0 01        	ldy	#$1
    36a7: a9 00        	lda	#$0
    36a9: d1 14        	cmp	($14),y                 ; 0x2014 <textPrint+0x148>
    36ab: a2 01        	ldx	#$1
    36ad: b0 02        	bcs	$36b1 <playEmbeddedDim+0x1ea>
    36af: a2 00        	ldx	#$0
    36b1: 86 16        	stx	$16                     ; 0x2016 <textPrint+0x14a>
    36b3: d1 14        	cmp	($14),y                 ; 0x2014 <textPrint+0x148>
    36b5: f0 02        	beq	$36b9 <playEmbeddedDim+0x1f2>
    36b7: 80 09        	bra	$36c2 <playEmbeddedDim+0x1fb>
    36b9: a6 13        	ldx	$13                     ; 0x2013 <textPrint+0x147>
    36bb: e4 12        	cpx	$12                     ; 0x2012 <textPrint+0x146>
    36bd: 90 0a        	bcc	$36c9 <playEmbeddedDim+0x202>
    36bf: 4c dc 37     	jmp	$37dc <playEmbeddedDim+0x315>
    36c2: a5 16        	lda	$16                     ; 0x2016 <textPrint+0x14a>
    36c4: f0 03        	beq	$36c9 <playEmbeddedDim+0x202>
    36c6: 4c dc 37     	jmp	$37dc <playEmbeddedDim+0x315>
    36c9: 80 00        	bra	$36cb <playEmbeddedDim+0x204>
    36cb: 18           	clc
    36cc: a5 10        	lda	$10                     ; 0x2010 <textPrint+0x144>
    36ce: 69 40        	adc	#$40
    36d0: 85 24        	sta	$24                     ; 0x2024 <textPrint+0x158>
    36d2: a5 11        	lda	$11                     ; 0x2011 <textPrint+0x145>
    36d4: 69 00        	adc	#$0
    36d6: 85 25        	sta	$25                     ; 0x2025 <textPrint+0x159>
    36d8: b2 24        	lda	($24)                   ; 0x2024 <textPrint+0x158>
    36da: 85 14        	sta	$14                     ; 0x2014 <textPrint+0x148>
    36dc: a0 01        	ldy	#$1
    36de: b1 24        	lda	($24),y                 ; 0x2024 <textPrint+0x158>
    36e0: aa           	tax
    36e1: c8           	iny
    36e2: b1 24        	lda	($24),y                 ; 0x2024 <textPrint+0x158>
    36e4: 85 12        	sta	$12                     ; 0x2012 <textPrint+0x146>
    36e6: c8           	iny
    36e7: b1 24        	lda	($24),y                 ; 0x2024 <textPrint+0x158>
    36e9: 85 13        	sta	$13                     ; 0x2013 <textPrint+0x147>
    36eb: a5 14        	lda	$14                     ; 0x2014 <textPrint+0x148>
    36ed: 20 3f 17     	jsr	$173f <FAR_PEEK>
    36f0: 85 26        	sta	$26                     ; 0x2026 <textPrint+0x15a>
    36f2: b2 24        	lda	($24)                   ; 0x2024 <textPrint+0x158>
    36f4: 85 14        	sta	$14                     ; 0x2014 <textPrint+0x148>
    36f6: a0 01        	ldy	#$1
    36f8: b1 24        	lda	($24),y                 ; 0x2024 <textPrint+0x158>
    36fa: aa           	tax
    36fb: c8           	iny
    36fc: b1 24        	lda	($24),y                 ; 0x2024 <textPrint+0x158>
    36fe: 85 12        	sta	$12                     ; 0x2012 <textPrint+0x146>
    3700: c8           	iny
    3701: b1 24        	lda	($24),y                 ; 0x2024 <textPrint+0x158>
    3703: e6 14        	inc	$14                     ; 0x2014 <textPrint+0x148>
    3705: f0 03        	beq	$370a <playEmbeddedDim+0x243>
    3707: 4c 21 37     	jmp	$3721 <playEmbeddedDim+0x25a>
    370a: e8           	inx
    370b: f0 03        	beq	$3710 <playEmbeddedDim+0x249>
    370d: 4c 1e 37     	jmp	$371e <playEmbeddedDim+0x257>
    3710: e6 12        	inc	$12                     ; 0x2012 <textPrint+0x146>
    3712: f0 03        	beq	$3717 <playEmbeddedDim+0x250>
    3714: 4c 1b 37     	jmp	$371b <playEmbeddedDim+0x254>
    3717: 1a           	inc
    3718: 4c 1b 37     	jmp	$371b <playEmbeddedDim+0x254>
    371b: 4c 1e 37     	jmp	$371e <playEmbeddedDim+0x257>
    371e: 4c 21 37     	jmp	$3721 <playEmbeddedDim+0x25a>
    3721: 85 13        	sta	$13                     ; 0x2013 <textPrint+0x147>
    3723: a5 14        	lda	$14                     ; 0x2014 <textPrint+0x148>
    3725: 20 3f 17     	jsr	$173f <FAR_PEEK>
    3728: aa           	tax
    3729: 18           	clc
    372a: a5 10        	lda	$10                     ; 0x2010 <textPrint+0x144>
    372c: 69 3b        	adc	#$3b
    372e: 85 12        	sta	$12                     ; 0x2012 <textPrint+0x146>
    3730: a5 11        	lda	$11                     ; 0x2011 <textPrint+0x145>
    3732: 69 00        	adc	#$0
    3734: 85 13        	sta	$13                     ; 0x2013 <textPrint+0x147>
    3736: 18           	clc
    3737: a5 10        	lda	$10                     ; 0x2010 <textPrint+0x144>
    3739: 69 3b        	adc	#$3b
    373b: 48           	pha
    373c: a5 11        	lda	$11                     ; 0x2011 <textPrint+0x145>
    373e: 69 00        	adc	#$0
    3740: 85 14        	sta	$14                     ; 0x2014 <textPrint+0x148>
    3742: 68           	pla
    3743: 18           	clc
    3744: 69 03        	adc	#$3
    3746: a8           	tay
    3747: a5 14        	lda	$14                     ; 0x2014 <textPrint+0x148>
    3749: 69 00        	adc	#$0
    374b: 84 14        	sty	$14                     ; 0x2014 <textPrint+0x148>
    374d: 85 15        	sta	$15                     ; 0x2015 <textPrint+0x149>
    374f: 18           	clc
    3750: a5 10        	lda	$10                     ; 0x2010 <textPrint+0x144>
    3752: 69 06        	adc	#$6
    3754: 85 16        	sta	$16                     ; 0x2016 <textPrint+0x14a>
    3756: a5 11        	lda	$11                     ; 0x2011 <textPrint+0x145>
    3758: 69 00        	adc	#$0
    375a: 85 17        	sta	$17                     ; 0x2017 <textPrint+0x14b>
    375c: b2 16        	lda	($16)                   ; 0x2016 <textPrint+0x14a>
    375e: 0a           	asl
    375f: 64 18        	stz	$18                     ; 0x2018 <textPrint+0x14c>
    3761: 26 18        	rol	$18                     ; 0x2018 <textPrint+0x14c>
    3763: 0a           	asl
    3764: 26 18        	rol	$18                     ; 0x2018 <textPrint+0x14c>
    3766: 0a           	asl
    3767: 26 18        	rol	$18                     ; 0x2018 <textPrint+0x14c>
    3769: 38           	sec
    376a: f2 16        	sbc	($16)                   ; 0x2016 <textPrint+0x14a>
    376c: 85 17        	sta	$17                     ; 0x2017 <textPrint+0x14b>
    376e: a5 18        	lda	$18                     ; 0x2018 <textPrint+0x14c>
    3770: e9 00        	sbc	#$0
    3772: 85 16        	sta	$16                     ; 0x2016 <textPrint+0x14a>
    3774: 18           	clc
    3775: a0 03        	ldy	#$3
    3777: a5 17        	lda	$17                     ; 0x2017 <textPrint+0x14b>
    3779: 71 12        	adc	($12),y                 ; 0x2012 <textPrint+0x146>
    377b: 85 12        	sta	$12                     ; 0x2012 <textPrint+0x146>
    377d: a0 01        	ldy	#$1
    377f: a5 16        	lda	$16                     ; 0x2016 <textPrint+0x14a>
    3781: 71 14        	adc	($14),y                 ; 0x2014 <textPrint+0x148>
    3783: 85 13        	sta	$13                     ; 0x2013 <textPrint+0x147>
    3785: 5a           	phy
    3786: a4 12        	ldy	$12                     ; 0x2012 <textPrint+0x146>
    3788: 84 14        	sty	$14                     ; 0x2014 <textPrint+0x148>
    378a: 7a           	ply
    378b: 85 15        	sta	$15                     ; 0x2015 <textPrint+0x149>
    378d: e6 14        	inc	$14                     ; 0x2014 <textPrint+0x148>
    378f: f0 03        	beq	$3794 <playEmbeddedDim+0x2cd>
    3791: 4c 99 37     	jmp	$3799 <playEmbeddedDim+0x2d2>
    3794: e6 15        	inc	$15                     ; 0x2015 <textPrint+0x149>
    3796: 4c 99 37     	jmp	$3799 <playEmbeddedDim+0x2d2>
    3799: a5 26        	lda	$26                     ; 0x2026 <textPrint+0x15a>
    379b: 91 12        	sta	($12),y                 ; 0x2012 <textPrint+0x146>
    379d: 8a           	txa
    379e: 91 14        	sta	($14),y                 ; 0x2014 <textPrint+0x148>
    37a0: b2 24        	lda	($24)                   ; 0x2024 <textPrint+0x158>
    37a2: 85 12        	sta	$12                     ; 0x2012 <textPrint+0x146>
    37a4: b1 24        	lda	($24),y                 ; 0x2024 <textPrint+0x158>
    37a6: aa           	tax
    37a7: a0 01        	ldy	#$1
    37a9: 18           	clc
    37aa: a5 12        	lda	$12                     ; 0x2012 <textPrint+0x146>
    37ac: 69 02        	adc	#$2
    37ae: 85 12        	sta	$12                     ; 0x2012 <textPrint+0x146>
    37b0: 8a           	txa
    37b1: 69 00        	adc	#$0
    37b3: 91 24        	sta	($24),y                 ; 0x2024 <textPrint+0x158>
    37b5: c8           	iny
    37b6: b1 24        	lda	($24),y                 ; 0x2024 <textPrint+0x158>
    37b8: 69 00        	adc	#$0
    37ba: 91 24        	sta	($24),y                 ; 0x2024 <textPrint+0x158>
    37bc: c8           	iny
    37bd: b1 24        	lda	($24),y                 ; 0x2024 <textPrint+0x158>
    37bf: 69 00        	adc	#$0
    37c1: 91 24        	sta	($24),y                 ; 0x2024 <textPrint+0x158>
    37c3: a5 12        	lda	$12                     ; 0x2012 <textPrint+0x146>
    37c5: 92 24        	sta	($24)                   ; 0x2024 <textPrint+0x158>
    37c7: 18           	clc
    37c8: a5 10        	lda	$10                     ; 0x2010 <textPrint+0x144>
    37ca: 69 06        	adc	#$6
    37cc: 85 12        	sta	$12                     ; 0x2012 <textPrint+0x146>
    37ce: a5 11        	lda	$11                     ; 0x2011 <textPrint+0x145>
    37d0: 69 00        	adc	#$0
    37d2: 85 13        	sta	$13                     ; 0x2013 <textPrint+0x147>
    37d4: b2 12        	lda	($12)                   ; 0x2012 <textPrint+0x146>
    37d6: 1a           	inc
    37d7: 92 12        	sta	($12)                   ; 0x2012 <textPrint+0x146>
    37d9: 4c 83 36     	jmp	$3683 <playEmbeddedDim+0x1bc>
    37dc: 18           	clc
    37dd: a5 10        	lda	$10                     ; 0x2010 <textPrint+0x144>
    37df: 69 3b        	adc	#$3b
    37e1: 85 12        	sta	$12                     ; 0x2012 <textPrint+0x146>
    37e3: a5 11        	lda	$11                     ; 0x2011 <textPrint+0x145>
    37e5: 69 00        	adc	#$0
    37e7: 85 13        	sta	$13                     ; 0x2013 <textPrint+0x147>
    37e9: 20 4c 31     	jsr	$314c <adjustOffsets>
    37ec: 18           	clc
    37ed: a5 10        	lda	$10                     ; 0x2010 <textPrint+0x144>
    37ef: 69 40        	adc	#$40
    37f1: 85 12        	sta	$12                     ; 0x2012 <textPrint+0x146>
    37f3: a5 11        	lda	$11                     ; 0x2011 <textPrint+0x145>
    37f5: 69 00        	adc	#$0
    37f7: 85 13        	sta	$13                     ; 0x2013 <textPrint+0x147>
    37f9: b2 12        	lda	($12)                   ; 0x2012 <textPrint+0x146>
    37fb: 85 16        	sta	$16                     ; 0x2016 <textPrint+0x14a>
    37fd: a0 01        	ldy	#$1
    37ff: b1 12        	lda	($12),y                 ; 0x2012 <textPrint+0x146>
    3801: aa           	tax
    3802: c8           	iny
    3803: b1 12        	lda	($12),y                 ; 0x2012 <textPrint+0x146>
    3805: 85 14        	sta	$14                     ; 0x2014 <textPrint+0x148>
    3807: c8           	iny
    3808: b1 12        	lda	($12),y                 ; 0x2012 <textPrint+0x146>
    380a: 18           	clc
    380b: 48           	pha
    380c: a5 10        	lda	$10                     ; 0x2010 <textPrint+0x144>
    380e: 69 07        	adc	#$7
    3810: 85 24        	sta	$24                     ; 0x2024 <textPrint+0x158>
    3812: a5 11        	lda	$11                     ; 0x2011 <textPrint+0x145>
    3814: 69 00        	adc	#$0
    3816: 85 25        	sta	$25                     ; 0x2025 <textPrint+0x159>
    3818: 18           	clc
    3819: a5 10        	lda	$10                     ; 0x2010 <textPrint+0x144>
    381b: 69 07        	adc	#$7
    381d: 85 26        	sta	$26                     ; 0x2026 <textPrint+0x15a>
    381f: a5 11        	lda	$11                     ; 0x2011 <textPrint+0x145>
    3821: 69 00        	adc	#$0
    3823: 85 27        	sta	$27                     ; 0x2027 <textPrint+0x15b>
    3825: 68           	pla
    3826: a4 24        	ldy	$24                     ; 0x2024 <textPrint+0x158>
    3828: 84 12        	sty	$12                     ; 0x2012 <textPrint+0x146>
    382a: a4 25        	ldy	$25                     ; 0x2025 <textPrint+0x159>
    382c: 84 13        	sty	$13                     ; 0x2013 <textPrint+0x147>
    382e: 85 15        	sta	$15                     ; 0x2015 <textPrint+0x149>
    3830: a5 16        	lda	$16                     ; 0x2016 <textPrint+0x14a>
    3832: 20 59 2a     	jsr	$2a59 <initMidiRecord>
    3835: a0 20        	ldy	#$20
    3837: 18           	clc
    3838: a5 26        	lda	$26                     ; 0x2026 <textPrint+0x15a>
    383a: 69 20        	adc	#$20
    383c: 85 12        	sta	$12                     ; 0x2012 <textPrint+0x146>
    383e: a5 27        	lda	$27                     ; 0x2027 <textPrint+0x15b>
    3840: 69 00        	adc	#$0
    3842: 85 13        	sta	$13                     ; 0x2013 <textPrint+0x147>
    3844: b1 24        	lda	($24),y                 ; 0x2024 <textPrint+0x158>
    3846: 85 14        	sta	$14                     ; 0x2014 <textPrint+0x148>
    3848: a0 01        	ldy	#$1
    384a: b1 12        	lda	($12),y                 ; 0x2012 <textPrint+0x146>
    384c: a2 00        	ldx	#$0
    384e: 86 12        	stx	$12                     ; 0x2012 <textPrint+0x146>
    3850: a2 00        	ldx	#$0
    3852: 86 13        	stx	$13                     ; 0x2013 <textPrint+0x147>
    3854: c5 13        	cmp	$13                     ; 0x2013 <textPrint+0x147>
    3856: f0 02        	beq	$385a <playEmbeddedDim+0x393>
    3858: 80 0e        	bra	$3868 <playEmbeddedDim+0x3a1>
    385a: a6 14        	ldx	$14                     ; 0x2014 <textPrint+0x148>
    385c: e4 12        	cpx	$12                     ; 0x2012 <textPrint+0x146>
    385e: f0 02        	beq	$3862 <playEmbeddedDim+0x39b>
    3860: 80 02        	bra	$3864 <playEmbeddedDim+0x39d>
    3862: 80 3a        	bra	$389e <playEmbeddedDim+0x3d7>
    3864: 80 00        	bra	$3866 <playEmbeddedDim+0x39f>
    3866: 80 02        	bra	$386a <playEmbeddedDim+0x3a3>
    3868: 80 00        	bra	$386a <playEmbeddedDim+0x3a3>
    386a: 80 00        	bra	$386c <playEmbeddedDim+0x3a5>
    386c: a0 20        	ldy	#$20
    386e: 18           	clc
    386f: a5 10        	lda	$10                     ; 0x2010 <textPrint+0x144>
    3871: 69 07        	adc	#$7
    3873: 48           	pha
    3874: a5 11        	lda	$11                     ; 0x2011 <textPrint+0x145>
    3876: 69 00        	adc	#$0
    3878: aa           	tax
    3879: 18           	clc
    387a: a5 10        	lda	$10                     ; 0x2010 <textPrint+0x144>
    387c: 69 07        	adc	#$7
    387e: 85 12        	sta	$12                     ; 0x2012 <textPrint+0x146>
    3880: a5 11        	lda	$11                     ; 0x2011 <textPrint+0x145>
    3882: 69 00        	adc	#$0
    3884: 85 13        	sta	$13                     ; 0x2013 <textPrint+0x147>
    3886: 68           	pla
    3887: 18           	clc
    3888: 69 20        	adc	#$20
    388a: 85 14        	sta	$14                     ; 0x2014 <textPrint+0x148>
    388c: 8a           	txa
    388d: 69 00        	adc	#$0
    388f: 85 15        	sta	$15                     ; 0x2015 <textPrint+0x149>
    3891: b1 12        	lda	($12),y                 ; 0x2012 <textPrint+0x146>
    3893: 85 12        	sta	$12                     ; 0x2012 <textPrint+0x146>
    3895: a0 01        	ldy	#$1
    3897: b1 14        	lda	($14),y                 ; 0x2014 <textPrint+0x148>
    3899: 85 13        	sta	$13                     ; 0x2013 <textPrint+0x147>
    389b: 20 d0 67     	jsr	$67d0 <free>
    389e: a0 01        	ldy	#$1
    38a0: 18           	clc
    38a1: a5 10        	lda	$10                     ; 0x2010 <textPrint+0x144>
    38a3: 69 3b        	adc	#$3b
    38a5: 85 12        	sta	$12                     ; 0x2012 <textPrint+0x146>
    38a7: a5 11        	lda	$11                     ; 0x2011 <textPrint+0x145>
    38a9: 69 00        	adc	#$0
    38ab: 85 13        	sta	$13                     ; 0x2013 <textPrint+0x147>
    38ad: a6 12        	ldx	$12                     ; 0x2012 <textPrint+0x146>
    38af: 86 14        	stx	$14                     ; 0x2014 <textPrint+0x148>
    38b1: 85 15        	sta	$15                     ; 0x2015 <textPrint+0x149>
    38b3: e6 14        	inc	$14                     ; 0x2014 <textPrint+0x148>
    38b5: f0 03        	beq	$38ba <playEmbeddedDim+0x3f3>
    38b7: 4c bf 38     	jmp	$38bf <playEmbeddedDim+0x3f8>
    38ba: e6 15        	inc	$15                     ; 0x2015 <textPrint+0x149>
    38bc: 4c bf 38     	jmp	$38bf <playEmbeddedDim+0x3f8>
    38bf: b1 12        	lda	($12),y                 ; 0x2012 <textPrint+0x146>
    38c1: 85 12        	sta	$12                     ; 0x2012 <textPrint+0x146>
    38c3: b1 14        	lda	($14),y                 ; 0x2014 <textPrint+0x148>
    38c5: 06 12        	asl	$12                     ; 0x2012 <textPrint+0x146>
    38c7: a4 12        	ldy	$12                     ; 0x2012 <textPrint+0x146>
    38c9: 2a           	rol
    38ca: aa           	tax
    38cb: 98           	tya
    38cc: 20 01 66     	jsr	$6601 <malloc>
    38cf: a0 20        	ldy	#$20
    38d1: 18           	clc
    38d2: a5 10        	lda	$10                     ; 0x2010 <textPrint+0x144>
    38d4: 69 07        	adc	#$7
    38d6: 85 16        	sta	$16                     ; 0x2016 <textPrint+0x14a>
    38d8: a2 01        	ldx	#$1
    38da: b0 02        	bcs	$38de <playEmbeddedDim+0x417>
    38dc: a2 00        	ldx	#$0
    38de: 86 17        	stx	$17                     ; 0x2017 <textPrint+0x14b>
    38e0: 18           	clc
    38e1: a5 10        	lda	$10                     ; 0x2010 <textPrint+0x144>
    38e3: 69 07        	adc	#$7
    38e5: 85 14        	sta	$14                     ; 0x2014 <textPrint+0x148>
    38e7: a5 11        	lda	$11                     ; 0x2011 <textPrint+0x145>
    38e9: 69 00        	adc	#$0
    38eb: 85 15        	sta	$15                     ; 0x2015 <textPrint+0x149>
    38ed: a5 12        	lda	$12                     ; 0x2012 <textPrint+0x146>
    38ef: 91 14        	sta	($14),y                 ; 0x2014 <textPrint+0x148>
    38f1: a6 17        	ldx	$17                     ; 0x2017 <textPrint+0x14b>
    38f3: e0 01        	cpx	#$1
    38f5: a5 11        	lda	$11                     ; 0x2011 <textPrint+0x145>
    38f7: 69 00        	adc	#$0
    38f9: aa           	tax
    38fa: 18           	clc
    38fb: a5 16        	lda	$16                     ; 0x2016 <textPrint+0x14a>
    38fd: 69 20        	adc	#$20
    38ff: 85 14        	sta	$14                     ; 0x2014 <textPrint+0x148>
    3901: 8a           	txa
    3902: 69 00        	adc	#$0
    3904: 85 15        	sta	$15                     ; 0x2015 <textPrint+0x149>
    3906: a5 13        	lda	$13                     ; 0x2013 <textPrint+0x147>
    3908: a0 01        	ldy	#$1
    390a: 91 14        	sta	($14),y                 ; 0x2014 <textPrint+0x148>
    390c: 18           	clc
    390d: a5 10        	lda	$10                     ; 0x2010 <textPrint+0x144>
    390f: 69 05        	adc	#$5
    3911: 85 12        	sta	$12                     ; 0x2012 <textPrint+0x146>
    3913: a5 11        	lda	$11                     ; 0x2011 <textPrint+0x145>
    3915: 69 00        	adc	#$0
    3917: 85 13        	sta	$13                     ; 0x2013 <textPrint+0x147>
    3919: a9 00        	lda	#$0
    391b: 92 12        	sta	($12)                   ; 0x2012 <textPrint+0x146>
    391d: 18           	clc
    391e: a5 10        	lda	$10                     ; 0x2010 <textPrint+0x144>
    3920: 69 05        	adc	#$5
    3922: 85 12        	sta	$12                     ; 0x2012 <textPrint+0x146>
    3924: a5 11        	lda	$11                     ; 0x2011 <textPrint+0x145>
    3926: 69 00        	adc	#$0
    3928: 85 13        	sta	$13                     ; 0x2013 <textPrint+0x147>
    392a: b2 12        	lda	($12)                   ; 0x2012 <textPrint+0x146>
    392c: 85 13        	sta	$13                     ; 0x2013 <textPrint+0x147>
    392e: 18           	clc
    392f: a5 10        	lda	$10                     ; 0x2010 <textPrint+0x144>
    3931: 69 44        	adc	#$44
    3933: 85 14        	sta	$14                     ; 0x2014 <textPrint+0x148>
    3935: a5 11        	lda	$11                     ; 0x2011 <textPrint+0x145>
    3937: 69 00        	adc	#$0
    3939: 85 15        	sta	$15                     ; 0x2015 <textPrint+0x149>
    393b: b2 14        	lda	($14)                   ; 0x2014 <textPrint+0x148>
    393d: 85 12        	sta	$12                     ; 0x2012 <textPrint+0x146>
    393f: a0 01        	ldy	#$1
    3941: a9 00        	lda	#$0
    3943: d1 14        	cmp	($14),y                 ; 0x2014 <textPrint+0x148>
    3945: a2 01        	ldx	#$1
    3947: b0 02        	bcs	$394b <playEmbeddedDim+0x484>
    3949: a2 00        	ldx	#$0
    394b: 86 16        	stx	$16                     ; 0x2016 <textPrint+0x14a>
    394d: d1 14        	cmp	($14),y                 ; 0x2014 <textPrint+0x148>
    394f: f0 02        	beq	$3953 <playEmbeddedDim+0x48c>
    3951: 80 09        	bra	$395c <playEmbeddedDim+0x495>
    3953: a6 13        	ldx	$13                     ; 0x2013 <textPrint+0x147>
    3955: e4 12        	cpx	$12                     ; 0x2012 <textPrint+0x146>
    3957: 90 0a        	bcc	$3963 <playEmbeddedDim+0x49c>
    3959: 4c c6 39     	jmp	$39c6 <playEmbeddedDim+0x4ff>
    395c: a5 16        	lda	$16                     ; 0x2016 <textPrint+0x14a>
    395e: f0 03        	beq	$3963 <playEmbeddedDim+0x49c>
    3960: 4c c6 39     	jmp	$39c6 <playEmbeddedDim+0x4ff>
    3963: 80 00        	bra	$3965 <playEmbeddedDim+0x49e>
    3965: 18           	clc
    3966: a5 10        	lda	$10                     ; 0x2010 <textPrint+0x144>
    3968: 69 07        	adc	#$7
    396a: 48           	pha
    396b: a5 11        	lda	$11                     ; 0x2011 <textPrint+0x145>
    396d: 69 00        	adc	#$0
    396f: aa           	tax
    3970: 18           	clc
    3971: a5 10        	lda	$10                     ; 0x2010 <textPrint+0x144>
    3973: 69 07        	adc	#$7
    3975: 85 12        	sta	$12                     ; 0x2012 <textPrint+0x146>
    3977: a5 11        	lda	$11                     ; 0x2011 <textPrint+0x145>
    3979: 69 00        	adc	#$0
    397b: 85 13        	sta	$13                     ; 0x2013 <textPrint+0x147>
    397d: 68           	pla
    397e: 18           	clc
    397f: 69 20        	adc	#$20
    3981: 85 14        	sta	$14                     ; 0x2014 <textPrint+0x148>
    3983: 8a           	txa
    3984: 69 00        	adc	#$0
    3986: 85 15        	sta	$15                     ; 0x2015 <textPrint+0x149>
    3988: 18           	clc
    3989: a5 10        	lda	$10                     ; 0x2010 <textPrint+0x144>
    398b: 69 05        	adc	#$5
    398d: 85 16        	sta	$16                     ; 0x2016 <textPrint+0x14a>
    398f: a5 11        	lda	$11                     ; 0x2011 <textPrint+0x145>
    3991: 69 00        	adc	#$0
    3993: 85 17        	sta	$17                     ; 0x2017 <textPrint+0x14b>
    3995: b2 16        	lda	($16)                   ; 0x2016 <textPrint+0x14a>
    3997: 0a           	asl
    3998: 64 16        	stz	$16                     ; 0x2016 <textPrint+0x14a>
    399a: 26 16        	rol	$16                     ; 0x2016 <textPrint+0x14a>
    399c: a0 20        	ldy	#$20
    399e: 18           	clc
    399f: 71 12        	adc	($12),y                 ; 0x2012 <textPrint+0x146>
    39a1: 85 12        	sta	$12                     ; 0x2012 <textPrint+0x146>
    39a3: a5 16        	lda	$16                     ; 0x2016 <textPrint+0x14a>
    39a5: a0 01        	ldy	#$1
    39a7: 71 14        	adc	($14),y                 ; 0x2014 <textPrint+0x148>
    39a9: 85 13        	sta	$13                     ; 0x2013 <textPrint+0x147>
    39ab: a9 00        	lda	#$0
    39ad: 91 12        	sta	($12),y                 ; 0x2012 <textPrint+0x146>
    39af: 92 12        	sta	($12)                   ; 0x2012 <textPrint+0x146>
    39b1: 18           	clc
    39b2: a5 10        	lda	$10                     ; 0x2010 <textPrint+0x144>
    39b4: 69 05        	adc	#$5
    39b6: 85 12        	sta	$12                     ; 0x2012 <textPrint+0x146>
    39b8: a5 11        	lda	$11                     ; 0x2011 <textPrint+0x145>
    39ba: 69 00        	adc	#$0
    39bc: 85 13        	sta	$13                     ; 0x2013 <textPrint+0x147>
    39be: b2 12        	lda	($12)                   ; 0x2012 <textPrint+0x146>
    39c0: 1a           	inc
    39c1: 92 12        	sta	($12)                   ; 0x2012 <textPrint+0x146>
    39c3: 4c 1d 39     	jmp	$391d <playEmbeddedDim+0x456>
    39c6: 18           	clc
    39c7: a5 10        	lda	$10                     ; 0x2010 <textPrint+0x144>
    39c9: 69 3b        	adc	#$3b
    39cb: 85 12        	sta	$12                     ; 0x2012 <textPrint+0x146>
    39cd: a5 11        	lda	$11                     ; 0x2011 <textPrint+0x145>
    39cf: 69 00        	adc	#$0
    39d1: 85 13        	sta	$13                     ; 0x2013 <textPrint+0x147>
    39d3: a6 12        	ldx	$12                     ; 0x2012 <textPrint+0x146>
    39d5: 86 14        	stx	$14                     ; 0x2014 <textPrint+0x148>
    39d7: 85 15        	sta	$15                     ; 0x2015 <textPrint+0x149>
    39d9: e6 14        	inc	$14                     ; 0x2014 <textPrint+0x148>
    39db: f0 03        	beq	$39e0 <playEmbeddedDim+0x519>
    39dd: 4c e5 39     	jmp	$39e5 <playEmbeddedDim+0x51e>
    39e0: e6 15        	inc	$15                     ; 0x2015 <textPrint+0x149>
    39e2: 4c e5 39     	jmp	$39e5 <playEmbeddedDim+0x51e>
    39e5: a0 01        	ldy	#$1
    39e7: b1 12        	lda	($12),y                 ; 0x2012 <textPrint+0x146>
    39e9: 85 12        	sta	$12                     ; 0x2012 <textPrint+0x146>
    39eb: b1 14        	lda	($14),y                 ; 0x2014 <textPrint+0x148>
    39ed: f0 02        	beq	$39f1 <playEmbeddedDim+0x52a>
    39ef: 80 0e        	bra	$39ff <playEmbeddedDim+0x538>
    39f1: a6 12        	ldx	$12                     ; 0x2012 <textPrint+0x146>
    39f3: e0 01        	cpx	#$1
    39f5: f0 02        	beq	$39f9 <playEmbeddedDim+0x532>
    39f7: 80 02        	bra	$39fb <playEmbeddedDim+0x534>
    39f9: 80 02        	bra	$39fd <playEmbeddedDim+0x536>
    39fb: 80 25        	bra	$3a22 <playEmbeddedDim+0x55b>
    39fd: 80 02        	bra	$3a01 <playEmbeddedDim+0x53a>
    39ff: 80 21        	bra	$3a22 <playEmbeddedDim+0x55b>
    3a01: 80 00        	bra	$3a03 <playEmbeddedDim+0x53c>
    3a03: 18           	clc
    3a04: a5 10        	lda	$10                     ; 0x2010 <textPrint+0x144>
    3a06: 69 07        	adc	#$7
    3a08: 85 12        	sta	$12                     ; 0x2012 <textPrint+0x146>
    3a0a: a5 11        	lda	$11                     ; 0x2011 <textPrint+0x145>
    3a0c: 69 00        	adc	#$0
    3a0e: 85 13        	sta	$13                     ; 0x2013 <textPrint+0x147>
    3a10: 18           	clc
    3a11: a5 10        	lda	$10                     ; 0x2010 <textPrint+0x144>
    3a13: 69 3b        	adc	#$3b
    3a15: 85 14        	sta	$14                     ; 0x2014 <textPrint+0x148>
    3a17: a5 11        	lda	$11                     ; 0x2011 <textPrint+0x145>
    3a19: 69 00        	adc	#$0
    3a1b: 85 15        	sta	$15                     ; 0x2015 <textPrint+0x149>
    3a1d: 20 73 3a     	jsr	$3a73 <playmiditype0>
    3a20: 80 1d        	bra	$3a3f <playEmbeddedDim+0x578>
    3a22: 18           	clc
    3a23: a5 10        	lda	$10                     ; 0x2010 <textPrint+0x144>
    3a25: 69 07        	adc	#$7
    3a27: 85 12        	sta	$12                     ; 0x2012 <textPrint+0x146>
    3a29: a5 11        	lda	$11                     ; 0x2011 <textPrint+0x145>
    3a2b: 69 00        	adc	#$0
    3a2d: 85 13        	sta	$13                     ; 0x2013 <textPrint+0x147>
    3a2f: 18           	clc
    3a30: a5 10        	lda	$10                     ; 0x2010 <textPrint+0x144>
    3a32: 69 3b        	adc	#$3b
    3a34: 85 14        	sta	$14                     ; 0x2014 <textPrint+0x148>
    3a36: a5 11        	lda	$11                     ; 0x2011 <textPrint+0x145>
    3a38: 69 00        	adc	#$0
    3a3a: 85 15        	sta	$15                     ; 0x2015 <textPrint+0x149>
    3a3c: 20 eb 41     	jsr	$41eb <playmidi>
    3a3f: a0 00        	ldy	#$0
    3a41: b1 10        	lda	($10),y                 ; 0x2010 <textPrint+0x144>
    3a43: 85 2c        	sta	$2c                     ; 0x202c <textPrint+0x160>
    3a45: c8           	iny
    3a46: b1 10        	lda	($10),y                 ; 0x2010 <textPrint+0x144>
    3a48: 85 2b        	sta	$2b                     ; 0x202b <textPrint+0x15f>
    3a4a: c8           	iny
    3a4b: b1 10        	lda	($10),y                 ; 0x2010 <textPrint+0x144>
    3a4d: 85 2a        	sta	$2a                     ; 0x202a <textPrint+0x15e>
    3a4f: c8           	iny
    3a50: b1 10        	lda	($10),y                 ; 0x2010 <textPrint+0x144>
    3a52: 85 29        	sta	$29                     ; 0x2029 <textPrint+0x15d>
    3a54: c8           	iny
    3a55: b1 10        	lda	($10),y                 ; 0x2010 <textPrint+0x144>
    3a57: 85 28        	sta	$28                     ; 0x2028 <textPrint+0x15c>
    3a59: fa           	plx
    3a5a: 86 27        	stx	$27                     ; 0x2027 <textPrint+0x15b>
    3a5c: fa           	plx
    3a5d: 86 26        	stx	$26                     ; 0x2026 <textPrint+0x15a>
    3a5f: fa           	plx
    3a60: 86 25        	stx	$25                     ; 0x2025 <textPrint+0x159>
    3a62: fa           	plx
    3a63: 86 24        	stx	$24                     ; 0x2024 <textPrint+0x158>
    3a65: 18           	clc
    3a66: a5 10        	lda	$10                     ; 0x2010 <textPrint+0x144>
    3a68: 69 4a        	adc	#$4a
    3a6a: 85 10        	sta	$10                     ; 0x2010 <textPrint+0x144>
    3a6c: a5 11        	lda	$11                     ; 0x2011 <textPrint+0x145>
    3a6e: 69 00        	adc	#$0
    3a70: 85 11        	sta	$11                     ; 0x2011 <textPrint+0x145>
    3a72: 60           	rts

00003a73 <playmiditype0>:
    3a73: 18           	clc
    3a74: a5 10        	lda	$10                     ; 0x2010 <textPrint+0x144>
    3a76: 69 e4        	adc	#$e4
    3a78: 85 10        	sta	$10                     ; 0x2010 <textPrint+0x144>
    3a7a: a5 11        	lda	$11                     ; 0x2011 <textPrint+0x145>
    3a7c: 69 ff        	adc	#$ff
    3a7e: 85 11        	sta	$11                     ; 0x2011 <textPrint+0x145>
    3a80: a6 24        	ldx	$24                     ; 0x2024 <textPrint+0x158>
    3a82: da           	phx
    3a83: a6 25        	ldx	$25                     ; 0x2025 <textPrint+0x159>
    3a85: da           	phx
    3a86: a6 26        	ldx	$26                     ; 0x2026 <textPrint+0x15a>
    3a88: da           	phx
    3a89: a6 27        	ldx	$27                     ; 0x2027 <textPrint+0x15b>
    3a8b: da           	phx
    3a8c: a5 28        	lda	$28                     ; 0x2028 <textPrint+0x15c>
    3a8e: a0 04        	ldy	#$4
    3a90: 91 10        	sta	($10),y                 ; 0x2010 <textPrint+0x144>
    3a92: a5 29        	lda	$29                     ; 0x2029 <textPrint+0x15d>
    3a94: 88           	dey
    3a95: 91 10        	sta	($10),y                 ; 0x2010 <textPrint+0x144>
    3a97: a5 2a        	lda	$2a                     ; 0x202a <textPrint+0x15e>
    3a99: 88           	dey
    3a9a: 91 10        	sta	($10),y                 ; 0x2010 <textPrint+0x144>
    3a9c: a5 2b        	lda	$2b                     ; 0x202b <textPrint+0x15f>
    3a9e: 88           	dey
    3a9f: 91 10        	sta	($10),y                 ; 0x2010 <textPrint+0x144>
    3aa1: a5 2c        	lda	$2c                     ; 0x202c <textPrint+0x160>
    3aa3: 88           	dey
    3aa4: 91 10        	sta	($10),y                 ; 0x2010 <textPrint+0x144>
    3aa6: a5 12        	lda	$12                     ; 0x2012 <textPrint+0x146>
    3aa8: a6 13        	ldx	$13                     ; 0x2013 <textPrint+0x147>
    3aaa: 18           	clc
    3aab: 48           	pha
    3aac: a5 10        	lda	$10                     ; 0x2010 <textPrint+0x144>
    3aae: 69 1a        	adc	#$1a
    3ab0: 85 12        	sta	$12                     ; 0x2012 <textPrint+0x146>
    3ab2: a5 11        	lda	$11                     ; 0x2011 <textPrint+0x145>
    3ab4: 69 00        	adc	#$0
    3ab6: 85 13        	sta	$13                     ; 0x2013 <textPrint+0x147>
    3ab8: 68           	pla
    3ab9: 92 12        	sta	($12)                   ; 0x2012 <textPrint+0x146>
    3abb: c8           	iny
    3abc: 8a           	txa
    3abd: 91 12        	sta	($12),y                 ; 0x2012 <textPrint+0x146>
    3abf: a5 14        	lda	$14                     ; 0x2014 <textPrint+0x148>
    3ac1: 18           	clc
    3ac2: 48           	pha
    3ac3: a5 10        	lda	$10                     ; 0x2010 <textPrint+0x144>
    3ac5: 69 18        	adc	#$18
    3ac7: 85 12        	sta	$12                     ; 0x2012 <textPrint+0x146>
    3ac9: a5 11        	lda	$11                     ; 0x2011 <textPrint+0x145>
    3acb: 69 00        	adc	#$0
    3acd: 85 13        	sta	$13                     ; 0x2013 <textPrint+0x147>
    3acf: 68           	pla
    3ad0: 92 12        	sta	($12)                   ; 0x2012 <textPrint+0x146>
    3ad2: a5 15        	lda	$15                     ; 0x2015 <textPrint+0x149>
    3ad4: 91 12        	sta	($12),y                 ; 0x2012 <textPrint+0x146>
    3ad6: 18           	clc
    3ad7: a5 10        	lda	$10                     ; 0x2010 <textPrint+0x144>
    3ad9: 69 16        	adc	#$16
    3adb: 85 24        	sta	$24                     ; 0x2024 <textPrint+0x158>
    3add: a5 11        	lda	$11                     ; 0x2011 <textPrint+0x145>
    3adf: 69 00        	adc	#$0
    3ae1: 85 25        	sta	$25                     ; 0x2025 <textPrint+0x159>
    3ae3: a9 00        	lda	#$0
    3ae5: 92 24        	sta	($24)                   ; 0x2024 <textPrint+0x158>
    3ae7: 91 24        	sta	($24),y                 ; 0x2024 <textPrint+0x158>
    3ae9: 18           	clc
    3aea: 48           	pha
    3aeb: a5 10        	lda	$10                     ; 0x2010 <textPrint+0x144>
    3aed: 69 05        	adc	#$5
    3aef: 85 14        	sta	$14                     ; 0x2014 <textPrint+0x148>
    3af1: a5 11        	lda	$11                     ; 0x2011 <textPrint+0x145>
    3af3: 69 00        	adc	#$0
    3af5: 85 15        	sta	$15                     ; 0x2015 <textPrint+0x149>
    3af7: 68           	pla
    3af8: 92 14        	sta	($14)                   ; 0x2014 <textPrint+0x148>
    3afa: b2 12        	lda	($12)                   ; 0x2012 <textPrint+0x146>
    3afc: aa           	tax
    3afd: b1 12        	lda	($12),y                 ; 0x2012 <textPrint+0x146>
    3aff: 86 12        	stx	$12                     ; 0x2012 <textPrint+0x146>
    3b01: 85 13        	sta	$13                     ; 0x2013 <textPrint+0x147>
    3b03: 20 9e 2d     	jsr	$2d9e <getTotalLeft>
    3b06: 92 24        	sta	($24)                   ; 0x2024 <textPrint+0x158>
    3b08: a0 01        	ldy	#$1
    3b0a: 8a           	txa
    3b0b: 91 24        	sta	($24),y                 ; 0x2024 <textPrint+0x158>
    3b0d: 18           	clc
    3b0e: a5 10        	lda	$10                     ; 0x2010 <textPrint+0x144>
    3b10: 69 16        	adc	#$16
    3b12: 85 12        	sta	$12                     ; 0x2012 <textPrint+0x146>
    3b14: a5 11        	lda	$11                     ; 0x2011 <textPrint+0x145>
    3b16: 69 00        	adc	#$0
    3b18: 85 13        	sta	$13                     ; 0x2013 <textPrint+0x147>
    3b1a: b2 12        	lda	($12)                   ; 0x2012 <textPrint+0x146>
    3b1c: 85 14        	sta	$14                     ; 0x2014 <textPrint+0x148>
    3b1e: a0 01        	ldy	#$1
    3b20: b1 12        	lda	($12),y                 ; 0x2012 <textPrint+0x146>
    3b22: c9 00        	cmp	#$0
    3b24: a2 01        	ldx	#$1
    3b26: b0 02        	bcs	$3b2a <playmiditype0+0xb7>
    3b28: a2 00        	ldx	#$0
    3b2a: 86 12        	stx	$12                     ; 0x2012 <textPrint+0x146>
    3b2c: aa           	tax
    3b2d: f0 02        	beq	$3b31 <playmiditype0+0xbe>
    3b2f: 80 0a        	bra	$3b3b <playmiditype0+0xc8>
    3b31: a6 14        	ldx	$14                     ; 0x2014 <textPrint+0x148>
    3b33: e0 01        	cpx	#$1
    3b35: a2 00        	ldx	#$0
    3b37: 90 28        	bcc	$3b61 <playmiditype0+0xee>
    3b39: 80 08        	bra	$3b43 <playmiditype0+0xd0>
    3b3b: a2 00        	ldx	#$0
    3b3d: a5 12        	lda	$12                     ; 0x2012 <textPrint+0x146>
    3b3f: f0 20        	beq	$3b61 <playmiditype0+0xee>
    3b41: 80 00        	bra	$3b43 <playmiditype0+0xd0>
    3b43: 80 00        	bra	$3b45 <playmiditype0+0xd2>
    3b45: 18           	clc
    3b46: a5 10        	lda	$10                     ; 0x2010 <textPrint+0x144>
    3b48: 69 05        	adc	#$5
    3b4a: 85 12        	sta	$12                     ; 0x2012 <textPrint+0x146>
    3b4c: a5 11        	lda	$11                     ; 0x2011 <textPrint+0x145>
    3b4e: 69 00        	adc	#$0
    3b50: 85 13        	sta	$13                     ; 0x2013 <textPrint+0x147>
    3b52: b2 12        	lda	($12)                   ; 0x2012 <textPrint+0x146>
    3b54: a2 01        	ldx	#$1
    3b56: a8           	tay
    3b57: f0 02        	beq	$3b5b <playmiditype0+0xe8>
    3b59: 80 02        	bra	$3b5d <playmiditype0+0xea>
    3b5b: 80 04        	bra	$3b61 <playmiditype0+0xee>
    3b5d: a2 00        	ldx	#$0
    3b5f: 80 00        	bra	$3b61 <playmiditype0+0xee>
    3b61: 8a           	txa
    3b62: d0 03        	bne	$3b67 <playmiditype0+0xf4>
    3b64: 4c b7 41     	jmp	$41b7 <playmiditype0+0x744>
    3b67: 18           	clc
    3b68: a5 10        	lda	$10                     ; 0x2010 <textPrint+0x144>
    3b6a: 69 18        	adc	#$18
    3b6c: 85 12        	sta	$12                     ; 0x2012 <textPrint+0x146>
    3b6e: a5 11        	lda	$11                     ; 0x2011 <textPrint+0x145>
    3b70: 69 00        	adc	#$0
    3b72: 85 13        	sta	$13                     ; 0x2013 <textPrint+0x147>
    3b74: b2 12        	lda	($12)                   ; 0x2012 <textPrint+0x146>
    3b76: aa           	tax
    3b77: a0 01        	ldy	#$1
    3b79: b1 12        	lda	($12),y                 ; 0x2012 <textPrint+0x146>
    3b7b: 86 12        	stx	$12                     ; 0x2012 <textPrint+0x146>
    3b7d: 85 13        	sta	$13                     ; 0x2013 <textPrint+0x147>
    3b7f: a8           	tay
    3b80: 18           	clc
    3b81: 8a           	txa
    3b82: 69 03        	adc	#$3
    3b84: 85 14        	sta	$14                     ; 0x2014 <textPrint+0x148>
    3b86: 98           	tya
    3b87: 69 00        	adc	#$0
    3b89: 85 15        	sta	$15                     ; 0x2015 <textPrint+0x149>
    3b8b: a0 03        	ldy	#$3
    3b8d: b1 12        	lda	($12),y                 ; 0x2012 <textPrint+0x146>
    3b8f: 85 12        	sta	$12                     ; 0x2012 <textPrint+0x146>
    3b91: a0 01        	ldy	#$1
    3b93: b1 14        	lda	($14),y                 ; 0x2014 <textPrint+0x148>
    3b95: aa           	tax
    3b96: a5 12        	lda	$12                     ; 0x2012 <textPrint+0x146>
    3b98: 85 14        	sta	$14                     ; 0x2014 <textPrint+0x148>
    3b9a: 86 15        	stx	$15                     ; 0x2015 <textPrint+0x149>
    3b9c: 18           	clc
    3b9d: 69 03        	adc	#$3
    3b9f: 85 12        	sta	$12                     ; 0x2012 <textPrint+0x146>
    3ba1: 8a           	txa
    3ba2: 69 00        	adc	#$0
    3ba4: 85 13        	sta	$13                     ; 0x2013 <textPrint+0x147>
    3ba6: a0 03        	ldy	#$3
    3ba8: b1 14        	lda	($14),y                 ; 0x2014 <textPrint+0x148>
    3baa: 18           	clc
    3bab: 48           	pha
    3bac: a5 10        	lda	$10                     ; 0x2010 <textPrint+0x144>
    3bae: 69 12        	adc	#$12
    3bb0: 85 24        	sta	$24                     ; 0x2024 <textPrint+0x158>
    3bb2: a5 11        	lda	$11                     ; 0x2011 <textPrint+0x145>
    3bb4: 69 00        	adc	#$0
    3bb6: 85 25        	sta	$25                     ; 0x2025 <textPrint+0x159>
    3bb8: 68           	pla
    3bb9: 92 24        	sta	($24)                   ; 0x2024 <textPrint+0x158>
    3bbb: a0 01        	ldy	#$1
    3bbd: b1 12        	lda	($12),y                 ; 0x2012 <textPrint+0x146>
    3bbf: 91 24        	sta	($24),y                 ; 0x2024 <textPrint+0x158>
    3bc1: a0 01        	ldy	#$1
    3bc3: 18           	clc
    3bc4: a5 10        	lda	$10                     ; 0x2010 <textPrint+0x144>
    3bc6: 69 1a        	adc	#$1a
    3bc8: 85 26        	sta	$26                     ; 0x2026 <textPrint+0x15a>
    3bca: a5 11        	lda	$11                     ; 0x2011 <textPrint+0x145>
    3bcc: 69 00        	adc	#$0
    3bce: 85 27        	sta	$27                     ; 0x2027 <textPrint+0x15b>
    3bd0: b2 26        	lda	($26)                   ; 0x2026 <textPrint+0x15a>
    3bd2: aa           	tax
    3bd3: b1 26        	lda	($26),y                 ; 0x2026 <textPrint+0x15a>
    3bd5: 86 14        	stx	$14                     ; 0x2014 <textPrint+0x148>
    3bd7: 85 15        	sta	$15                     ; 0x2015 <textPrint+0x149>
    3bd9: 85 16        	sta	$16                     ; 0x2016 <textPrint+0x14a>
    3bdb: a0 20        	ldy	#$20
    3bdd: b1 14        	lda	($14),y                 ; 0x2014 <textPrint+0x148>
    3bdf: 85 14        	sta	$14                     ; 0x2014 <textPrint+0x148>
    3be1: a0 02        	ldy	#$2
    3be3: b1 12        	lda	($12),y                 ; 0x2012 <textPrint+0x146>
    3be5: 91 24        	sta	($24),y                 ; 0x2024 <textPrint+0x158>
    3be7: c8           	iny
    3be8: b1 12        	lda	($12),y                 ; 0x2012 <textPrint+0x146>
    3bea: 91 24        	sta	($24),y                 ; 0x2024 <textPrint+0x158>
    3bec: 18           	clc
    3bed: 8a           	txa
    3bee: 69 20        	adc	#$20
    3bf0: 85 12        	sta	$12                     ; 0x2012 <textPrint+0x146>
    3bf2: a5 16        	lda	$16                     ; 0x2016 <textPrint+0x14a>
    3bf4: 69 00        	adc	#$0
    3bf6: 85 13        	sta	$13                     ; 0x2013 <textPrint+0x147>
    3bf8: a0 01        	ldy	#$1
    3bfa: b1 12        	lda	($12),y                 ; 0x2012 <textPrint+0x146>
    3bfc: a6 14        	ldx	$14                     ; 0x2014 <textPrint+0x148>
    3bfe: 86 12        	stx	$12                     ; 0x2012 <textPrint+0x146>
    3c00: 85 13        	sta	$13                     ; 0x2013 <textPrint+0x147>
    3c02: b2 12        	lda	($12)                   ; 0x2012 <textPrint+0x146>
    3c04: aa           	tax
    3c05: b1 12        	lda	($12),y                 ; 0x2012 <textPrint+0x146>
    3c07: 85 12        	sta	$12                     ; 0x2012 <textPrint+0x146>
    3c09: a0 01        	ldy	#$1
    3c0b: 8a           	txa
    3c0c: 0a           	asl
    3c0d: 26 12        	rol	$12                     ; 0x2012 <textPrint+0x146>
    3c0f: 64 13        	stz	$13                     ; 0x2013 <textPrint+0x147>
    3c11: 26 13        	rol	$13                     ; 0x2013 <textPrint+0x147>
    3c13: 64 14        	stz	$14                     ; 0x2014 <textPrint+0x148>
    3c15: 26 14        	rol	$14                     ; 0x2014 <textPrint+0x148>
    3c17: 0a           	asl
    3c18: 26 12        	rol	$12                     ; 0x2012 <textPrint+0x146>
    3c1a: 26 13        	rol	$13                     ; 0x2013 <textPrint+0x147>
    3c1c: 26 14        	rol	$14                     ; 0x2014 <textPrint+0x148>
    3c1e: 0a           	asl
    3c1f: 26 12        	rol	$12                     ; 0x2012 <textPrint+0x146>
    3c21: 26 13        	rol	$13                     ; 0x2013 <textPrint+0x147>
    3c23: 26 14        	rol	$14                     ; 0x2014 <textPrint+0x148>
    3c25: 18           	clc
    3c26: 72 24        	adc	($24)                   ; 0x2024 <textPrint+0x158>
    3c28: aa           	tax
    3c29: a5 12        	lda	$12                     ; 0x2012 <textPrint+0x146>
    3c2b: 71 24        	adc	($24),y                 ; 0x2024 <textPrint+0x158>
    3c2d: 85 12        	sta	$12                     ; 0x2012 <textPrint+0x146>
    3c2f: c8           	iny
    3c30: a5 13        	lda	$13                     ; 0x2013 <textPrint+0x147>
    3c32: 71 24        	adc	($24),y                 ; 0x2024 <textPrint+0x158>
    3c34: 85 13        	sta	$13                     ; 0x2013 <textPrint+0x147>
    3c36: a5 14        	lda	$14                     ; 0x2014 <textPrint+0x148>
    3c38: c8           	iny
    3c39: 71 24        	adc	($24),y                 ; 0x2024 <textPrint+0x158>
    3c3b: 85 14        	sta	$14                     ; 0x2014 <textPrint+0x148>
    3c3d: 8a           	txa
    3c3e: 92 24        	sta	($24)                   ; 0x2024 <textPrint+0x158>
    3c40: a5 12        	lda	$12                     ; 0x2012 <textPrint+0x146>
    3c42: a0 01        	ldy	#$1
    3c44: 91 24        	sta	($24),y                 ; 0x2024 <textPrint+0x158>
    3c46: a5 13        	lda	$13                     ; 0x2013 <textPrint+0x147>
    3c48: c8           	iny
    3c49: 91 24        	sta	($24),y                 ; 0x2024 <textPrint+0x158>
    3c4b: a5 14        	lda	$14                     ; 0x2014 <textPrint+0x148>
    3c4d: c8           	iny
    3c4e: 91 24        	sta	($24),y                 ; 0x2024 <textPrint+0x158>
    3c50: b2 26        	lda	($26)                   ; 0x2026 <textPrint+0x15a>
    3c52: 85 12        	sta	$12                     ; 0x2012 <textPrint+0x146>
    3c54: a0 01        	ldy	#$1
    3c56: b1 26        	lda	($26),y                 ; 0x2026 <textPrint+0x15a>
    3c58: aa           	tax
    3c59: a5 12        	lda	$12                     ; 0x2012 <textPrint+0x146>
    3c5b: 86 13        	stx	$13                     ; 0x2013 <textPrint+0x147>
    3c5d: 18           	clc
    3c5e: 69 30        	adc	#$30
    3c60: 85 14        	sta	$14                     ; 0x2014 <textPrint+0x148>
    3c62: 8a           	txa
    3c63: 69 00        	adc	#$0
    3c65: 85 15        	sta	$15                     ; 0x2015 <textPrint+0x149>
    3c67: a0 30        	ldy	#$30
    3c69: b1 12        	lda	($12),y                 ; 0x2012 <textPrint+0x146>
    3c6b: 85 12        	sta	$12                     ; 0x2012 <textPrint+0x146>
    3c6d: a0 01        	ldy	#$1
    3c6f: b1 24        	lda	($24),y                 ; 0x2024 <textPrint+0x158>
    3c71: aa           	tax
    3c72: c8           	iny
    3c73: b1 24        	lda	($24),y                 ; 0x2024 <textPrint+0x158>
    3c75: 85 17        	sta	$17                     ; 0x2017 <textPrint+0x14b>
    3c77: c8           	iny
    3c78: b1 24        	lda	($24),y                 ; 0x2024 <textPrint+0x158>
    3c7a: 85 13        	sta	$13                     ; 0x2013 <textPrint+0x147>
    3c7c: 18           	clc
    3c7d: a5 12        	lda	$12                     ; 0x2012 <textPrint+0x146>
    3c7f: 72 24        	adc	($24)                   ; 0x2024 <textPrint+0x158>
    3c81: 85 16        	sta	$16                     ; 0x2016 <textPrint+0x14a>
    3c83: 8a           	txa
    3c84: a0 01        	ldy	#$1
    3c86: 71 14        	adc	($14),y                 ; 0x2014 <textPrint+0x148>
    3c88: aa           	tax
    3c89: c8           	iny
    3c8a: a5 17        	lda	$17                     ; 0x2017 <textPrint+0x14b>
    3c8c: 71 14        	adc	($14),y                 ; 0x2014 <textPrint+0x148>
    3c8e: 85 12        	sta	$12                     ; 0x2012 <textPrint+0x146>
    3c90: a5 13        	lda	$13                     ; 0x2013 <textPrint+0x147>
    3c92: c8           	iny
    3c93: 71 14        	adc	($14),y                 ; 0x2014 <textPrint+0x148>
    3c95: 85 13        	sta	$13                     ; 0x2013 <textPrint+0x147>
    3c97: a5 16        	lda	$16                     ; 0x2016 <textPrint+0x14a>
    3c99: 20 3f 17     	jsr	$173f <FAR_PEEK>
    3c9c: 85 2a        	sta	$2a                     ; 0x202a <textPrint+0x15e>
    3c9e: b2 26        	lda	($26)                   ; 0x2026 <textPrint+0x15a>
    3ca0: 85 12        	sta	$12                     ; 0x2012 <textPrint+0x146>
    3ca2: a0 01        	ldy	#$1
    3ca4: b1 26        	lda	($26),y                 ; 0x2026 <textPrint+0x15a>
    3ca6: aa           	tax
    3ca7: a5 12        	lda	$12                     ; 0x2012 <textPrint+0x146>
    3ca9: 86 13        	stx	$13                     ; 0x2013 <textPrint+0x147>
    3cab: 18           	clc
    3cac: 69 30        	adc	#$30
    3cae: 85 14        	sta	$14                     ; 0x2014 <textPrint+0x148>
    3cb0: 8a           	txa
    3cb1: 69 00        	adc	#$0
    3cb3: 85 15        	sta	$15                     ; 0x2015 <textPrint+0x149>
    3cb5: a0 30        	ldy	#$30
    3cb7: b1 12        	lda	($12),y                 ; 0x2012 <textPrint+0x146>
    3cb9: 85 12        	sta	$12                     ; 0x2012 <textPrint+0x146>
    3cbb: a0 01        	ldy	#$1
    3cbd: b1 24        	lda	($24),y                 ; 0x2024 <textPrint+0x158>
    3cbf: 85 17        	sta	$17                     ; 0x2017 <textPrint+0x14b>
    3cc1: c8           	iny
    3cc2: b1 24        	lda	($24),y                 ; 0x2024 <textPrint+0x158>
    3cc4: 85 13        	sta	$13                     ; 0x2013 <textPrint+0x147>
    3cc6: c8           	iny
    3cc7: b1 24        	lda	($24),y                 ; 0x2024 <textPrint+0x158>
    3cc9: aa           	tax
    3cca: 18           	clc
    3ccb: a5 12        	lda	$12                     ; 0x2012 <textPrint+0x146>
    3ccd: 72 24        	adc	($24)                   ; 0x2024 <textPrint+0x158>
    3ccf: 85 16        	sta	$16                     ; 0x2016 <textPrint+0x14a>
    3cd1: a5 17        	lda	$17                     ; 0x2017 <textPrint+0x14b>
    3cd3: a0 01        	ldy	#$1
    3cd5: 71 14        	adc	($14),y                 ; 0x2014 <textPrint+0x148>
    3cd7: 85 17        	sta	$17                     ; 0x2017 <textPrint+0x14b>
    3cd9: a5 13        	lda	$13                     ; 0x2013 <textPrint+0x147>
    3cdb: c8           	iny
    3cdc: 71 14        	adc	($14),y                 ; 0x2014 <textPrint+0x148>
    3cde: 85 12        	sta	$12                     ; 0x2012 <textPrint+0x146>
    3ce0: 8a           	txa
    3ce1: c8           	iny
    3ce2: 71 14        	adc	($14),y                 ; 0x2014 <textPrint+0x148>
    3ce4: a6 17        	ldx	$17                     ; 0x2017 <textPrint+0x14b>
    3ce6: e6 16        	inc	$16                     ; 0x2016 <textPrint+0x14a>
    3ce8: f0 03        	beq	$3ced <playmiditype0+0x27a>
    3cea: 4c 04 3d     	jmp	$3d04 <playmiditype0+0x291>
    3ced: e8           	inx
    3cee: f0 03        	beq	$3cf3 <playmiditype0+0x280>
    3cf0: 4c 01 3d     	jmp	$3d01 <playmiditype0+0x28e>
    3cf3: e6 12        	inc	$12                     ; 0x2012 <textPrint+0x146>
    3cf5: f0 03        	beq	$3cfa <playmiditype0+0x287>
    3cf7: 4c fe 3c     	jmp	$3cfe <playmiditype0+0x28b>
    3cfa: 1a           	inc
    3cfb: 4c fe 3c     	jmp	$3cfe <playmiditype0+0x28b>
    3cfe: 4c 01 3d     	jmp	$3d01 <playmiditype0+0x28e>
    3d01: 4c 04 3d     	jmp	$3d04 <playmiditype0+0x291>
    3d04: 85 13        	sta	$13                     ; 0x2013 <textPrint+0x147>
    3d06: a5 16        	lda	$16                     ; 0x2016 <textPrint+0x14a>
    3d08: 20 3f 17     	jsr	$173f <FAR_PEEK>
    3d0b: 85 2b        	sta	$2b                     ; 0x202b <textPrint+0x15f>
    3d0d: b2 26        	lda	($26)                   ; 0x2026 <textPrint+0x15a>
    3d0f: 85 12        	sta	$12                     ; 0x2012 <textPrint+0x146>
    3d11: a0 01        	ldy	#$1
    3d13: b1 26        	lda	($26),y                 ; 0x2026 <textPrint+0x15a>
    3d15: aa           	tax
    3d16: a5 12        	lda	$12                     ; 0x2012 <textPrint+0x146>
    3d18: 86 13        	stx	$13                     ; 0x2013 <textPrint+0x147>
    3d1a: 18           	clc
    3d1b: 69 30        	adc	#$30
    3d1d: 85 14        	sta	$14                     ; 0x2014 <textPrint+0x148>
    3d1f: 8a           	txa
    3d20: 69 00        	adc	#$0
    3d22: 85 15        	sta	$15                     ; 0x2015 <textPrint+0x149>
    3d24: a0 30        	ldy	#$30
    3d26: b1 12        	lda	($12),y                 ; 0x2012 <textPrint+0x146>
    3d28: 85 12        	sta	$12                     ; 0x2012 <textPrint+0x146>
    3d2a: a0 01        	ldy	#$1
    3d2c: b1 24        	lda	($24),y                 ; 0x2024 <textPrint+0x158>
    3d2e: 85 17        	sta	$17                     ; 0x2017 <textPrint+0x14b>
    3d30: c8           	iny
    3d31: b1 24        	lda	($24),y                 ; 0x2024 <textPrint+0x158>
    3d33: 85 16        	sta	$16                     ; 0x2016 <textPrint+0x14a>
    3d35: c8           	iny
    3d36: b1 24        	lda	($24),y                 ; 0x2024 <textPrint+0x158>
    3d38: 85 13        	sta	$13                     ; 0x2013 <textPrint+0x147>
    3d3a: 18           	clc
    3d3b: a5 12        	lda	$12                     ; 0x2012 <textPrint+0x146>
    3d3d: 72 24        	adc	($24)                   ; 0x2024 <textPrint+0x158>
    3d3f: 85 12        	sta	$12                     ; 0x2012 <textPrint+0x146>
    3d41: a5 17        	lda	$17                     ; 0x2017 <textPrint+0x14b>
    3d43: a0 01        	ldy	#$1
    3d45: 71 14        	adc	($14),y                 ; 0x2014 <textPrint+0x148>
    3d47: 85 17        	sta	$17                     ; 0x2017 <textPrint+0x14b>
    3d49: c8           	iny
    3d4a: a5 16        	lda	$16                     ; 0x2016 <textPrint+0x14a>
    3d4c: 71 14        	adc	($14),y                 ; 0x2014 <textPrint+0x148>
    3d4e: 85 16        	sta	$16                     ; 0x2016 <textPrint+0x14a>
    3d50: c8           	iny
    3d51: a5 13        	lda	$13                     ; 0x2013 <textPrint+0x147>
    3d53: 71 14        	adc	($14),y                 ; 0x2014 <textPrint+0x148>
    3d55: 85 13        	sta	$13                     ; 0x2013 <textPrint+0x147>
    3d57: 18           	clc
    3d58: a5 12        	lda	$12                     ; 0x2012 <textPrint+0x146>
    3d5a: 69 02        	adc	#$2
    3d5c: a8           	tay
    3d5d: a5 17        	lda	$17                     ; 0x2017 <textPrint+0x14b>
    3d5f: 69 00        	adc	#$0
    3d61: aa           	tax
    3d62: a5 16        	lda	$16                     ; 0x2016 <textPrint+0x14a>
    3d64: 69 00        	adc	#$0
    3d66: 85 12        	sta	$12                     ; 0x2012 <textPrint+0x146>
    3d68: a5 13        	lda	$13                     ; 0x2013 <textPrint+0x147>
    3d6a: 69 00        	adc	#$0
    3d6c: 85 13        	sta	$13                     ; 0x2013 <textPrint+0x147>
    3d6e: 98           	tya
    3d6f: 20 3f 17     	jsr	$173f <FAR_PEEK>
    3d72: 85 2c        	sta	$2c                     ; 0x202c <textPrint+0x160>
    3d74: b2 26        	lda	($26)                   ; 0x2026 <textPrint+0x15a>
    3d76: 85 12        	sta	$12                     ; 0x2012 <textPrint+0x146>
    3d78: a0 01        	ldy	#$1
    3d7a: b1 26        	lda	($26),y                 ; 0x2026 <textPrint+0x15a>
    3d7c: aa           	tax
    3d7d: a5 12        	lda	$12                     ; 0x2012 <textPrint+0x146>
    3d7f: 86 13        	stx	$13                     ; 0x2013 <textPrint+0x147>
    3d81: 18           	clc
    3d82: 69 30        	adc	#$30
    3d84: 85 14        	sta	$14                     ; 0x2014 <textPrint+0x148>
    3d86: 8a           	txa
    3d87: 69 00        	adc	#$0
    3d89: 85 15        	sta	$15                     ; 0x2015 <textPrint+0x149>
    3d8b: a0 30        	ldy	#$30
    3d8d: b1 12        	lda	($12),y                 ; 0x2012 <textPrint+0x146>
    3d8f: 85 12        	sta	$12                     ; 0x2012 <textPrint+0x146>
    3d91: a0 01        	ldy	#$1
    3d93: b1 24        	lda	($24),y                 ; 0x2024 <textPrint+0x158>
    3d95: 85 17        	sta	$17                     ; 0x2017 <textPrint+0x14b>
    3d97: c8           	iny
    3d98: b1 24        	lda	($24),y                 ; 0x2024 <textPrint+0x158>
    3d9a: 85 13        	sta	$13                     ; 0x2013 <textPrint+0x147>
    3d9c: c8           	iny
    3d9d: b1 24        	lda	($24),y                 ; 0x2024 <textPrint+0x158>
    3d9f: 85 16        	sta	$16                     ; 0x2016 <textPrint+0x14a>
    3da1: 18           	clc
    3da2: a5 12        	lda	$12                     ; 0x2012 <textPrint+0x146>
    3da4: 72 24        	adc	($24)                   ; 0x2024 <textPrint+0x158>
    3da6: 85 12        	sta	$12                     ; 0x2012 <textPrint+0x146>
    3da8: a5 17        	lda	$17                     ; 0x2017 <textPrint+0x14b>
    3daa: a0 01        	ldy	#$1
    3dac: 71 14        	adc	($14),y                 ; 0x2014 <textPrint+0x148>
    3dae: 85 17        	sta	$17                     ; 0x2017 <textPrint+0x14b>
    3db0: a5 13        	lda	$13                     ; 0x2013 <textPrint+0x147>
    3db2: c8           	iny
    3db3: 71 14        	adc	($14),y                 ; 0x2014 <textPrint+0x148>
    3db5: 85 13        	sta	$13                     ; 0x2013 <textPrint+0x147>
    3db7: a5 16        	lda	$16                     ; 0x2016 <textPrint+0x14a>
    3db9: c8           	iny
    3dba: 71 14        	adc	($14),y                 ; 0x2014 <textPrint+0x148>
    3dbc: aa           	tax
    3dbd: 18           	clc
    3dbe: a5 12        	lda	$12                     ; 0x2012 <textPrint+0x146>
    3dc0: 69 03        	adc	#$3
    3dc2: a8           	tay
    3dc3: a5 17        	lda	$17                     ; 0x2017 <textPrint+0x14b>
    3dc5: 69 00        	adc	#$0
    3dc7: 85 14        	sta	$14                     ; 0x2014 <textPrint+0x148>
    3dc9: a5 13        	lda	$13                     ; 0x2013 <textPrint+0x147>
    3dcb: 69 00        	adc	#$0
    3dcd: 85 12        	sta	$12                     ; 0x2012 <textPrint+0x146>
    3dcf: 8a           	txa
    3dd0: 69 00        	adc	#$0
    3dd2: 85 13        	sta	$13                     ; 0x2013 <textPrint+0x147>
    3dd4: a6 14        	ldx	$14                     ; 0x2014 <textPrint+0x148>
    3dd6: 98           	tya
    3dd7: 20 3f 17     	jsr	$173f <FAR_PEEK>
    3dda: aa           	tax
    3ddb: 18           	clc
    3ddc: a5 10        	lda	$10                     ; 0x2010 <textPrint+0x144>
    3dde: 69 06        	adc	#$6
    3de0: 85 28        	sta	$28                     ; 0x2028 <textPrint+0x15c>
    3de2: a5 11        	lda	$11                     ; 0x2011 <textPrint+0x145>
    3de4: 69 00        	adc	#$0
    3de6: 85 29        	sta	$29                     ; 0x2029 <textPrint+0x15d>
    3de8: a5 2a        	lda	$2a                     ; 0x202a <textPrint+0x15e>
    3dea: 92 28        	sta	($28)                   ; 0x2028 <textPrint+0x15c>
    3dec: a0 01        	ldy	#$1
    3dee: a5 2b        	lda	$2b                     ; 0x202b <textPrint+0x15f>
    3df0: 91 28        	sta	($28),y                 ; 0x2028 <textPrint+0x15c>
    3df2: a5 2c        	lda	$2c                     ; 0x202c <textPrint+0x160>
    3df4: c8           	iny
    3df5: 91 28        	sta	($28),y                 ; 0x2028 <textPrint+0x15c>
    3df7: c8           	iny
    3df8: 8a           	txa
    3df9: 91 28        	sta	($28),y                 ; 0x2028 <textPrint+0x15c>
    3dfb: b2 26        	lda	($26)                   ; 0x2026 <textPrint+0x15a>
    3dfd: 85 12        	sta	$12                     ; 0x2012 <textPrint+0x146>
    3dff: a0 01        	ldy	#$1
    3e01: b1 26        	lda	($26),y                 ; 0x2026 <textPrint+0x15a>
    3e03: aa           	tax
    3e04: a5 12        	lda	$12                     ; 0x2012 <textPrint+0x146>
    3e06: 86 13        	stx	$13                     ; 0x2013 <textPrint+0x147>
    3e08: 18           	clc
    3e09: 69 30        	adc	#$30
    3e0b: 85 14        	sta	$14                     ; 0x2014 <textPrint+0x148>
    3e0d: 8a           	txa
    3e0e: 69 00        	adc	#$0
    3e10: 85 15        	sta	$15                     ; 0x2015 <textPrint+0x149>
    3e12: a0 30        	ldy	#$30
    3e14: b1 12        	lda	($12),y                 ; 0x2012 <textPrint+0x146>
    3e16: 85 12        	sta	$12                     ; 0x2012 <textPrint+0x146>
    3e18: a0 01        	ldy	#$1
    3e1a: b1 24        	lda	($24),y                 ; 0x2024 <textPrint+0x158>
    3e1c: 85 17        	sta	$17                     ; 0x2017 <textPrint+0x14b>
    3e1e: c8           	iny
    3e1f: b1 24        	lda	($24),y                 ; 0x2024 <textPrint+0x158>
    3e21: 85 13        	sta	$13                     ; 0x2013 <textPrint+0x147>
    3e23: c8           	iny
    3e24: b1 24        	lda	($24),y                 ; 0x2024 <textPrint+0x158>
    3e26: 85 16        	sta	$16                     ; 0x2016 <textPrint+0x14a>
    3e28: 18           	clc
    3e29: a5 12        	lda	$12                     ; 0x2012 <textPrint+0x146>
    3e2b: 72 24        	adc	($24)                   ; 0x2024 <textPrint+0x158>
    3e2d: 85 12        	sta	$12                     ; 0x2012 <textPrint+0x146>
    3e2f: a5 17        	lda	$17                     ; 0x2017 <textPrint+0x14b>
    3e31: a0 01        	ldy	#$1
    3e33: 71 14        	adc	($14),y                 ; 0x2014 <textPrint+0x148>
    3e35: 85 17        	sta	$17                     ; 0x2017 <textPrint+0x14b>
    3e37: a5 13        	lda	$13                     ; 0x2013 <textPrint+0x147>
    3e39: c8           	iny
    3e3a: 71 14        	adc	($14),y                 ; 0x2014 <textPrint+0x148>
    3e3c: 85 13        	sta	$13                     ; 0x2013 <textPrint+0x147>
    3e3e: a5 16        	lda	$16                     ; 0x2016 <textPrint+0x14a>
    3e40: c8           	iny
    3e41: 71 14        	adc	($14),y                 ; 0x2014 <textPrint+0x148>
    3e43: aa           	tax
    3e44: 18           	clc
    3e45: a5 12        	lda	$12                     ; 0x2012 <textPrint+0x146>
    3e47: 69 04        	adc	#$4
    3e49: a8           	tay
    3e4a: a5 17        	lda	$17                     ; 0x2017 <textPrint+0x14b>
    3e4c: 69 00        	adc	#$0
    3e4e: 85 14        	sta	$14                     ; 0x2014 <textPrint+0x148>
    3e50: a5 13        	lda	$13                     ; 0x2013 <textPrint+0x147>
    3e52: 69 00        	adc	#$0
    3e54: 85 12        	sta	$12                     ; 0x2012 <textPrint+0x146>
    3e56: 8a           	txa
    3e57: 69 00        	adc	#$0
    3e59: 85 13        	sta	$13                     ; 0x2013 <textPrint+0x147>
    3e5b: a6 14        	ldx	$14                     ; 0x2014 <textPrint+0x148>
    3e5d: 98           	tya
    3e5e: 20 3f 17     	jsr	$173f <FAR_PEEK>
    3e61: a0 04        	ldy	#$4
    3e63: 91 28        	sta	($28),y                 ; 0x2028 <textPrint+0x15c>
    3e65: b2 26        	lda	($26)                   ; 0x2026 <textPrint+0x15a>
    3e67: 85 12        	sta	$12                     ; 0x2012 <textPrint+0x146>
    3e69: a0 01        	ldy	#$1
    3e6b: b1 26        	lda	($26),y                 ; 0x2026 <textPrint+0x15a>
    3e6d: aa           	tax
    3e6e: a5 12        	lda	$12                     ; 0x2012 <textPrint+0x146>
    3e70: 86 13        	stx	$13                     ; 0x2013 <textPrint+0x147>
    3e72: 18           	clc
    3e73: 69 30        	adc	#$30
    3e75: 85 14        	sta	$14                     ; 0x2014 <textPrint+0x148>
    3e77: 8a           	txa
    3e78: 69 00        	adc	#$0
    3e7a: 85 15        	sta	$15                     ; 0x2015 <textPrint+0x149>
    3e7c: a0 30        	ldy	#$30
    3e7e: b1 12        	lda	($12),y                 ; 0x2012 <textPrint+0x146>
    3e80: 85 12        	sta	$12                     ; 0x2012 <textPrint+0x146>
    3e82: a0 01        	ldy	#$1
    3e84: b1 24        	lda	($24),y                 ; 0x2024 <textPrint+0x158>
    3e86: 85 17        	sta	$17                     ; 0x2017 <textPrint+0x14b>
    3e88: c8           	iny
    3e89: b1 24        	lda	($24),y                 ; 0x2024 <textPrint+0x158>
    3e8b: 85 16        	sta	$16                     ; 0x2016 <textPrint+0x14a>
    3e8d: c8           	iny
    3e8e: b1 24        	lda	($24),y                 ; 0x2024 <textPrint+0x158>
    3e90: 85 13        	sta	$13                     ; 0x2013 <textPrint+0x147>
    3e92: 18           	clc
    3e93: a5 12        	lda	$12                     ; 0x2012 <textPrint+0x146>
    3e95: 72 24        	adc	($24)                   ; 0x2024 <textPrint+0x158>
    3e97: 85 12        	sta	$12                     ; 0x2012 <textPrint+0x146>
    3e99: a5 17        	lda	$17                     ; 0x2017 <textPrint+0x14b>
    3e9b: a0 01        	ldy	#$1
    3e9d: 71 14        	adc	($14),y                 ; 0x2014 <textPrint+0x148>
    3e9f: 85 17        	sta	$17                     ; 0x2017 <textPrint+0x14b>
    3ea1: c8           	iny
    3ea2: a5 16        	lda	$16                     ; 0x2016 <textPrint+0x14a>
    3ea4: 71 14        	adc	($14),y                 ; 0x2014 <textPrint+0x148>
    3ea6: 85 16        	sta	$16                     ; 0x2016 <textPrint+0x14a>
    3ea8: a5 13        	lda	$13                     ; 0x2013 <textPrint+0x147>
    3eaa: c8           	iny
    3eab: 71 14        	adc	($14),y                 ; 0x2014 <textPrint+0x148>
    3ead: 85 13        	sta	$13                     ; 0x2013 <textPrint+0x147>
    3eaf: 18           	clc
    3eb0: a5 12        	lda	$12                     ; 0x2012 <textPrint+0x146>
    3eb2: 69 05        	adc	#$5
    3eb4: a8           	tay
    3eb5: a5 17        	lda	$17                     ; 0x2017 <textPrint+0x14b>
    3eb7: 69 00        	adc	#$0
    3eb9: aa           	tax
    3eba: a5 16        	lda	$16                     ; 0x2016 <textPrint+0x14a>
    3ebc: 69 00        	adc	#$0
    3ebe: 85 12        	sta	$12                     ; 0x2012 <textPrint+0x146>
    3ec0: a5 13        	lda	$13                     ; 0x2013 <textPrint+0x147>
    3ec2: 69 00        	adc	#$0
    3ec4: 85 13        	sta	$13                     ; 0x2013 <textPrint+0x147>
    3ec6: 98           	tya
    3ec7: 20 3f 17     	jsr	$173f <FAR_PEEK>
    3eca: a0 05        	ldy	#$5
    3ecc: 91 28        	sta	($28),y                 ; 0x2028 <textPrint+0x15c>
    3ece: b2 26        	lda	($26)                   ; 0x2026 <textPrint+0x15a>
    3ed0: 85 12        	sta	$12                     ; 0x2012 <textPrint+0x146>
    3ed2: a0 01        	ldy	#$1
    3ed4: b1 26        	lda	($26),y                 ; 0x2026 <textPrint+0x15a>
    3ed6: aa           	tax
    3ed7: a5 12        	lda	$12                     ; 0x2012 <textPrint+0x146>
    3ed9: 86 13        	stx	$13                     ; 0x2013 <textPrint+0x147>
    3edb: 18           	clc
    3edc: 69 30        	adc	#$30
    3ede: 85 14        	sta	$14                     ; 0x2014 <textPrint+0x148>
    3ee0: 8a           	txa
    3ee1: 69 00        	adc	#$0
    3ee3: 85 15        	sta	$15                     ; 0x2015 <textPrint+0x149>
    3ee5: a0 30        	ldy	#$30
    3ee7: b1 12        	lda	($12),y                 ; 0x2012 <textPrint+0x146>
    3ee9: 85 12        	sta	$12                     ; 0x2012 <textPrint+0x146>
    3eeb: a0 01        	ldy	#$1
    3eed: b1 24        	lda	($24),y                 ; 0x2024 <textPrint+0x158>
    3eef: 85 17        	sta	$17                     ; 0x2017 <textPrint+0x14b>
    3ef1: c8           	iny
    3ef2: b1 24        	lda	($24),y                 ; 0x2024 <textPrint+0x158>
    3ef4: 85 13        	sta	$13                     ; 0x2013 <textPrint+0x147>
    3ef6: c8           	iny
    3ef7: b1 24        	lda	($24),y                 ; 0x2024 <textPrint+0x158>
    3ef9: 85 16        	sta	$16                     ; 0x2016 <textPrint+0x14a>
    3efb: 18           	clc
    3efc: a5 12        	lda	$12                     ; 0x2012 <textPrint+0x146>
    3efe: 72 24        	adc	($24)                   ; 0x2024 <textPrint+0x158>
    3f00: 85 12        	sta	$12                     ; 0x2012 <textPrint+0x146>
    3f02: a5 17        	lda	$17                     ; 0x2017 <textPrint+0x14b>
    3f04: a0 01        	ldy	#$1
    3f06: 71 14        	adc	($14),y                 ; 0x2014 <textPrint+0x148>
    3f08: 85 17        	sta	$17                     ; 0x2017 <textPrint+0x14b>
    3f0a: a5 13        	lda	$13                     ; 0x2013 <textPrint+0x147>
    3f0c: c8           	iny
    3f0d: 71 14        	adc	($14),y                 ; 0x2014 <textPrint+0x148>
    3f0f: 85 13        	sta	$13                     ; 0x2013 <textPrint+0x147>
    3f11: c8           	iny
    3f12: a5 16        	lda	$16                     ; 0x2016 <textPrint+0x14a>
    3f14: 71 14        	adc	($14),y                 ; 0x2014 <textPrint+0x148>
    3f16: aa           	tax
    3f17: 18           	clc
    3f18: a5 12        	lda	$12                     ; 0x2012 <textPrint+0x146>
    3f1a: 69 06        	adc	#$6
    3f1c: a8           	tay
    3f1d: a5 17        	lda	$17                     ; 0x2017 <textPrint+0x14b>
    3f1f: 69 00        	adc	#$0
    3f21: 85 14        	sta	$14                     ; 0x2014 <textPrint+0x148>
    3f23: a5 13        	lda	$13                     ; 0x2013 <textPrint+0x147>
    3f25: 69 00        	adc	#$0
    3f27: 85 12        	sta	$12                     ; 0x2012 <textPrint+0x146>
    3f29: 8a           	txa
    3f2a: 69 00        	adc	#$0
    3f2c: 85 13        	sta	$13                     ; 0x2013 <textPrint+0x147>
    3f2e: a6 14        	ldx	$14                     ; 0x2014 <textPrint+0x148>
    3f30: 98           	tya
    3f31: 20 3f 17     	jsr	$173f <FAR_PEEK>
    3f34: a0 06        	ldy	#$6
    3f36: 91 28        	sta	($28),y                 ; 0x2028 <textPrint+0x15c>
    3f38: b2 26        	lda	($26)                   ; 0x2026 <textPrint+0x15a>
    3f3a: 85 12        	sta	$12                     ; 0x2012 <textPrint+0x146>
    3f3c: a0 01        	ldy	#$1
    3f3e: b1 26        	lda	($26),y                 ; 0x2026 <textPrint+0x15a>
    3f40: aa           	tax
    3f41: a5 12        	lda	$12                     ; 0x2012 <textPrint+0x146>
    3f43: 86 13        	stx	$13                     ; 0x2013 <textPrint+0x147>
    3f45: 18           	clc
    3f46: 69 30        	adc	#$30
    3f48: 85 14        	sta	$14                     ; 0x2014 <textPrint+0x148>
    3f4a: 8a           	txa
    3f4b: 69 00        	adc	#$0
    3f4d: 85 15        	sta	$15                     ; 0x2015 <textPrint+0x149>
    3f4f: a0 30        	ldy	#$30
    3f51: b1 12        	lda	($12),y                 ; 0x2012 <textPrint+0x146>
    3f53: 85 12        	sta	$12                     ; 0x2012 <textPrint+0x146>
    3f55: a0 01        	ldy	#$1
    3f57: b1 24        	lda	($24),y                 ; 0x2024 <textPrint+0x158>
    3f59: 85 17        	sta	$17                     ; 0x2017 <textPrint+0x14b>
    3f5b: c8           	iny
    3f5c: b1 24        	lda	($24),y                 ; 0x2024 <textPrint+0x158>
    3f5e: 85 16        	sta	$16                     ; 0x2016 <textPrint+0x14a>
    3f60: c8           	iny
    3f61: b1 24        	lda	($24),y                 ; 0x2024 <textPrint+0x158>
    3f63: 85 13        	sta	$13                     ; 0x2013 <textPrint+0x147>
    3f65: 18           	clc
    3f66: a5 12        	lda	$12                     ; 0x2012 <textPrint+0x146>
    3f68: 72 24        	adc	($24)                   ; 0x2024 <textPrint+0x158>
    3f6a: 85 12        	sta	$12                     ; 0x2012 <textPrint+0x146>
    3f6c: a5 17        	lda	$17                     ; 0x2017 <textPrint+0x14b>
    3f6e: a0 01        	ldy	#$1
    3f70: 71 14        	adc	($14),y                 ; 0x2014 <textPrint+0x148>
    3f72: 85 17        	sta	$17                     ; 0x2017 <textPrint+0x14b>
    3f74: c8           	iny
    3f75: a5 16        	lda	$16                     ; 0x2016 <textPrint+0x14a>
    3f77: 71 14        	adc	($14),y                 ; 0x2014 <textPrint+0x148>
    3f79: 85 16        	sta	$16                     ; 0x2016 <textPrint+0x14a>
    3f7b: a5 13        	lda	$13                     ; 0x2013 <textPrint+0x147>
    3f7d: c8           	iny
    3f7e: 71 14        	adc	($14),y                 ; 0x2014 <textPrint+0x148>
    3f80: 85 13        	sta	$13                     ; 0x2013 <textPrint+0x147>
    3f82: 18           	clc
    3f83: a5 12        	lda	$12                     ; 0x2012 <textPrint+0x146>
    3f85: 69 07        	adc	#$7
    3f87: a8           	tay
    3f88: a5 17        	lda	$17                     ; 0x2017 <textPrint+0x14b>
    3f8a: 69 00        	adc	#$0
    3f8c: aa           	tax
    3f8d: a5 16        	lda	$16                     ; 0x2016 <textPrint+0x14a>
    3f8f: 69 00        	adc	#$0
    3f91: 85 12        	sta	$12                     ; 0x2012 <textPrint+0x146>
    3f93: a5 13        	lda	$13                     ; 0x2013 <textPrint+0x147>
    3f95: 69 00        	adc	#$0
    3f97: 85 13        	sta	$13                     ; 0x2013 <textPrint+0x147>
    3f99: 98           	tya
    3f9a: 20 3f 17     	jsr	$173f <FAR_PEEK>
    3f9d: a0 07        	ldy	#$7
    3f9f: 91 28        	sta	($28),y                 ; 0x2028 <textPrint+0x15c>
    3fa1: b2 28        	lda	($28)                   ; 0x2028 <textPrint+0x15c>
    3fa3: 85 12        	sta	$12                     ; 0x2012 <textPrint+0x146>
    3fa5: a0 01        	ldy	#$1
    3fa7: b1 28        	lda	($28),y                 ; 0x2028 <textPrint+0x15c>
    3fa9: 85 13        	sta	$13                     ; 0x2013 <textPrint+0x147>
    3fab: c8           	iny
    3fac: b1 28        	lda	($28),y                 ; 0x2028 <textPrint+0x15c>
    3fae: 85 14        	sta	$14                     ; 0x2014 <textPrint+0x148>
    3fb0: c8           	iny
    3fb1: b1 28        	lda	($28),y                 ; 0x2028 <textPrint+0x15c>
    3fb3: c9 00        	cmp	#$0
    3fb5: a2 01        	ldx	#$1
    3fb7: b0 02        	bcs	$3fbb <playmiditype0+0x548>
    3fb9: a2 00        	ldx	#$0
    3fbb: 86 15        	stx	$15                     ; 0x2015 <textPrint+0x149>
    3fbd: aa           	tax
    3fbe: f0 02        	beq	$3fc2 <playmiditype0+0x54f>
    3fc0: 80 3d        	bra	$3fff <playmiditype0+0x58c>
    3fc2: a6 14        	ldx	$14                     ; 0x2014 <textPrint+0x148>
    3fc4: e0 00        	cpx	#$0
    3fc6: a0 01        	ldy	#$1
    3fc8: b0 02        	bcs	$3fcc <playmiditype0+0x559>
    3fca: a0 00        	ldy	#$0
    3fcc: 84 14        	sty	$14                     ; 0x2014 <textPrint+0x148>
    3fce: 8a           	txa
    3fcf: f0 02        	beq	$3fd3 <playmiditype0+0x560>
    3fd1: 80 23        	bra	$3ff6 <playmiditype0+0x583>
    3fd3: a6 13        	ldx	$13                     ; 0x2013 <textPrint+0x147>
    3fd5: e0 00        	cpx	#$0
    3fd7: a0 01        	ldy	#$1
    3fd9: b0 02        	bcs	$3fdd <playmiditype0+0x56a>
    3fdb: a0 00        	ldy	#$0
    3fdd: 84 13        	sty	$13                     ; 0x2013 <textPrint+0x147>
    3fdf: 8a           	txa
    3fe0: f0 02        	beq	$3fe4 <playmiditype0+0x571>
    3fe2: 80 09        	bra	$3fed <playmiditype0+0x57a>
    3fe4: a6 12        	ldx	$12                     ; 0x2012 <textPrint+0x146>
    3fe6: e0 01        	cpx	#$1
    3fe8: b0 0a        	bcs	$3ff4 <playmiditype0+0x581>
    3fea: 4c 32 41     	jmp	$4132 <playmiditype0+0x6bf>
    3fed: a5 13        	lda	$13                     ; 0x2013 <textPrint+0x147>
    3fef: d0 03        	bne	$3ff4 <playmiditype0+0x581>
    3ff1: 4c 32 41     	jmp	$4132 <playmiditype0+0x6bf>
    3ff4: 80 07        	bra	$3ffd <playmiditype0+0x58a>
    3ff6: a5 14        	lda	$14                     ; 0x2014 <textPrint+0x148>
    3ff8: d0 03        	bne	$3ffd <playmiditype0+0x58a>
    3ffa: 4c 32 41     	jmp	$4132 <playmiditype0+0x6bf>
    3ffd: 80 07        	bra	$4006 <playmiditype0+0x593>
    3fff: a5 15        	lda	$15                     ; 0x2015 <textPrint+0x149>
    4001: d0 03        	bne	$4006 <playmiditype0+0x593>
    4003: 4c 32 41     	jmp	$4132 <playmiditype0+0x6bf>
    4006: 80 00        	bra	$4008 <playmiditype0+0x595>
    4008: 18           	clc
    4009: a5 10        	lda	$10                     ; 0x2010 <textPrint+0x144>
    400b: 69 06        	adc	#$6
    400d: 85 12        	sta	$12                     ; 0x2012 <textPrint+0x146>
    400f: a5 11        	lda	$11                     ; 0x2011 <textPrint+0x145>
    4011: 69 00        	adc	#$0
    4013: 85 13        	sta	$13                     ; 0x2013 <textPrint+0x147>
    4015: b2 12        	lda	($12)                   ; 0x2012 <textPrint+0x146>
    4017: 18           	clc
    4018: 48           	pha
    4019: a5 10        	lda	$10                     ; 0x2010 <textPrint+0x144>
    401b: 69 0e        	adc	#$e
    401d: 85 14        	sta	$14                     ; 0x2014 <textPrint+0x148>
    401f: a5 11        	lda	$11                     ; 0x2011 <textPrint+0x145>
    4021: 69 00        	adc	#$0
    4023: 85 15        	sta	$15                     ; 0x2015 <textPrint+0x149>
    4025: 68           	pla
    4026: 92 14        	sta	($14)                   ; 0x2014 <textPrint+0x148>
    4028: a0 01        	ldy	#$1
    402a: b1 12        	lda	($12),y                 ; 0x2012 <textPrint+0x146>
    402c: 91 14        	sta	($14),y                 ; 0x2014 <textPrint+0x148>
    402e: c8           	iny
    402f: b1 12        	lda	($12),y                 ; 0x2012 <textPrint+0x146>
    4031: 91 14        	sta	($14),y                 ; 0x2014 <textPrint+0x148>
    4033: c8           	iny
    4034: b1 12        	lda	($12),y                 ; 0x2012 <textPrint+0x146>
    4036: 91 14        	sta	($14),y                 ; 0x2014 <textPrint+0x148>
    4038: 18           	clc
    4039: a5 10        	lda	$10                     ; 0x2010 <textPrint+0x144>
    403b: 69 0e        	adc	#$e
    403d: 85 12        	sta	$12                     ; 0x2012 <textPrint+0x146>
    403f: a5 11        	lda	$11                     ; 0x2011 <textPrint+0x145>
    4041: 69 00        	adc	#$0
    4043: 85 13        	sta	$13                     ; 0x2013 <textPrint+0x147>
    4045: b2 12        	lda	($12)                   ; 0x2012 <textPrint+0x146>
    4047: 85 14        	sta	$14                     ; 0x2014 <textPrint+0x148>
    4049: a0 01        	ldy	#$1
    404b: b1 12        	lda	($12),y                 ; 0x2012 <textPrint+0x146>
    404d: 85 15        	sta	$15                     ; 0x2015 <textPrint+0x149>
    404f: c8           	iny
    4050: b1 12        	lda	($12),y                 ; 0x2012 <textPrint+0x146>
    4052: 85 16        	sta	$16                     ; 0x2016 <textPrint+0x14a>
    4054: c8           	iny
    4055: b1 12        	lda	($12),y                 ; 0x2012 <textPrint+0x146>
    4057: c9 01        	cmp	#$1
    4059: a2 01        	ldx	#$1
    405b: b0 02        	bcs	$405f <playmiditype0+0x5ec>
    405d: a2 00        	ldx	#$0
    405f: 86 12        	stx	$12                     ; 0x2012 <textPrint+0x146>
    4061: c9 01        	cmp	#$1
    4063: f0 02        	beq	$4067 <playmiditype0+0x5f4>
    4065: 80 3d        	bra	$40a4 <playmiditype0+0x631>
    4067: a6 16        	ldx	$16                     ; 0x2016 <textPrint+0x14a>
    4069: e0 00        	cpx	#$0
    406b: a0 01        	ldy	#$1
    406d: b0 02        	bcs	$4071 <playmiditype0+0x5fe>
    406f: a0 00        	ldy	#$0
    4071: 84 12        	sty	$12                     ; 0x2012 <textPrint+0x146>
    4073: 8a           	txa
    4074: f0 02        	beq	$4078 <playmiditype0+0x605>
    4076: 80 23        	bra	$409b <playmiditype0+0x628>
    4078: a6 15        	ldx	$15                     ; 0x2015 <textPrint+0x149>
    407a: e0 00        	cpx	#$0
    407c: a0 01        	ldy	#$1
    407e: b0 02        	bcs	$4082 <playmiditype0+0x60f>
    4080: a0 00        	ldy	#$0
    4082: 84 12        	sty	$12                     ; 0x2012 <textPrint+0x146>
    4084: 8a           	txa
    4085: f0 02        	beq	$4089 <playmiditype0+0x616>
    4087: 80 09        	bra	$4092 <playmiditype0+0x61f>
    4089: a6 14        	ldx	$14                     ; 0x2014 <textPrint+0x148>
    408b: e0 00        	cpx	#$0
    408d: b0 0a        	bcs	$4099 <playmiditype0+0x626>
    408f: 4c 03 41     	jmp	$4103 <playmiditype0+0x690>
    4092: a5 12        	lda	$12                     ; 0x2012 <textPrint+0x146>
    4094: d0 03        	bne	$4099 <playmiditype0+0x626>
    4096: 4c 03 41     	jmp	$4103 <playmiditype0+0x690>
    4099: 80 07        	bra	$40a2 <playmiditype0+0x62f>
    409b: a5 12        	lda	$12                     ; 0x2012 <textPrint+0x146>
    409d: d0 03        	bne	$40a2 <playmiditype0+0x62f>
    409f: 4c 03 41     	jmp	$4103 <playmiditype0+0x690>
    40a2: 80 07        	bra	$40ab <playmiditype0+0x638>
    40a4: a5 12        	lda	$12                     ; 0x2012 <textPrint+0x146>
    40a6: d0 03        	bne	$40ab <playmiditype0+0x638>
    40a8: 4c 03 41     	jmp	$4103 <playmiditype0+0x690>
    40ab: 80 00        	bra	$40ad <playmiditype0+0x63a>
    40ad: a2 ff        	ldx	#$ff
    40af: 86 12        	stx	$12                     ; 0x2012 <textPrint+0x146>
    40b1: a2 ff        	ldx	#$ff
    40b3: 8a           	txa
    40b4: 20 b9 57     	jsr	$57b9 <setTimer0>
    40b7: 20 5d 58     	jsr	$585d <isTimer0Done>
    40ba: aa           	tax
    40bb: d0 04        	bne	$40c1 <playmiditype0+0x64e>
    40bd: 80 00        	bra	$40bf <playmiditype0+0x64c>
    40bf: 80 f6        	bra	$40b7 <playmiditype0+0x644>
    40c1: a2 10        	ldx	#$10
    40c3: 8e 60 d6     	stx	$d660                   ; 0xd660 <end_block9+0x6b6c>
    40c6: 18           	clc
    40c7: a5 10        	lda	$10                     ; 0x2010 <textPrint+0x144>
    40c9: 69 0e        	adc	#$e
    40cb: 85 12        	sta	$12                     ; 0x2012 <textPrint+0x146>
    40cd: a5 11        	lda	$11                     ; 0x2011 <textPrint+0x145>
    40cf: 69 00        	adc	#$0
    40d1: 85 13        	sta	$13                     ; 0x2013 <textPrint+0x147>
    40d3: b2 12        	lda	($12)                   ; 0x2012 <textPrint+0x146>
    40d5: 85 14        	sta	$14                     ; 0x2014 <textPrint+0x148>
    40d7: a0 01        	ldy	#$1
    40d9: b1 12        	lda	($12),y                 ; 0x2012 <textPrint+0x146>
    40db: 85 15        	sta	$15                     ; 0x2015 <textPrint+0x149>
    40dd: c8           	iny
    40de: b1 12        	lda	($12),y                 ; 0x2012 <textPrint+0x146>
    40e0: aa           	tax
    40e1: 18           	clc
    40e2: a5 14        	lda	$14                     ; 0x2014 <textPrint+0x148>
    40e4: 69 01        	adc	#$1
    40e6: 85 14        	sta	$14                     ; 0x2014 <textPrint+0x148>
    40e8: a5 15        	lda	$15                     ; 0x2015 <textPrint+0x149>
    40ea: 69 00        	adc	#$0
    40ec: 88           	dey
    40ed: 91 12        	sta	($12),y                 ; 0x2012 <textPrint+0x146>
    40ef: 8a           	txa
    40f0: 69 00        	adc	#$0
    40f2: c8           	iny
    40f3: 91 12        	sta	($12),y                 ; 0x2012 <textPrint+0x146>
    40f5: c8           	iny
    40f6: b1 12        	lda	($12),y                 ; 0x2012 <textPrint+0x146>
    40f8: 69 ff        	adc	#$ff
    40fa: 91 12        	sta	($12),y                 ; 0x2012 <textPrint+0x146>
    40fc: a5 14        	lda	$14                     ; 0x2014 <textPrint+0x148>
    40fe: 92 12        	sta	($12)                   ; 0x2012 <textPrint+0x146>
    4100: 4c 38 40     	jmp	$4038 <playmiditype0+0x5c5>
    4103: 18           	clc
    4104: a5 10        	lda	$10                     ; 0x2010 <textPrint+0x144>
    4106: 69 0e        	adc	#$e
    4108: 85 12        	sta	$12                     ; 0x2012 <textPrint+0x146>
    410a: a5 11        	lda	$11                     ; 0x2011 <textPrint+0x145>
    410c: 69 00        	adc	#$0
    410e: 85 13        	sta	$13                     ; 0x2013 <textPrint+0x147>
    4110: b2 12        	lda	($12)                   ; 0x2012 <textPrint+0x146>
    4112: 85 14        	sta	$14                     ; 0x2014 <textPrint+0x148>
    4114: a0 01        	ldy	#$1
    4116: b1 12        	lda	($12),y                 ; 0x2012 <textPrint+0x146>
    4118: aa           	tax
    4119: c8           	iny
    411a: b1 12        	lda	($12),y                 ; 0x2012 <textPrint+0x146>
    411c: 85 12        	sta	$12                     ; 0x2012 <textPrint+0x146>
    411e: a5 14        	lda	$14                     ; 0x2014 <textPrint+0x148>
    4120: 20 b9 57     	jsr	$57b9 <setTimer0>
    4123: 20 5d 58     	jsr	$585d <isTimer0Done>
    4126: aa           	tax
    4127: d0 04        	bne	$412d <playmiditype0+0x6ba>
    4129: 80 00        	bra	$412b <playmiditype0+0x6b8>
    412b: 80 f6        	bra	$4123 <playmiditype0+0x6b0>
    412d: a2 10        	ldx	#$10
    412f: 8e 60 d6     	stx	$d660                   ; 0xd660 <end_block9+0x6b6c>
    4132: 18           	clc
    4133: a5 10        	lda	$10                     ; 0x2010 <textPrint+0x144>
    4135: 69 06        	adc	#$6
    4137: 85 12        	sta	$12                     ; 0x2012 <textPrint+0x146>
    4139: a5 11        	lda	$11                     ; 0x2011 <textPrint+0x145>
    413b: 69 00        	adc	#$0
    413d: 85 13        	sta	$13                     ; 0x2013 <textPrint+0x147>
    413f: 20 13 30     	jsr	$3013 <sendAME>
    4142: 18           	clc
    4143: a5 10        	lda	$10                     ; 0x2010 <textPrint+0x144>
    4145: 69 1a        	adc	#$1a
    4147: 85 12        	sta	$12                     ; 0x2012 <textPrint+0x146>
    4149: a5 11        	lda	$11                     ; 0x2011 <textPrint+0x145>
    414b: 69 00        	adc	#$0
    414d: 85 13        	sta	$13                     ; 0x2013 <textPrint+0x147>
    414f: b2 12        	lda	($12)                   ; 0x2012 <textPrint+0x146>
    4151: aa           	tax
    4152: a0 01        	ldy	#$1
    4154: b1 12        	lda	($12),y                 ; 0x2012 <textPrint+0x146>
    4156: 86 12        	stx	$12                     ; 0x2012 <textPrint+0x146>
    4158: 85 13        	sta	$13                     ; 0x2013 <textPrint+0x147>
    415a: a8           	tay
    415b: 18           	clc
    415c: 8a           	txa
    415d: 69 20        	adc	#$20
    415f: 85 14        	sta	$14                     ; 0x2014 <textPrint+0x148>
    4161: 98           	tya
    4162: 69 00        	adc	#$0
    4164: 85 15        	sta	$15                     ; 0x2015 <textPrint+0x149>
    4166: a0 20        	ldy	#$20
    4168: b1 12        	lda	($12),y                 ; 0x2012 <textPrint+0x146>
    416a: 85 12        	sta	$12                     ; 0x2012 <textPrint+0x146>
    416c: a0 01        	ldy	#$1
    416e: b1 14        	lda	($14),y                 ; 0x2014 <textPrint+0x148>
    4170: 85 13        	sta	$13                     ; 0x2013 <textPrint+0x147>
    4172: b2 12        	lda	($12)                   ; 0x2012 <textPrint+0x146>
    4174: 85 14        	sta	$14                     ; 0x2014 <textPrint+0x148>
    4176: b1 12        	lda	($12),y                 ; 0x2012 <textPrint+0x146>
    4178: aa           	tax
    4179: a5 14        	lda	$14                     ; 0x2014 <textPrint+0x148>
    417b: 1a           	inc
    417c: f0 03        	beq	$4181 <playmiditype0+0x70e>
    417e: 4c 85 41     	jmp	$4185 <playmiditype0+0x712>
    4181: e8           	inx
    4182: 4c 85 41     	jmp	$4185 <playmiditype0+0x712>
    4185: 92 12        	sta	($12)                   ; 0x2012 <textPrint+0x146>
    4187: 8a           	txa
    4188: 91 12        	sta	($12),y                 ; 0x2012 <textPrint+0x146>
    418a: 18           	clc
    418b: a5 10        	lda	$10                     ; 0x2010 <textPrint+0x144>
    418d: 69 16        	adc	#$16
    418f: 85 12        	sta	$12                     ; 0x2012 <textPrint+0x146>
    4191: a5 11        	lda	$11                     ; 0x2011 <textPrint+0x145>
    4193: 69 00        	adc	#$0
    4195: 85 13        	sta	$13                     ; 0x2013 <textPrint+0x147>
    4197: b2 12        	lda	($12)                   ; 0x2012 <textPrint+0x146>
    4199: aa           	tax
    419a: b1 12        	lda	($12),y                 ; 0x2012 <textPrint+0x146>
    419c: 85 14        	sta	$14                     ; 0x2014 <textPrint+0x148>
    419e: a0 01        	ldy	#$1
    41a0: 8a           	txa
    41a1: 3a           	dec
    41a2: c9 ff        	cmp	#$ff
    41a4: f0 03        	beq	$41a9 <playmiditype0+0x736>
    41a6: 4c ae 41     	jmp	$41ae <playmiditype0+0x73b>
    41a9: c6 14        	dec	$14                     ; 0x2014 <textPrint+0x148>
    41ab: 4c ae 41     	jmp	$41ae <playmiditype0+0x73b>
    41ae: 92 12        	sta	($12)                   ; 0x2012 <textPrint+0x146>
    41b0: a5 14        	lda	$14                     ; 0x2014 <textPrint+0x148>
    41b2: 91 12        	sta	($12),y                 ; 0x2012 <textPrint+0x146>
    41b4: 4c 0d 3b     	jmp	$3b0d <playmiditype0+0x9a>
    41b7: a0 00        	ldy	#$0
    41b9: b1 10        	lda	($10),y                 ; 0x2010 <textPrint+0x144>
    41bb: 85 2c        	sta	$2c                     ; 0x202c <textPrint+0x160>
    41bd: c8           	iny
    41be: b1 10        	lda	($10),y                 ; 0x2010 <textPrint+0x144>
    41c0: 85 2b        	sta	$2b                     ; 0x202b <textPrint+0x15f>
    41c2: c8           	iny
    41c3: b1 10        	lda	($10),y                 ; 0x2010 <textPrint+0x144>
    41c5: 85 2a        	sta	$2a                     ; 0x202a <textPrint+0x15e>
    41c7: c8           	iny
    41c8: b1 10        	lda	($10),y                 ; 0x2010 <textPrint+0x144>
    41ca: 85 29        	sta	$29                     ; 0x2029 <textPrint+0x15d>
    41cc: c8           	iny
    41cd: b1 10        	lda	($10),y                 ; 0x2010 <textPrint+0x144>
    41cf: 85 28        	sta	$28                     ; 0x2028 <textPrint+0x15c>
    41d1: fa           	plx
    41d2: 86 27        	stx	$27                     ; 0x2027 <textPrint+0x15b>
    41d4: fa           	plx
    41d5: 86 26        	stx	$26                     ; 0x2026 <textPrint+0x15a>
    41d7: fa           	plx
    41d8: 86 25        	stx	$25                     ; 0x2025 <textPrint+0x159>
    41da: fa           	plx
    41db: 86 24        	stx	$24                     ; 0x2024 <textPrint+0x158>
    41dd: 18           	clc
    41de: a5 10        	lda	$10                     ; 0x2010 <textPrint+0x144>
    41e0: 69 1c        	adc	#$1c
    41e2: 85 10        	sta	$10                     ; 0x2010 <textPrint+0x144>
    41e4: a5 11        	lda	$11                     ; 0x2011 <textPrint+0x145>
    41e6: 69 00        	adc	#$0
    41e8: 85 11        	sta	$11                     ; 0x2011 <textPrint+0x145>
    41ea: 60           	rts

000041eb <playmidi>:
    41eb: 18           	clc
    41ec: a5 10        	lda	$10                     ; 0x2010 <textPrint+0x144>
    41ee: 69 ce        	adc	#$ce
    41f0: 85 10        	sta	$10                     ; 0x2010 <textPrint+0x144>
    41f2: a5 11        	lda	$11                     ; 0x2011 <textPrint+0x145>
    41f4: 69 ff        	adc	#$ff
    41f6: 85 11        	sta	$11                     ; 0x2011 <textPrint+0x145>
    41f8: a6 24        	ldx	$24                     ; 0x2024 <textPrint+0x158>
    41fa: da           	phx
    41fb: a6 25        	ldx	$25                     ; 0x2025 <textPrint+0x159>
    41fd: da           	phx
    41fe: a6 26        	ldx	$26                     ; 0x2026 <textPrint+0x15a>
    4200: da           	phx
    4201: a6 27        	ldx	$27                     ; 0x2027 <textPrint+0x15b>
    4203: da           	phx
    4204: a5 28        	lda	$28                     ; 0x2028 <textPrint+0x15c>
    4206: a0 04        	ldy	#$4
    4208: 91 10        	sta	($10),y                 ; 0x2010 <textPrint+0x144>
    420a: a5 29        	lda	$29                     ; 0x2029 <textPrint+0x15d>
    420c: 88           	dey
    420d: 91 10        	sta	($10),y                 ; 0x2010 <textPrint+0x144>
    420f: a5 2a        	lda	$2a                     ; 0x202a <textPrint+0x15e>
    4211: 88           	dey
    4212: 91 10        	sta	($10),y                 ; 0x2010 <textPrint+0x144>
    4214: a5 2b        	lda	$2b                     ; 0x202b <textPrint+0x15f>
    4216: 88           	dey
    4217: 91 10        	sta	($10),y                 ; 0x2010 <textPrint+0x144>
    4219: a5 2c        	lda	$2c                     ; 0x202c <textPrint+0x160>
    421b: 88           	dey
    421c: 91 10        	sta	($10),y                 ; 0x2010 <textPrint+0x144>
    421e: a5 12        	lda	$12                     ; 0x2012 <textPrint+0x146>
    4220: a6 13        	ldx	$13                     ; 0x2013 <textPrint+0x147>
    4222: 18           	clc
    4223: 48           	pha
    4224: a5 10        	lda	$10                     ; 0x2010 <textPrint+0x144>
    4226: 69 2f        	adc	#$2f
    4228: 85 12        	sta	$12                     ; 0x2012 <textPrint+0x146>
    422a: a5 11        	lda	$11                     ; 0x2011 <textPrint+0x145>
    422c: 69 00        	adc	#$0
    422e: 85 13        	sta	$13                     ; 0x2013 <textPrint+0x147>
    4230: 68           	pla
    4231: 92 12        	sta	($12)                   ; 0x2012 <textPrint+0x146>
    4233: c8           	iny
    4234: 8a           	txa
    4235: 91 12        	sta	($12),y                 ; 0x2012 <textPrint+0x146>
    4237: a5 14        	lda	$14                     ; 0x2014 <textPrint+0x148>
    4239: 18           	clc
    423a: 48           	pha
    423b: a5 10        	lda	$10                     ; 0x2010 <textPrint+0x144>
    423d: 69 2d        	adc	#$2d
    423f: 85 24        	sta	$24                     ; 0x2024 <textPrint+0x158>
    4241: a5 11        	lda	$11                     ; 0x2011 <textPrint+0x145>
    4243: 69 00        	adc	#$0
    4245: 85 25        	sta	$25                     ; 0x2025 <textPrint+0x159>
    4247: 68           	pla
    4248: 92 24        	sta	($24)                   ; 0x2024 <textPrint+0x158>
    424a: a5 15        	lda	$15                     ; 0x2015 <textPrint+0x149>
    424c: 91 24        	sta	($24),y                 ; 0x2024 <textPrint+0x158>
    424e: 18           	clc
    424f: a5 10        	lda	$10                     ; 0x2010 <textPrint+0x144>
    4251: 69 29        	adc	#$29
    4253: 85 12        	sta	$12                     ; 0x2012 <textPrint+0x146>
    4255: a5 11        	lda	$11                     ; 0x2011 <textPrint+0x145>
    4257: 69 00        	adc	#$0
    4259: 85 13        	sta	$13                     ; 0x2013 <textPrint+0x147>
    425b: a9 00        	lda	#$0
    425d: 92 12        	sta	($12)                   ; 0x2012 <textPrint+0x146>
    425f: 91 12        	sta	($12),y                 ; 0x2012 <textPrint+0x146>
    4261: 18           	clc
    4262: 48           	pha
    4263: a5 10        	lda	$10                     ; 0x2010 <textPrint+0x144>
    4265: 69 27        	adc	#$27
    4267: 85 26        	sta	$26                     ; 0x2026 <textPrint+0x15a>
    4269: a5 11        	lda	$11                     ; 0x2011 <textPrint+0x145>
    426b: 69 00        	adc	#$0
    426d: 85 27        	sta	$27                     ; 0x2027 <textPrint+0x15b>
    426f: 68           	pla
    4270: 92 26        	sta	($26)                   ; 0x2026 <textPrint+0x15a>
    4272: 91 26        	sta	($26),y                 ; 0x2026 <textPrint+0x15a>
    4274: a9 ff        	lda	#$ff
    4276: 18           	clc
    4277: 48           	pha
    4278: a5 10        	lda	$10                     ; 0x2010 <textPrint+0x144>
    427a: 69 23        	adc	#$23
    427c: 85 12        	sta	$12                     ; 0x2012 <textPrint+0x146>
    427e: a5 11        	lda	$11                     ; 0x2011 <textPrint+0x145>
    4280: 69 00        	adc	#$0
    4282: 85 13        	sta	$13                     ; 0x2013 <textPrint+0x147>
    4284: 68           	pla
    4285: 92 12        	sta	($12)                   ; 0x2012 <textPrint+0x146>
    4287: 91 12        	sta	($12),y                 ; 0x2012 <textPrint+0x146>
    4289: c8           	iny
    428a: 91 12        	sta	($12),y                 ; 0x2012 <textPrint+0x146>
    428c: c8           	iny
    428d: 91 12        	sta	($12),y                 ; 0x2012 <textPrint+0x146>
    428f: 18           	clc
    4290: a5 10        	lda	$10                     ; 0x2010 <textPrint+0x144>
    4292: 69 10        	adc	#$10
    4294: 85 12        	sta	$12                     ; 0x2012 <textPrint+0x146>
    4296: a5 11        	lda	$11                     ; 0x2011 <textPrint+0x145>
    4298: 69 00        	adc	#$0
    429a: 85 13        	sta	$13                     ; 0x2013 <textPrint+0x147>
    429c: a9 00        	lda	#$0
    429e: 92 12        	sta	($12)                   ; 0x2012 <textPrint+0x146>
    42a0: b2 24        	lda	($24)                   ; 0x2024 <textPrint+0x158>
    42a2: 85 12        	sta	$12                     ; 0x2012 <textPrint+0x146>
    42a4: a0 01        	ldy	#$1
    42a6: b1 24        	lda	($24),y                 ; 0x2024 <textPrint+0x158>
    42a8: 85 13        	sta	$13                     ; 0x2013 <textPrint+0x147>
    42aa: a6 12        	ldx	$12                     ; 0x2012 <textPrint+0x146>
    42ac: 86 14        	stx	$14                     ; 0x2014 <textPrint+0x148>
    42ae: 85 15        	sta	$15                     ; 0x2015 <textPrint+0x149>
    42b0: e6 14        	inc	$14                     ; 0x2014 <textPrint+0x148>
    42b2: f0 03        	beq	$42b7 <playmidi+0xcc>
    42b4: 4c bc 42     	jmp	$42bc <playmidi+0xd1>
    42b7: e6 15        	inc	$15                     ; 0x2015 <textPrint+0x149>
    42b9: 4c bc 42     	jmp	$42bc <playmidi+0xd1>
    42bc: b1 12        	lda	($12),y                 ; 0x2012 <textPrint+0x146>
    42be: 18           	clc
    42bf: 48           	pha
    42c0: a5 10        	lda	$10                     ; 0x2010 <textPrint+0x144>
    42c2: 69 19        	adc	#$19
    42c4: 85 12        	sta	$12                     ; 0x2012 <textPrint+0x146>
    42c6: a5 11        	lda	$11                     ; 0x2011 <textPrint+0x145>
    42c8: 69 00        	adc	#$0
    42ca: 85 13        	sta	$13                     ; 0x2013 <textPrint+0x147>
    42cc: 68           	pla
    42cd: 92 12        	sta	($12)                   ; 0x2012 <textPrint+0x146>
    42cf: b1 14        	lda	($14),y                 ; 0x2014 <textPrint+0x148>
    42d1: 91 12        	sta	($12),y                 ; 0x2012 <textPrint+0x146>
    42d3: b2 12        	lda	($12)                   ; 0x2012 <textPrint+0x146>
    42d5: 85 14        	sta	$14                     ; 0x2014 <textPrint+0x148>
    42d7: b1 12        	lda	($12),y                 ; 0x2012 <textPrint+0x146>
    42d9: a6 14        	ldx	$14                     ; 0x2014 <textPrint+0x148>
    42db: 86 12        	stx	$12                     ; 0x2012 <textPrint+0x146>
    42dd: 06 12        	asl	$12                     ; 0x2012 <textPrint+0x146>
    42df: 2a           	rol
    42e0: 06 12        	asl	$12                     ; 0x2012 <textPrint+0x146>
    42e2: a4 12        	ldy	$12                     ; 0x2012 <textPrint+0x146>
    42e4: 2a           	rol
    42e5: aa           	tax
    42e6: 98           	tya
    42e7: 20 01 66     	jsr	$6601 <malloc>
    42ea: a5 12        	lda	$12                     ; 0x2012 <textPrint+0x146>
    42ec: a6 13        	ldx	$13                     ; 0x2013 <textPrint+0x147>
    42ee: 18           	clc
    42ef: 48           	pha
    42f0: a5 10        	lda	$10                     ; 0x2010 <textPrint+0x144>
    42f2: 69 0e        	adc	#$e
    42f4: 85 12        	sta	$12                     ; 0x2012 <textPrint+0x146>
    42f6: a5 11        	lda	$11                     ; 0x2011 <textPrint+0x145>
    42f8: 69 00        	adc	#$0
    42fa: 85 13        	sta	$13                     ; 0x2013 <textPrint+0x147>
    42fc: 68           	pla
    42fd: 92 12        	sta	($12)                   ; 0x2012 <textPrint+0x146>
    42ff: a0 01        	ldy	#$1
    4301: 8a           	txa
    4302: 91 12        	sta	($12),y                 ; 0x2012 <textPrint+0x146>
    4304: b2 24        	lda	($24)                   ; 0x2024 <textPrint+0x158>
    4306: 85 12        	sta	$12                     ; 0x2012 <textPrint+0x146>
    4308: b1 24        	lda	($24),y                 ; 0x2024 <textPrint+0x158>
    430a: 85 13        	sta	$13                     ; 0x2013 <textPrint+0x147>
    430c: 20 9e 2d     	jsr	$2d9e <getTotalLeft>
    430f: 92 26        	sta	($26)                   ; 0x2026 <textPrint+0x15a>
    4311: a0 01        	ldy	#$1
    4313: 8a           	txa
    4314: 91 26        	sta	($26),y                 ; 0x2026 <textPrint+0x15a>
    4316: 18           	clc
    4317: a5 10        	lda	$10                     ; 0x2010 <textPrint+0x144>
    4319: 69 2b        	adc	#$2b
    431b: 85 12        	sta	$12                     ; 0x2012 <textPrint+0x146>
    431d: a5 11        	lda	$11                     ; 0x2011 <textPrint+0x145>
    431f: 69 00        	adc	#$0
    4321: 85 13        	sta	$13                     ; 0x2013 <textPrint+0x147>
    4323: a9 00        	lda	#$0
    4325: 92 12        	sta	($12)                   ; 0x2012 <textPrint+0x146>
    4327: 91 12        	sta	($12),y                 ; 0x2012 <textPrint+0x146>
    4329: 18           	clc
    432a: a5 10        	lda	$10                     ; 0x2010 <textPrint+0x144>
    432c: 69 2b        	adc	#$2b
    432e: 85 12        	sta	$12                     ; 0x2012 <textPrint+0x146>
    4330: a5 11        	lda	$11                     ; 0x2011 <textPrint+0x145>
    4332: 69 00        	adc	#$0
    4334: 85 13        	sta	$13                     ; 0x2013 <textPrint+0x147>
    4336: b2 12        	lda	($12)                   ; 0x2012 <textPrint+0x146>
    4338: 85 16        	sta	$16                     ; 0x2016 <textPrint+0x14a>
    433a: a0 01        	ldy	#$1
    433c: b1 12        	lda	($12),y                 ; 0x2012 <textPrint+0x146>
    433e: aa           	tax
    433f: 18           	clc
    4340: a5 10        	lda	$10                     ; 0x2010 <textPrint+0x144>
    4342: 69 19        	adc	#$19
    4344: 85 14        	sta	$14                     ; 0x2014 <textPrint+0x148>
    4346: a5 11        	lda	$11                     ; 0x2011 <textPrint+0x145>
    4348: 69 00        	adc	#$0
    434a: 85 15        	sta	$15                     ; 0x2015 <textPrint+0x149>
    434c: b2 14        	lda	($14)                   ; 0x2014 <textPrint+0x148>
    434e: 85 12        	sta	$12                     ; 0x2012 <textPrint+0x146>
    4350: 8a           	txa
    4351: d1 14        	cmp	($14),y                 ; 0x2014 <textPrint+0x148>
    4353: a2 01        	ldx	#$1
    4355: b0 02        	bcs	$4359 <playmidi+0x16e>
    4357: a2 00        	ldx	#$0
    4359: 86 13        	stx	$13                     ; 0x2013 <textPrint+0x147>
    435b: d1 14        	cmp	($14),y                 ; 0x2014 <textPrint+0x148>
    435d: f0 02        	beq	$4361 <playmidi+0x176>
    435f: 80 09        	bra	$436a <playmidi+0x17f>
    4361: a6 16        	ldx	$16                     ; 0x2016 <textPrint+0x14a>
    4363: e4 12        	cpx	$12                     ; 0x2012 <textPrint+0x146>
    4365: 90 0a        	bcc	$4371 <playmidi+0x186>
    4367: 4c dd 46     	jmp	$46dd <playmidi+0x4f2>
    436a: a5 13        	lda	$13                     ; 0x2013 <textPrint+0x147>
    436c: f0 03        	beq	$4371 <playmidi+0x186>
    436e: 4c dd 46     	jmp	$46dd <playmidi+0x4f2>
    4371: 80 00        	bra	$4373 <playmidi+0x188>
    4373: 18           	clc
    4374: a5 10        	lda	$10                     ; 0x2010 <textPrint+0x144>
    4376: 69 2d        	adc	#$2d
    4378: 85 12        	sta	$12                     ; 0x2012 <textPrint+0x146>
    437a: a5 11        	lda	$11                     ; 0x2011 <textPrint+0x145>
    437c: 69 00        	adc	#$0
    437e: 85 13        	sta	$13                     ; 0x2013 <textPrint+0x147>
    4380: b2 12        	lda	($12)                   ; 0x2012 <textPrint+0x146>
    4382: aa           	tax
    4383: a0 01        	ldy	#$1
    4385: b1 12        	lda	($12),y                 ; 0x2012 <textPrint+0x146>
    4387: 86 12        	stx	$12                     ; 0x2012 <textPrint+0x146>
    4389: 85 13        	sta	$13                     ; 0x2013 <textPrint+0x147>
    438b: 85 15        	sta	$15                     ; 0x2015 <textPrint+0x149>
    438d: 18           	clc
    438e: 8a           	txa
    438f: 69 03        	adc	#$3
    4391: 85 14        	sta	$14                     ; 0x2014 <textPrint+0x148>
    4393: a5 15        	lda	$15                     ; 0x2015 <textPrint+0x149>
    4395: 69 00        	adc	#$0
    4397: 85 15        	sta	$15                     ; 0x2015 <textPrint+0x149>
    4399: 18           	clc
    439a: a5 10        	lda	$10                     ; 0x2010 <textPrint+0x144>
    439c: 69 2b        	adc	#$2b
    439e: 85 16        	sta	$16                     ; 0x2016 <textPrint+0x14a>
    43a0: a5 11        	lda	$11                     ; 0x2011 <textPrint+0x145>
    43a2: 69 00        	adc	#$0
    43a4: 85 17        	sta	$17                     ; 0x2017 <textPrint+0x14b>
    43a6: b2 16        	lda	($16)                   ; 0x2016 <textPrint+0x14a>
    43a8: 85 19        	sta	$19                     ; 0x2019 <textPrint+0x14d>
    43aa: b1 16        	lda	($16),y                 ; 0x2016 <textPrint+0x14a>
    43ac: 85 18        	sta	$18                     ; 0x2018 <textPrint+0x14c>
    43ae: 06 19        	asl	$19                     ; 0x2019 <textPrint+0x14d>
    43b0: 2a           	rol
    43b1: 06 19        	asl	$19                     ; 0x2019 <textPrint+0x14d>
    43b3: 2a           	rol
    43b4: 06 19        	asl	$19                     ; 0x2019 <textPrint+0x14d>
    43b6: 2a           	rol
    43b7: aa           	tax
    43b8: 38           	sec
    43b9: a5 19        	lda	$19                     ; 0x2019 <textPrint+0x14d>
    43bb: f2 16        	sbc	($16)                   ; 0x2016 <textPrint+0x14a>
    43bd: 85 16        	sta	$16                     ; 0x2016 <textPrint+0x14a>
    43bf: 8a           	txa
    43c0: e5 18        	sbc	$18                     ; 0x2018 <textPrint+0x14c>
    43c2: aa           	tax
    43c3: 18           	clc
    43c4: a0 03        	ldy	#$3
    43c6: a5 16        	lda	$16                     ; 0x2016 <textPrint+0x14a>
    43c8: 71 12        	adc	($12),y                 ; 0x2012 <textPrint+0x146>
    43ca: 85 12        	sta	$12                     ; 0x2012 <textPrint+0x146>
    43cc: a0 01        	ldy	#$1
    43ce: 8a           	txa
    43cf: 71 14        	adc	($14),y                 ; 0x2014 <textPrint+0x148>
    43d1: 85 13        	sta	$13                     ; 0x2013 <textPrint+0x147>
    43d3: a6 12        	ldx	$12                     ; 0x2012 <textPrint+0x146>
    43d5: 86 14        	stx	$14                     ; 0x2014 <textPrint+0x148>
    43d7: 85 15        	sta	$15                     ; 0x2015 <textPrint+0x149>
    43d9: e6 14        	inc	$14                     ; 0x2014 <textPrint+0x148>
    43db: f0 03        	beq	$43e0 <playmidi+0x1f5>
    43dd: 4c e5 43     	jmp	$43e5 <playmidi+0x1fa>
    43e0: e6 15        	inc	$15                     ; 0x2015 <textPrint+0x149>
    43e2: 4c e5 43     	jmp	$43e5 <playmidi+0x1fa>
    43e5: b1 12        	lda	($12),y                 ; 0x2012 <textPrint+0x146>
    43e7: 85 12        	sta	$12                     ; 0x2012 <textPrint+0x146>
    43e9: b1 14        	lda	($14),y                 ; 0x2014 <textPrint+0x148>
    43eb: f0 02        	beq	$43ef <playmidi+0x204>
    43ed: 80 4b        	bra	$443a <playmidi+0x24f>
    43ef: a5 12        	lda	$12                     ; 0x2012 <textPrint+0x146>
    43f1: d0 47        	bne	$443a <playmidi+0x24f>
    43f3: 80 00        	bra	$43f5 <playmidi+0x20a>
    43f5: 18           	clc
    43f6: a5 10        	lda	$10                     ; 0x2010 <textPrint+0x144>
    43f8: 69 0e        	adc	#$e
    43fa: 85 12        	sta	$12                     ; 0x2012 <textPrint+0x146>
    43fc: a5 11        	lda	$11                     ; 0x2011 <textPrint+0x145>
    43fe: 69 00        	adc	#$0
    4400: 85 13        	sta	$13                     ; 0x2013 <textPrint+0x147>
    4402: a0 01        	ldy	#$1
    4404: 18           	clc
    4405: a5 10        	lda	$10                     ; 0x2010 <textPrint+0x144>
    4407: 69 2b        	adc	#$2b
    4409: 85 14        	sta	$14                     ; 0x2014 <textPrint+0x148>
    440b: a5 11        	lda	$11                     ; 0x2011 <textPrint+0x145>
    440d: 69 00        	adc	#$0
    440f: 85 15        	sta	$15                     ; 0x2015 <textPrint+0x149>
    4411: b2 14        	lda	($14)                   ; 0x2014 <textPrint+0x148>
    4413: aa           	tax
    4414: b1 14        	lda	($14),y                 ; 0x2014 <textPrint+0x148>
    4416: 85 14        	sta	$14                     ; 0x2014 <textPrint+0x148>
    4418: 8a           	txa
    4419: 0a           	asl
    441a: 26 14        	rol	$14                     ; 0x2014 <textPrint+0x148>
    441c: 0a           	asl
    441d: 26 14        	rol	$14                     ; 0x2014 <textPrint+0x148>
    441f: 18           	clc
    4420: 72 12        	adc	($12)                   ; 0x2012 <textPrint+0x146>
    4422: aa           	tax
    4423: a5 14        	lda	$14                     ; 0x2014 <textPrint+0x148>
    4425: 71 12        	adc	($12),y                 ; 0x2012 <textPrint+0x146>
    4427: 86 12        	stx	$12                     ; 0x2012 <textPrint+0x146>
    4429: 85 13        	sta	$13                     ; 0x2013 <textPrint+0x147>
    442b: a9 00        	lda	#$0
    442d: 92 12        	sta	($12)                   ; 0x2012 <textPrint+0x146>
    442f: 91 12        	sta	($12),y                 ; 0x2012 <textPrint+0x146>
    4431: c8           	iny
    4432: 91 12        	sta	($12),y                 ; 0x2012 <textPrint+0x146>
    4434: c8           	iny
    4435: 91 12        	sta	($12),y                 ; 0x2012 <textPrint+0x146>
    4437: 4c b3 46     	jmp	$46b3 <playmidi+0x4c8>
    443a: 18           	clc
    443b: a5 10        	lda	$10                     ; 0x2010 <textPrint+0x144>
    443d: 69 2d        	adc	#$2d
    443f: 85 12        	sta	$12                     ; 0x2012 <textPrint+0x146>
    4441: a5 11        	lda	$11                     ; 0x2011 <textPrint+0x145>
    4443: 69 00        	adc	#$0
    4445: 85 13        	sta	$13                     ; 0x2013 <textPrint+0x147>
    4447: b2 12        	lda	($12)                   ; 0x2012 <textPrint+0x146>
    4449: aa           	tax
    444a: a0 01        	ldy	#$1
    444c: b1 12        	lda	($12),y                 ; 0x2012 <textPrint+0x146>
    444e: a0 01        	ldy	#$1
    4450: 86 12        	stx	$12                     ; 0x2012 <textPrint+0x146>
    4452: 85 13        	sta	$13                     ; 0x2013 <textPrint+0x147>
    4454: 85 15        	sta	$15                     ; 0x2015 <textPrint+0x149>
    4456: 18           	clc
    4457: 8a           	txa
    4458: 69 03        	adc	#$3
    445a: 85 14        	sta	$14                     ; 0x2014 <textPrint+0x148>
    445c: a5 15        	lda	$15                     ; 0x2015 <textPrint+0x149>
    445e: 69 00        	adc	#$0
    4460: 85 15        	sta	$15                     ; 0x2015 <textPrint+0x149>
    4462: 18           	clc
    4463: a5 10        	lda	$10                     ; 0x2010 <textPrint+0x144>
    4465: 69 2b        	adc	#$2b
    4467: 85 24        	sta	$24                     ; 0x2024 <textPrint+0x158>
    4469: a5 11        	lda	$11                     ; 0x2011 <textPrint+0x145>
    446b: 69 00        	adc	#$0
    446d: 85 25        	sta	$25                     ; 0x2025 <textPrint+0x159>
    446f: b2 24        	lda	($24)                   ; 0x2024 <textPrint+0x158>
    4471: 85 17        	sta	$17                     ; 0x2017 <textPrint+0x14b>
    4473: b1 24        	lda	($24),y                 ; 0x2024 <textPrint+0x158>
    4475: 85 16        	sta	$16                     ; 0x2016 <textPrint+0x14a>
    4477: 06 17        	asl	$17                     ; 0x2017 <textPrint+0x14b>
    4479: 2a           	rol
    447a: 06 17        	asl	$17                     ; 0x2017 <textPrint+0x14b>
    447c: 2a           	rol
    447d: 06 17        	asl	$17                     ; 0x2017 <textPrint+0x14b>
    447f: 2a           	rol
    4480: aa           	tax
    4481: 38           	sec
    4482: a5 17        	lda	$17                     ; 0x2017 <textPrint+0x14b>
    4484: f2 24        	sbc	($24)                   ; 0x2024 <textPrint+0x158>
    4486: 85 17        	sta	$17                     ; 0x2017 <textPrint+0x14b>
    4488: 8a           	txa
    4489: e5 16        	sbc	$16                     ; 0x2016 <textPrint+0x14a>
    448b: 85 16        	sta	$16                     ; 0x2016 <textPrint+0x14a>
    448d: 18           	clc
    448e: a0 03        	ldy	#$3
    4490: a5 17        	lda	$17                     ; 0x2017 <textPrint+0x14b>
    4492: 71 12        	adc	($12),y                 ; 0x2012 <textPrint+0x146>
    4494: aa           	tax
    4495: a5 16        	lda	$16                     ; 0x2016 <textPrint+0x14a>
    4497: a0 01        	ldy	#$1
    4499: 71 14        	adc	($14),y                 ; 0x2014 <textPrint+0x148>
    449b: 86 12        	stx	$12                     ; 0x2012 <textPrint+0x146>
    449d: 85 13        	sta	$13                     ; 0x2013 <textPrint+0x147>
    449f: a8           	tay
    44a0: 18           	clc
    44a1: 8a           	txa
    44a2: 69 03        	adc	#$3
    44a4: 85 14        	sta	$14                     ; 0x2014 <textPrint+0x148>
    44a6: 98           	tya
    44a7: 69 00        	adc	#$0
    44a9: 85 15        	sta	$15                     ; 0x2015 <textPrint+0x149>
    44ab: a0 03        	ldy	#$3
    44ad: b1 12        	lda	($12),y                 ; 0x2012 <textPrint+0x146>
    44af: 18           	clc
    44b0: 48           	pha
    44b1: a5 10        	lda	$10                     ; 0x2010 <textPrint+0x144>
    44b3: 69 1f        	adc	#$1f
    44b5: 85 26        	sta	$26                     ; 0x2026 <textPrint+0x15a>
    44b7: a5 11        	lda	$11                     ; 0x2011 <textPrint+0x145>
    44b9: 69 00        	adc	#$0
    44bb: 85 27        	sta	$27                     ; 0x2027 <textPrint+0x15b>
    44bd: 68           	pla
    44be: 92 26        	sta	($26)                   ; 0x2026 <textPrint+0x15a>
    44c0: a0 01        	ldy	#$1
    44c2: b1 14        	lda	($14),y                 ; 0x2014 <textPrint+0x148>
    44c4: a0 01        	ldy	#$1
    44c6: 91 26        	sta	($26),y                 ; 0x2026 <textPrint+0x15a>
    44c8: c8           	iny
    44c9: b1 14        	lda	($14),y                 ; 0x2014 <textPrint+0x148>
    44cb: a0 02        	ldy	#$2
    44cd: 91 26        	sta	($26),y                 ; 0x2026 <textPrint+0x15a>
    44cf: c8           	iny
    44d0: b1 14        	lda	($14),y                 ; 0x2014 <textPrint+0x148>
    44d2: a0 03        	ldy	#$3
    44d4: 91 26        	sta	($26),y                 ; 0x2026 <textPrint+0x15a>
    44d6: 18           	clc
    44d7: a5 10        	lda	$10                     ; 0x2010 <textPrint+0x144>
    44d9: 69 2f        	adc	#$2f
    44db: 85 28        	sta	$28                     ; 0x2028 <textPrint+0x15c>
    44dd: a5 11        	lda	$11                     ; 0x2011 <textPrint+0x145>
    44df: 69 00        	adc	#$0
    44e1: 85 29        	sta	$29                     ; 0x2029 <textPrint+0x15d>
    44e3: b2 28        	lda	($28)                   ; 0x2028 <textPrint+0x15c>
    44e5: 85 12        	sta	$12                     ; 0x2012 <textPrint+0x146>
    44e7: a0 01        	ldy	#$1
    44e9: b1 28        	lda	($28),y                 ; 0x2028 <textPrint+0x15c>
    44eb: aa           	tax
    44ec: a5 12        	lda	$12                     ; 0x2012 <textPrint+0x146>
    44ee: 86 13        	stx	$13                     ; 0x2013 <textPrint+0x147>
    44f0: 18           	clc
    44f1: 69 30        	adc	#$30
    44f3: 85 14        	sta	$14                     ; 0x2014 <textPrint+0x148>
    44f5: 8a           	txa
    44f6: 69 00        	adc	#$0
    44f8: 85 15        	sta	$15                     ; 0x2015 <textPrint+0x149>
    44fa: a0 30        	ldy	#$30
    44fc: b1 12        	lda	($12),y                 ; 0x2012 <textPrint+0x146>
    44fe: 85 12        	sta	$12                     ; 0x2012 <textPrint+0x146>
    4500: a0 01        	ldy	#$1
    4502: b1 26        	lda	($26),y                 ; 0x2026 <textPrint+0x15a>
    4504: aa           	tax
    4505: c8           	iny
    4506: b1 26        	lda	($26),y                 ; 0x2026 <textPrint+0x15a>
    4508: 85 17        	sta	$17                     ; 0x2017 <textPrint+0x14b>
    450a: c8           	iny
    450b: b1 26        	lda	($26),y                 ; 0x2026 <textPrint+0x15a>
    450d: 85 13        	sta	$13                     ; 0x2013 <textPrint+0x147>
    450f: 18           	clc
    4510: a5 12        	lda	$12                     ; 0x2012 <textPrint+0x146>
    4512: 72 26        	adc	($26)                   ; 0x2026 <textPrint+0x15a>
    4514: 85 16        	sta	$16                     ; 0x2016 <textPrint+0x14a>
    4516: 8a           	txa
    4517: a0 01        	ldy	#$1
    4519: 71 14        	adc	($14),y                 ; 0x2014 <textPrint+0x148>
    451b: aa           	tax
    451c: a5 17        	lda	$17                     ; 0x2017 <textPrint+0x14b>
    451e: c8           	iny
    451f: 71 14        	adc	($14),y                 ; 0x2014 <textPrint+0x148>
    4521: 85 12        	sta	$12                     ; 0x2012 <textPrint+0x146>
    4523: a5 13        	lda	$13                     ; 0x2013 <textPrint+0x147>
    4525: c8           	iny
    4526: 71 14        	adc	($14),y                 ; 0x2014 <textPrint+0x148>
    4528: 85 13        	sta	$13                     ; 0x2013 <textPrint+0x147>
    452a: a5 16        	lda	$16                     ; 0x2016 <textPrint+0x14a>
    452c: 20 3f 17     	jsr	$173f <FAR_PEEK>
    452f: 85 2a        	sta	$2a                     ; 0x202a <textPrint+0x15e>
    4531: b2 28        	lda	($28)                   ; 0x2028 <textPrint+0x15c>
    4533: 85 12        	sta	$12                     ; 0x2012 <textPrint+0x146>
    4535: a0 01        	ldy	#$1
    4537: b1 28        	lda	($28),y                 ; 0x2028 <textPrint+0x15c>
    4539: aa           	tax
    453a: a5 12        	lda	$12                     ; 0x2012 <textPrint+0x146>
    453c: 86 13        	stx	$13                     ; 0x2013 <textPrint+0x147>
    453e: 18           	clc
    453f: 69 30        	adc	#$30
    4541: 85 14        	sta	$14                     ; 0x2014 <textPrint+0x148>
    4543: 8a           	txa
    4544: 69 00        	adc	#$0
    4546: 85 15        	sta	$15                     ; 0x2015 <textPrint+0x149>
    4548: a0 30        	ldy	#$30
    454a: b1 12        	lda	($12),y                 ; 0x2012 <textPrint+0x146>
    454c: 85 12        	sta	$12                     ; 0x2012 <textPrint+0x146>
    454e: a0 01        	ldy	#$1
    4550: b1 26        	lda	($26),y                 ; 0x2026 <textPrint+0x15a>
    4552: 85 17        	sta	$17                     ; 0x2017 <textPrint+0x14b>
    4554: c8           	iny
    4555: b1 26        	lda	($26),y                 ; 0x2026 <textPrint+0x15a>
    4557: 85 13        	sta	$13                     ; 0x2013 <textPrint+0x147>
    4559: c8           	iny
    455a: b1 26        	lda	($26),y                 ; 0x2026 <textPrint+0x15a>
    455c: aa           	tax
    455d: 18           	clc
    455e: a5 12        	lda	$12                     ; 0x2012 <textPrint+0x146>
    4560: 72 26        	adc	($26)                   ; 0x2026 <textPrint+0x15a>
    4562: 85 16        	sta	$16                     ; 0x2016 <textPrint+0x14a>
    4564: a5 17        	lda	$17                     ; 0x2017 <textPrint+0x14b>
    4566: a0 01        	ldy	#$1
    4568: 71 14        	adc	($14),y                 ; 0x2014 <textPrint+0x148>
    456a: 85 17        	sta	$17                     ; 0x2017 <textPrint+0x14b>
    456c: a5 13        	lda	$13                     ; 0x2013 <textPrint+0x147>
    456e: c8           	iny
    456f: 71 14        	adc	($14),y                 ; 0x2014 <textPrint+0x148>
    4571: 85 12        	sta	$12                     ; 0x2012 <textPrint+0x146>
    4573: 8a           	txa
    4574: c8           	iny
    4575: 71 14        	adc	($14),y                 ; 0x2014 <textPrint+0x148>
    4577: a6 17        	ldx	$17                     ; 0x2017 <textPrint+0x14b>
    4579: e6 16        	inc	$16                     ; 0x2016 <textPrint+0x14a>
    457b: f0 03        	beq	$4580 <playmidi+0x395>
    457d: 4c 97 45     	jmp	$4597 <playmidi+0x3ac>
    4580: e8           	inx
    4581: f0 03        	beq	$4586 <playmidi+0x39b>
    4583: 4c 94 45     	jmp	$4594 <playmidi+0x3a9>
    4586: e6 12        	inc	$12                     ; 0x2012 <textPrint+0x146>
    4588: f0 03        	beq	$458d <playmidi+0x3a2>
    458a: 4c 91 45     	jmp	$4591 <playmidi+0x3a6>
    458d: 1a           	inc
    458e: 4c 91 45     	jmp	$4591 <playmidi+0x3a6>
    4591: 4c 94 45     	jmp	$4594 <playmidi+0x3a9>
    4594: 4c 97 45     	jmp	$4597 <playmidi+0x3ac>
    4597: 85 13        	sta	$13                     ; 0x2013 <textPrint+0x147>
    4599: a5 16        	lda	$16                     ; 0x2016 <textPrint+0x14a>
    459b: 20 3f 17     	jsr	$173f <FAR_PEEK>
    459e: 85 2b        	sta	$2b                     ; 0x202b <textPrint+0x15f>
    45a0: b2 28        	lda	($28)                   ; 0x2028 <textPrint+0x15c>
    45a2: 85 12        	sta	$12                     ; 0x2012 <textPrint+0x146>
    45a4: a0 01        	ldy	#$1
    45a6: b1 28        	lda	($28),y                 ; 0x2028 <textPrint+0x15c>
    45a8: aa           	tax
    45a9: a5 12        	lda	$12                     ; 0x2012 <textPrint+0x146>
    45ab: 86 13        	stx	$13                     ; 0x2013 <textPrint+0x147>
    45ad: 18           	clc
    45ae: 69 30        	adc	#$30
    45b0: 85 14        	sta	$14                     ; 0x2014 <textPrint+0x148>
    45b2: 8a           	txa
    45b3: 69 00        	adc	#$0
    45b5: 85 15        	sta	$15                     ; 0x2015 <textPrint+0x149>
    45b7: a0 30        	ldy	#$30
    45b9: b1 12        	lda	($12),y                 ; 0x2012 <textPrint+0x146>
    45bb: 85 12        	sta	$12                     ; 0x2012 <textPrint+0x146>
    45bd: a0 01        	ldy	#$1
    45bf: b1 26        	lda	($26),y                 ; 0x2026 <textPrint+0x15a>
    45c1: 85 17        	sta	$17                     ; 0x2017 <textPrint+0x14b>
    45c3: c8           	iny
    45c4: b1 26        	lda	($26),y                 ; 0x2026 <textPrint+0x15a>
    45c6: 85 16        	sta	$16                     ; 0x2016 <textPrint+0x14a>
    45c8: c8           	iny
    45c9: b1 26        	lda	($26),y                 ; 0x2026 <textPrint+0x15a>
    45cb: 85 13        	sta	$13                     ; 0x2013 <textPrint+0x147>
    45cd: 18           	clc
    45ce: a5 12        	lda	$12                     ; 0x2012 <textPrint+0x146>
    45d0: 72 26        	adc	($26)                   ; 0x2026 <textPrint+0x15a>
    45d2: 85 12        	sta	$12                     ; 0x2012 <textPrint+0x146>
    45d4: a5 17        	lda	$17                     ; 0x2017 <textPrint+0x14b>
    45d6: a0 01        	ldy	#$1
    45d8: 71 14        	adc	($14),y                 ; 0x2014 <textPrint+0x148>
    45da: 85 17        	sta	$17                     ; 0x2017 <textPrint+0x14b>
    45dc: c8           	iny
    45dd: a5 16        	lda	$16                     ; 0x2016 <textPrint+0x14a>
    45df: 71 14        	adc	($14),y                 ; 0x2014 <textPrint+0x148>
    45e1: 85 16        	sta	$16                     ; 0x2016 <textPrint+0x14a>
    45e3: c8           	iny
    45e4: a5 13        	lda	$13                     ; 0x2013 <textPrint+0x147>
    45e6: 71 14        	adc	($14),y                 ; 0x2014 <textPrint+0x148>
    45e8: 85 13        	sta	$13                     ; 0x2013 <textPrint+0x147>
    45ea: 18           	clc
    45eb: a5 12        	lda	$12                     ; 0x2012 <textPrint+0x146>
    45ed: 69 02        	adc	#$2
    45ef: a8           	tay
    45f0: a5 17        	lda	$17                     ; 0x2017 <textPrint+0x14b>
    45f2: 69 00        	adc	#$0
    45f4: aa           	tax
    45f5: a5 16        	lda	$16                     ; 0x2016 <textPrint+0x14a>
    45f7: 69 00        	adc	#$0
    45f9: 85 12        	sta	$12                     ; 0x2012 <textPrint+0x146>
    45fb: a5 13        	lda	$13                     ; 0x2013 <textPrint+0x147>
    45fd: 69 00        	adc	#$0
    45ff: 85 13        	sta	$13                     ; 0x2013 <textPrint+0x147>
    4601: 98           	tya
    4602: 20 3f 17     	jsr	$173f <FAR_PEEK>
    4605: 85 2c        	sta	$2c                     ; 0x202c <textPrint+0x160>
    4607: b2 28        	lda	($28)                   ; 0x2028 <textPrint+0x15c>
    4609: aa           	tax
    460a: a0 01        	ldy	#$1
    460c: b1 28        	lda	($28),y                 ; 0x2028 <textPrint+0x15c>
    460e: 86 12        	stx	$12                     ; 0x2012 <textPrint+0x146>
    4610: 85 13        	sta	$13                     ; 0x2013 <textPrint+0x147>
    4612: 85 15        	sta	$15                     ; 0x2015 <textPrint+0x149>
    4614: a0 30        	ldy	#$30
    4616: b1 12        	lda	($12),y                 ; 0x2012 <textPrint+0x146>
    4618: 85 14        	sta	$14                     ; 0x2014 <textPrint+0x148>
    461a: 18           	clc
    461b: 8a           	txa
    461c: 69 30        	adc	#$30
    461e: 85 12        	sta	$12                     ; 0x2012 <textPrint+0x146>
    4620: a5 15        	lda	$15                     ; 0x2015 <textPrint+0x149>
    4622: 69 00        	adc	#$0
    4624: 85 13        	sta	$13                     ; 0x2013 <textPrint+0x147>
    4626: a0 01        	ldy	#$1
    4628: b1 26        	lda	($26),y                 ; 0x2026 <textPrint+0x15a>
    462a: 85 17        	sta	$17                     ; 0x2017 <textPrint+0x14b>
    462c: c8           	iny
    462d: b1 26        	lda	($26),y                 ; 0x2026 <textPrint+0x15a>
    462f: 85 15        	sta	$15                     ; 0x2015 <textPrint+0x149>
    4631: c8           	iny
    4632: b1 26        	lda	($26),y                 ; 0x2026 <textPrint+0x15a>
    4634: 85 16        	sta	$16                     ; 0x2016 <textPrint+0x14a>
    4636: 18           	clc
    4637: a5 14        	lda	$14                     ; 0x2014 <textPrint+0x148>
    4639: 72 26        	adc	($26)                   ; 0x2026 <textPrint+0x15a>
    463b: 85 14        	sta	$14                     ; 0x2014 <textPrint+0x148>
    463d: a5 17        	lda	$17                     ; 0x2017 <textPrint+0x14b>
    463f: a0 01        	ldy	#$1
    4641: 71 12        	adc	($12),y                 ; 0x2012 <textPrint+0x146>
    4643: 85 17        	sta	$17                     ; 0x2017 <textPrint+0x14b>
    4645: a5 15        	lda	$15                     ; 0x2015 <textPrint+0x149>
    4647: c8           	iny
    4648: 71 12        	adc	($12),y                 ; 0x2012 <textPrint+0x146>
    464a: 85 15        	sta	$15                     ; 0x2015 <textPrint+0x149>
    464c: a5 16        	lda	$16                     ; 0x2016 <textPrint+0x14a>
    464e: c8           	iny
    464f: 71 12        	adc	($12),y                 ; 0x2012 <textPrint+0x146>
    4651: aa           	tax
    4652: 18           	clc
    4653: a5 14        	lda	$14                     ; 0x2014 <textPrint+0x148>
    4655: 69 03        	adc	#$3
    4657: a8           	tay
    4658: a5 17        	lda	$17                     ; 0x2017 <textPrint+0x14b>
    465a: 69 00        	adc	#$0
    465c: 85 14        	sta	$14                     ; 0x2014 <textPrint+0x148>
    465e: a5 15        	lda	$15                     ; 0x2015 <textPrint+0x149>
    4660: 69 00        	adc	#$0
    4662: 85 12        	sta	$12                     ; 0x2012 <textPrint+0x146>
    4664: 8a           	txa
    4665: 69 00        	adc	#$0
    4667: 85 13        	sta	$13                     ; 0x2013 <textPrint+0x147>
    4669: a6 14        	ldx	$14                     ; 0x2014 <textPrint+0x148>
    466b: 98           	tya
    466c: 20 3f 17     	jsr	$173f <FAR_PEEK>
    466f: aa           	tax
    4670: 18           	clc
    4671: a5 10        	lda	$10                     ; 0x2010 <textPrint+0x144>
    4673: 69 0e        	adc	#$e
    4675: 85 12        	sta	$12                     ; 0x2012 <textPrint+0x146>
    4677: a5 11        	lda	$11                     ; 0x2011 <textPrint+0x145>
    4679: 69 00        	adc	#$0
    467b: 85 13        	sta	$13                     ; 0x2013 <textPrint+0x147>
    467d: b2 24        	lda	($24)                   ; 0x2024 <textPrint+0x158>
    467f: 85 15        	sta	$15                     ; 0x2015 <textPrint+0x149>
    4681: a0 01        	ldy	#$1
    4683: b1 24        	lda	($24),y                 ; 0x2024 <textPrint+0x158>
    4685: 85 14        	sta	$14                     ; 0x2014 <textPrint+0x148>
    4687: a5 15        	lda	$15                     ; 0x2015 <textPrint+0x149>
    4689: 0a           	asl
    468a: 26 14        	rol	$14                     ; 0x2014 <textPrint+0x148>
    468c: 0a           	asl
    468d: 26 14        	rol	$14                     ; 0x2014 <textPrint+0x148>
    468f: 18           	clc
    4690: 72 12        	adc	($12)                   ; 0x2012 <textPrint+0x146>
    4692: 85 15        	sta	$15                     ; 0x2015 <textPrint+0x149>
    4694: a5 14        	lda	$14                     ; 0x2014 <textPrint+0x148>
    4696: 71 12        	adc	($12),y                 ; 0x2012 <textPrint+0x146>
    4698: a0 01        	ldy	#$1
    469a: 48           	pha
    469b: a5 15        	lda	$15                     ; 0x2015 <textPrint+0x149>
    469d: 85 12        	sta	$12                     ; 0x2012 <textPrint+0x146>
    469f: 68           	pla
    46a0: 85 13        	sta	$13                     ; 0x2013 <textPrint+0x147>
    46a2: a5 2b        	lda	$2b                     ; 0x202b <textPrint+0x15f>
    46a4: 91 12        	sta	($12),y                 ; 0x2012 <textPrint+0x146>
    46a6: a5 2c        	lda	$2c                     ; 0x202c <textPrint+0x160>
    46a8: c8           	iny
    46a9: 91 12        	sta	($12),y                 ; 0x2012 <textPrint+0x146>
    46ab: c8           	iny
    46ac: 8a           	txa
    46ad: 91 12        	sta	($12),y                 ; 0x2012 <textPrint+0x146>
    46af: a5 2a        	lda	$2a                     ; 0x202a <textPrint+0x15e>
    46b1: 92 12        	sta	($12)                   ; 0x2012 <textPrint+0x146>
    46b3: 18           	clc
    46b4: a5 10        	lda	$10                     ; 0x2010 <textPrint+0x144>
    46b6: 69 2b        	adc	#$2b
    46b8: 85 12        	sta	$12                     ; 0x2012 <textPrint+0x146>
    46ba: a5 11        	lda	$11                     ; 0x2011 <textPrint+0x145>
    46bc: 69 00        	adc	#$0
    46be: 85 13        	sta	$13                     ; 0x2013 <textPrint+0x147>
    46c0: b2 12        	lda	($12)                   ; 0x2012 <textPrint+0x146>
    46c2: aa           	tax
    46c3: a0 01        	ldy	#$1
    46c5: b1 12        	lda	($12),y                 ; 0x2012 <textPrint+0x146>
    46c7: e8           	inx
    46c8: f0 03        	beq	$46cd <playmidi+0x4e2>
    46ca: 4c d1 46     	jmp	$46d1 <playmidi+0x4e6>
    46cd: 1a           	inc
    46ce: 4c d1 46     	jmp	$46d1 <playmidi+0x4e6>
    46d1: 85 14        	sta	$14                     ; 0x2014 <textPrint+0x148>
    46d3: 8a           	txa
    46d4: 92 12        	sta	($12)                   ; 0x2012 <textPrint+0x146>
    46d6: a5 14        	lda	$14                     ; 0x2014 <textPrint+0x148>
    46d8: 91 12        	sta	($12),y                 ; 0x2012 <textPrint+0x146>
    46da: 4c 29 43     	jmp	$4329 <playmidi+0x13e>
    46dd: 18           	clc
    46de: a5 10        	lda	$10                     ; 0x2010 <textPrint+0x144>
    46e0: 69 27        	adc	#$27
    46e2: 85 12        	sta	$12                     ; 0x2012 <textPrint+0x146>
    46e4: a5 11        	lda	$11                     ; 0x2011 <textPrint+0x145>
    46e6: 69 00        	adc	#$0
    46e8: 85 13        	sta	$13                     ; 0x2013 <textPrint+0x147>
    46ea: b2 12        	lda	($12)                   ; 0x2012 <textPrint+0x146>
    46ec: 85 14        	sta	$14                     ; 0x2014 <textPrint+0x148>
    46ee: a0 01        	ldy	#$1
    46f0: b1 12        	lda	($12),y                 ; 0x2012 <textPrint+0x146>
    46f2: c9 00        	cmp	#$0
    46f4: a2 01        	ldx	#$1
    46f6: b0 02        	bcs	$46fa <playmidi+0x50f>
    46f8: a2 00        	ldx	#$0
    46fa: 86 12        	stx	$12                     ; 0x2012 <textPrint+0x146>
    46fc: aa           	tax
    46fd: f0 02        	beq	$4701 <playmidi+0x516>
    46ff: 80 0a        	bra	$470b <playmidi+0x520>
    4701: a6 14        	ldx	$14                     ; 0x2014 <textPrint+0x148>
    4703: e0 01        	cpx	#$1
    4705: a2 00        	ldx	#$0
    4707: 90 28        	bcc	$4731 <playmidi+0x546>
    4709: 80 08        	bra	$4713 <playmidi+0x528>
    470b: a2 00        	ldx	#$0
    470d: a5 12        	lda	$12                     ; 0x2012 <textPrint+0x146>
    470f: f0 20        	beq	$4731 <playmidi+0x546>
    4711: 80 00        	bra	$4713 <playmidi+0x528>
    4713: 80 00        	bra	$4715 <playmidi+0x52a>
    4715: 18           	clc
    4716: a5 10        	lda	$10                     ; 0x2010 <textPrint+0x144>
    4718: 69 10        	adc	#$10
    471a: 85 12        	sta	$12                     ; 0x2012 <textPrint+0x146>
    471c: a5 11        	lda	$11                     ; 0x2011 <textPrint+0x145>
    471e: 69 00        	adc	#$0
    4720: 85 13        	sta	$13                     ; 0x2013 <textPrint+0x147>
    4722: b2 12        	lda	($12)                   ; 0x2012 <textPrint+0x146>
    4724: a2 01        	ldx	#$1
    4726: a8           	tay
    4727: f0 02        	beq	$472b <playmidi+0x540>
    4729: 80 02        	bra	$472d <playmidi+0x542>
    472b: 80 04        	bra	$4731 <playmidi+0x546>
    472d: a2 00        	ldx	#$0
    472f: 80 00        	bra	$4731 <playmidi+0x546>
    4731: 8a           	txa
    4732: d0 03        	bne	$4737 <playmidi+0x54c>
    4734: 4c 70 56     	jmp	$5670 <playmidi+0x1485>
    4737: a9 ff        	lda	#$ff
    4739: 18           	clc
    473a: 48           	pha
    473b: a5 10        	lda	$10                     ; 0x2010 <textPrint+0x144>
    473d: 69 23        	adc	#$23
    473f: 85 12        	sta	$12                     ; 0x2012 <textPrint+0x146>
    4741: a5 11        	lda	$11                     ; 0x2011 <textPrint+0x145>
    4743: 69 00        	adc	#$0
    4745: 85 13        	sta	$13                     ; 0x2013 <textPrint+0x147>
    4747: 68           	pla
    4748: 92 12        	sta	($12)                   ; 0x2012 <textPrint+0x146>
    474a: a0 01        	ldy	#$1
    474c: 91 12        	sta	($12),y                 ; 0x2012 <textPrint+0x146>
    474e: c8           	iny
    474f: 91 12        	sta	($12),y                 ; 0x2012 <textPrint+0x146>
    4751: c8           	iny
    4752: 91 12        	sta	($12),y                 ; 0x2012 <textPrint+0x146>
    4754: 18           	clc
    4755: a5 10        	lda	$10                     ; 0x2010 <textPrint+0x144>
    4757: 69 2b        	adc	#$2b
    4759: 85 12        	sta	$12                     ; 0x2012 <textPrint+0x146>
    475b: a5 11        	lda	$11                     ; 0x2011 <textPrint+0x145>
    475d: 69 00        	adc	#$0
    475f: 85 13        	sta	$13                     ; 0x2013 <textPrint+0x147>
    4761: a9 00        	lda	#$0
    4763: 92 12        	sta	($12)                   ; 0x2012 <textPrint+0x146>
    4765: a0 01        	ldy	#$1
    4767: 91 12        	sta	($12),y                 ; 0x2012 <textPrint+0x146>
    4769: 18           	clc
    476a: a5 10        	lda	$10                     ; 0x2010 <textPrint+0x144>
    476c: 69 2b        	adc	#$2b
    476e: 85 12        	sta	$12                     ; 0x2012 <textPrint+0x146>
    4770: a5 11        	lda	$11                     ; 0x2011 <textPrint+0x145>
    4772: 69 00        	adc	#$0
    4774: 85 13        	sta	$13                     ; 0x2013 <textPrint+0x147>
    4776: b2 12        	lda	($12)                   ; 0x2012 <textPrint+0x146>
    4778: 85 16        	sta	$16                     ; 0x2016 <textPrint+0x14a>
    477a: a0 01        	ldy	#$1
    477c: b1 12        	lda	($12),y                 ; 0x2012 <textPrint+0x146>
    477e: aa           	tax
    477f: 18           	clc
    4780: a5 10        	lda	$10                     ; 0x2010 <textPrint+0x144>
    4782: 69 19        	adc	#$19
    4784: 85 14        	sta	$14                     ; 0x2014 <textPrint+0x148>
    4786: a5 11        	lda	$11                     ; 0x2011 <textPrint+0x145>
    4788: 69 00        	adc	#$0
    478a: 85 15        	sta	$15                     ; 0x2015 <textPrint+0x149>
    478c: b2 14        	lda	($14)                   ; 0x2014 <textPrint+0x148>
    478e: 85 12        	sta	$12                     ; 0x2012 <textPrint+0x146>
    4790: 8a           	txa
    4791: d1 14        	cmp	($14),y                 ; 0x2014 <textPrint+0x148>
    4793: a2 01        	ldx	#$1
    4795: b0 02        	bcs	$4799 <playmidi+0x5ae>
    4797: a2 00        	ldx	#$0
    4799: 86 13        	stx	$13                     ; 0x2013 <textPrint+0x147>
    479b: d1 14        	cmp	($14),y                 ; 0x2014 <textPrint+0x148>
    479d: f0 02        	beq	$47a1 <playmidi+0x5b6>
    479f: 80 09        	bra	$47aa <playmidi+0x5bf>
    47a1: a6 16        	ldx	$16                     ; 0x2016 <textPrint+0x14a>
    47a3: e4 12        	cpx	$12                     ; 0x2012 <textPrint+0x146>
    47a5: 90 0a        	bcc	$47b1 <playmidi+0x5c6>
    47a7: 4c 01 4d     	jmp	$4d01 <playmidi+0xb16>
    47aa: a5 13        	lda	$13                     ; 0x2013 <textPrint+0x147>
    47ac: f0 03        	beq	$47b1 <playmidi+0x5c6>
    47ae: 4c 01 4d     	jmp	$4d01 <playmidi+0xb16>
    47b1: 80 00        	bra	$47b3 <playmidi+0x5c8>
    47b3: 18           	clc
    47b4: a5 10        	lda	$10                     ; 0x2010 <textPrint+0x144>
    47b6: 69 2f        	adc	#$2f
    47b8: 85 12        	sta	$12                     ; 0x2012 <textPrint+0x146>
    47ba: a5 11        	lda	$11                     ; 0x2011 <textPrint+0x145>
    47bc: 69 00        	adc	#$0
    47be: 85 13        	sta	$13                     ; 0x2013 <textPrint+0x147>
    47c0: b2 12        	lda	($12)                   ; 0x2012 <textPrint+0x146>
    47c2: aa           	tax
    47c3: a0 01        	ldy	#$1
    47c5: b1 12        	lda	($12),y                 ; 0x2012 <textPrint+0x146>
    47c7: a0 01        	ldy	#$1
    47c9: 86 14        	stx	$14                     ; 0x2014 <textPrint+0x148>
    47cb: 85 15        	sta	$15                     ; 0x2015 <textPrint+0x149>
    47cd: 85 12        	sta	$12                     ; 0x2012 <textPrint+0x146>
    47cf: 18           	clc
    47d0: 8a           	txa
    47d1: 69 20        	adc	#$20
    47d3: 85 16        	sta	$16                     ; 0x2016 <textPrint+0x14a>
    47d5: a5 12        	lda	$12                     ; 0x2012 <textPrint+0x146>
    47d7: 69 00        	adc	#$0
    47d9: 85 17        	sta	$17                     ; 0x2017 <textPrint+0x14b>
    47db: 18           	clc
    47dc: a5 10        	lda	$10                     ; 0x2010 <textPrint+0x144>
    47de: 69 2b        	adc	#$2b
    47e0: 85 12        	sta	$12                     ; 0x2012 <textPrint+0x146>
    47e2: a5 11        	lda	$11                     ; 0x2011 <textPrint+0x145>
    47e4: 69 00        	adc	#$0
    47e6: 85 13        	sta	$13                     ; 0x2013 <textPrint+0x147>
    47e8: b2 12        	lda	($12)                   ; 0x2012 <textPrint+0x146>
    47ea: aa           	tax
    47eb: b1 12        	lda	($12),y                 ; 0x2012 <textPrint+0x146>
    47ed: 85 18        	sta	$18                     ; 0x2018 <textPrint+0x14c>
    47ef: 8a           	txa
    47f0: 0a           	asl
    47f1: 26 18        	rol	$18                     ; 0x2018 <textPrint+0x14c>
    47f3: 18           	clc
    47f4: a0 20        	ldy	#$20
    47f6: 71 14        	adc	($14),y                 ; 0x2014 <textPrint+0x148>
    47f8: 85 14        	sta	$14                     ; 0x2014 <textPrint+0x148>
    47fa: a0 01        	ldy	#$1
    47fc: a5 18        	lda	$18                     ; 0x2018 <textPrint+0x14c>
    47fe: 71 16        	adc	($16),y                 ; 0x2016 <textPrint+0x14a>
    4800: 85 15        	sta	$15                     ; 0x2015 <textPrint+0x149>
    4802: b2 14        	lda	($14)                   ; 0x2014 <textPrint+0x148>
    4804: 85 1b        	sta	$1b                     ; 0x201b <textPrint+0x14f>
    4806: 18           	clc
    4807: a5 10        	lda	$10                     ; 0x2010 <textPrint+0x144>
    4809: 69 2d        	adc	#$2d
    480b: 85 16        	sta	$16                     ; 0x2016 <textPrint+0x14a>
    480d: a5 11        	lda	$11                     ; 0x2011 <textPrint+0x145>
    480f: 69 00        	adc	#$0
    4811: 85 17        	sta	$17                     ; 0x2017 <textPrint+0x14b>
    4813: b2 16        	lda	($16)                   ; 0x2016 <textPrint+0x14a>
    4815: 85 18        	sta	$18                     ; 0x2018 <textPrint+0x14c>
    4817: b1 16        	lda	($16),y                 ; 0x2016 <textPrint+0x14a>
    4819: aa           	tax
    481a: a0 01        	ldy	#$1
    481c: a5 18        	lda	$18                     ; 0x2018 <textPrint+0x14c>
    481e: 85 16        	sta	$16                     ; 0x2016 <textPrint+0x14a>
    4820: 86 17        	stx	$17                     ; 0x2017 <textPrint+0x14b>
    4822: 18           	clc
    4823: 69 03        	adc	#$3
    4825: 85 18        	sta	$18                     ; 0x2018 <textPrint+0x14c>
    4827: 8a           	txa
    4828: 69 00        	adc	#$0
    482a: 85 19        	sta	$19                     ; 0x2019 <textPrint+0x14d>
    482c: b2 12        	lda	($12)                   ; 0x2012 <textPrint+0x146>
    482e: 85 1c        	sta	$1c                     ; 0x201c <textPrint+0x150>
    4830: b1 12        	lda	($12),y                 ; 0x2012 <textPrint+0x146>
    4832: 85 1a        	sta	$1a                     ; 0x201a <textPrint+0x14e>
    4834: 06 1c        	asl	$1c                     ; 0x201c <textPrint+0x150>
    4836: 2a           	rol
    4837: 06 1c        	asl	$1c                     ; 0x201c <textPrint+0x150>
    4839: 2a           	rol
    483a: 06 1c        	asl	$1c                     ; 0x201c <textPrint+0x150>
    483c: 2a           	rol
    483d: aa           	tax
    483e: 38           	sec
    483f: a5 1c        	lda	$1c                     ; 0x201c <textPrint+0x150>
    4841: f2 12        	sbc	($12)                   ; 0x2012 <textPrint+0x146>
    4843: 85 12        	sta	$12                     ; 0x2012 <textPrint+0x146>
    4845: 8a           	txa
    4846: e5 1a        	sbc	$1a                     ; 0x201a <textPrint+0x14e>
    4848: aa           	tax
    4849: b1 14        	lda	($14),y                 ; 0x2014 <textPrint+0x148>
    484b: 85 1a        	sta	$1a                     ; 0x201a <textPrint+0x14e>
    484d: a0 03        	ldy	#$3
    484f: 18           	clc
    4850: a5 12        	lda	$12                     ; 0x2012 <textPrint+0x146>
    4852: 71 16        	adc	($16),y                 ; 0x2016 <textPrint+0x14a>
    4854: 85 12        	sta	$12                     ; 0x2012 <textPrint+0x146>
    4856: a0 01        	ldy	#$1
    4858: 8a           	txa
    4859: 71 18        	adc	($18),y                 ; 0x2018 <textPrint+0x14c>
    485b: 85 13        	sta	$13                     ; 0x2013 <textPrint+0x147>
    485d: a6 12        	ldx	$12                     ; 0x2012 <textPrint+0x146>
    485f: 86 14        	stx	$14                     ; 0x2014 <textPrint+0x148>
    4861: 85 15        	sta	$15                     ; 0x2015 <textPrint+0x149>
    4863: e6 14        	inc	$14                     ; 0x2014 <textPrint+0x148>
    4865: f0 03        	beq	$486a <playmidi+0x67f>
    4867: 4c 6f 48     	jmp	$486f <playmidi+0x684>
    486a: e6 15        	inc	$15                     ; 0x2015 <textPrint+0x149>
    486c: 4c 6f 48     	jmp	$486f <playmidi+0x684>
    486f: b1 12        	lda	($12),y                 ; 0x2012 <textPrint+0x146>
    4871: 85 12        	sta	$12                     ; 0x2012 <textPrint+0x146>
    4873: a5 1a        	lda	$1a                     ; 0x201a <textPrint+0x14e>
    4875: d1 14        	cmp	($14),y                 ; 0x2014 <textPrint+0x148>
    4877: a2 01        	ldx	#$1
    4879: b0 02        	bcs	$487d <playmidi+0x692>
    487b: a2 00        	ldx	#$0
    487d: 86 13        	stx	$13                     ; 0x2013 <textPrint+0x147>
    487f: d1 14        	cmp	($14),y                 ; 0x2014 <textPrint+0x148>
    4881: f0 02        	beq	$4885 <playmidi+0x69a>
    4883: 80 08        	bra	$488d <playmidi+0x6a2>
    4885: a6 1b        	ldx	$1b                     ; 0x201b <textPrint+0x14f>
    4887: e4 12        	cpx	$12                     ; 0x2012 <textPrint+0x146>
    4889: 90 0d        	bcc	$4898 <playmidi+0x6ad>
    488b: 80 06        	bra	$4893 <playmidi+0x6a8>
    488d: a5 13        	lda	$13                     ; 0x2013 <textPrint+0x147>
    488f: f0 07        	beq	$4898 <playmidi+0x6ad>
    4891: 80 00        	bra	$4893 <playmidi+0x6a8>
    4893: 80 00        	bra	$4895 <playmidi+0x6aa>
    4895: 4c d7 4c     	jmp	$4cd7 <playmidi+0xaec>
    4898: 18           	clc
    4899: a5 10        	lda	$10                     ; 0x2010 <textPrint+0x144>
    489b: 69 0e        	adc	#$e
    489d: 85 12        	sta	$12                     ; 0x2012 <textPrint+0x146>
    489f: a5 11        	lda	$11                     ; 0x2011 <textPrint+0x145>
    48a1: 69 00        	adc	#$0
    48a3: 85 13        	sta	$13                     ; 0x2013 <textPrint+0x147>
    48a5: a0 01        	ldy	#$1
    48a7: 18           	clc
    48a8: a5 10        	lda	$10                     ; 0x2010 <textPrint+0x144>
    48aa: 69 2b        	adc	#$2b
    48ac: 85 14        	sta	$14                     ; 0x2014 <textPrint+0x148>
    48ae: a5 11        	lda	$11                     ; 0x2011 <textPrint+0x145>
    48b0: 69 00        	adc	#$0
    48b2: 85 15        	sta	$15                     ; 0x2015 <textPrint+0x149>
    48b4: b2 14        	lda	($14)                   ; 0x2014 <textPrint+0x148>
    48b6: aa           	tax
    48b7: b1 14        	lda	($14),y                 ; 0x2014 <textPrint+0x148>
    48b9: 85 14        	sta	$14                     ; 0x2014 <textPrint+0x148>
    48bb: 8a           	txa
    48bc: 0a           	asl
    48bd: 26 14        	rol	$14                     ; 0x2014 <textPrint+0x148>
    48bf: 0a           	asl
    48c0: 26 14        	rol	$14                     ; 0x2014 <textPrint+0x148>
    48c2: 18           	clc
    48c3: 72 12        	adc	($12)                   ; 0x2012 <textPrint+0x146>
    48c5: aa           	tax
    48c6: a5 14        	lda	$14                     ; 0x2014 <textPrint+0x148>
    48c8: 71 12        	adc	($12),y                 ; 0x2012 <textPrint+0x146>
    48ca: 86 12        	stx	$12                     ; 0x2012 <textPrint+0x146>
    48cc: 85 13        	sta	$13                     ; 0x2013 <textPrint+0x147>
    48ce: b2 12        	lda	($12)                   ; 0x2012 <textPrint+0x146>
    48d0: 18           	clc
    48d1: 48           	pha
    48d2: a5 10        	lda	$10                     ; 0x2010 <textPrint+0x144>
    48d4: 69 15        	adc	#$15
    48d6: 85 14        	sta	$14                     ; 0x2014 <textPrint+0x148>
    48d8: a5 11        	lda	$11                     ; 0x2011 <textPrint+0x145>
    48da: 69 00        	adc	#$0
    48dc: 85 15        	sta	$15                     ; 0x2015 <textPrint+0x149>
    48de: 68           	pla
    48df: 92 14        	sta	($14)                   ; 0x2014 <textPrint+0x148>
    48e1: b1 12        	lda	($12),y                 ; 0x2012 <textPrint+0x146>
    48e3: 91 14        	sta	($14),y                 ; 0x2014 <textPrint+0x148>
    48e5: c8           	iny
    48e6: b1 12        	lda	($12),y                 ; 0x2012 <textPrint+0x146>
    48e8: a0 02        	ldy	#$2
    48ea: 91 14        	sta	($14),y                 ; 0x2014 <textPrint+0x148>
    48ec: c8           	iny
    48ed: b1 12        	lda	($12),y                 ; 0x2012 <textPrint+0x146>
    48ef: 91 14        	sta	($14),y                 ; 0x2014 <textPrint+0x148>
    48f1: b2 14        	lda	($14)                   ; 0x2014 <textPrint+0x148>
    48f3: 85 12        	sta	$12                     ; 0x2012 <textPrint+0x146>
    48f5: a0 01        	ldy	#$1
    48f7: b1 14        	lda	($14),y                 ; 0x2014 <textPrint+0x148>
    48f9: 85 13        	sta	$13                     ; 0x2013 <textPrint+0x147>
    48fb: c8           	iny
    48fc: b1 14        	lda	($14),y                 ; 0x2014 <textPrint+0x148>
    48fe: 85 16        	sta	$16                     ; 0x2016 <textPrint+0x14a>
    4900: c8           	iny
    4901: b1 14        	lda	($14),y                 ; 0x2014 <textPrint+0x148>
    4903: f0 03        	beq	$4908 <playmidi+0x71d>
    4905: 4c a5 4a     	jmp	$4aa5 <playmidi+0x8ba>
    4908: a5 16        	lda	$16                     ; 0x2016 <textPrint+0x14a>
    490a: f0 03        	beq	$490f <playmidi+0x724>
    490c: 4c a5 4a     	jmp	$4aa5 <playmidi+0x8ba>
    490f: a5 13        	lda	$13                     ; 0x2013 <textPrint+0x147>
    4911: f0 03        	beq	$4916 <playmidi+0x72b>
    4913: 4c a5 4a     	jmp	$4aa5 <playmidi+0x8ba>
    4916: a5 12        	lda	$12                     ; 0x2012 <textPrint+0x146>
    4918: f0 03        	beq	$491d <playmidi+0x732>
    491a: 4c a5 4a     	jmp	$4aa5 <playmidi+0x8ba>
    491d: a9 00        	lda	#$0
    491f: 18           	clc
    4920: 48           	pha
    4921: a5 10        	lda	$10                     ; 0x2010 <textPrint+0x144>
    4923: 69 23        	adc	#$23
    4925: 85 12        	sta	$12                     ; 0x2012 <textPrint+0x146>
    4927: a5 11        	lda	$11                     ; 0x2011 <textPrint+0x145>
    4929: 69 00        	adc	#$0
    492b: 85 13        	sta	$13                     ; 0x2013 <textPrint+0x147>
    492d: 68           	pla
    492e: 92 12        	sta	($12)                   ; 0x2012 <textPrint+0x146>
    4930: a0 01        	ldy	#$1
    4932: 91 12        	sta	($12),y                 ; 0x2012 <textPrint+0x146>
    4934: c8           	iny
    4935: 91 12        	sta	($12),y                 ; 0x2012 <textPrint+0x146>
    4937: c8           	iny
    4938: 91 12        	sta	($12),y                 ; 0x2012 <textPrint+0x146>
    493a: 18           	clc
    493b: a5 10        	lda	$10                     ; 0x2010 <textPrint+0x144>
    493d: 69 2b        	adc	#$2b
    493f: 85 14        	sta	$14                     ; 0x2014 <textPrint+0x148>
    4941: a5 11        	lda	$11                     ; 0x2011 <textPrint+0x145>
    4943: 69 00        	adc	#$0
    4945: 85 15        	sta	$15                     ; 0x2015 <textPrint+0x149>
    4947: b2 14        	lda	($14)                   ; 0x2014 <textPrint+0x148>
    4949: 18           	clc
    494a: 48           	pha
    494b: a5 10        	lda	$10                     ; 0x2010 <textPrint+0x144>
    494d: 69 29        	adc	#$29
    494f: 85 12        	sta	$12                     ; 0x2012 <textPrint+0x146>
    4951: a5 11        	lda	$11                     ; 0x2011 <textPrint+0x145>
    4953: 69 00        	adc	#$0
    4955: 85 13        	sta	$13                     ; 0x2013 <textPrint+0x147>
    4957: 68           	pla
    4958: 92 12        	sta	($12)                   ; 0x2012 <textPrint+0x146>
    495a: a0 01        	ldy	#$1
    495c: b1 14        	lda	($14),y                 ; 0x2014 <textPrint+0x148>
    495e: 91 12        	sta	($12),y                 ; 0x2012 <textPrint+0x146>
    4960: 18           	clc
    4961: a5 10        	lda	$10                     ; 0x2010 <textPrint+0x144>
    4963: 69 2d        	adc	#$2d
    4965: 85 12        	sta	$12                     ; 0x2012 <textPrint+0x146>
    4967: a5 11        	lda	$11                     ; 0x2011 <textPrint+0x145>
    4969: 69 00        	adc	#$0
    496b: 85 13        	sta	$13                     ; 0x2013 <textPrint+0x147>
    496d: b2 12        	lda	($12)                   ; 0x2012 <textPrint+0x146>
    496f: 85 16        	sta	$16                     ; 0x2016 <textPrint+0x14a>
    4971: b1 12        	lda	($12),y                 ; 0x2012 <textPrint+0x146>
    4973: aa           	tax
    4974: a0 01        	ldy	#$1
    4976: a5 16        	lda	$16                     ; 0x2016 <textPrint+0x14a>
    4978: 85 12        	sta	$12                     ; 0x2012 <textPrint+0x146>
    497a: 86 13        	stx	$13                     ; 0x2013 <textPrint+0x147>
    497c: 18           	clc
    497d: 69 03        	adc	#$3
    497f: 85 16        	sta	$16                     ; 0x2016 <textPrint+0x14a>
    4981: 8a           	txa
    4982: 69 00        	adc	#$0
    4984: 85 17        	sta	$17                     ; 0x2017 <textPrint+0x14b>
    4986: b2 14        	lda	($14)                   ; 0x2014 <textPrint+0x148>
    4988: 85 19        	sta	$19                     ; 0x2019 <textPrint+0x14d>
    498a: b1 14        	lda	($14),y                 ; 0x2014 <textPrint+0x148>
    498c: 85 18        	sta	$18                     ; 0x2018 <textPrint+0x14c>
    498e: 06 19        	asl	$19                     ; 0x2019 <textPrint+0x14d>
    4990: 2a           	rol
    4991: 06 19        	asl	$19                     ; 0x2019 <textPrint+0x14d>
    4993: 2a           	rol
    4994: 06 19        	asl	$19                     ; 0x2019 <textPrint+0x14d>
    4996: 2a           	rol
    4997: aa           	tax
    4998: 38           	sec
    4999: a5 19        	lda	$19                     ; 0x2019 <textPrint+0x14d>
    499b: f2 14        	sbc	($14)                   ; 0x2014 <textPrint+0x148>
    499d: 85 19        	sta	$19                     ; 0x2019 <textPrint+0x14d>
    499f: 8a           	txa
    49a0: e5 18        	sbc	$18                     ; 0x2018 <textPrint+0x14c>
    49a2: 85 18        	sta	$18                     ; 0x2018 <textPrint+0x14c>
    49a4: 18           	clc
    49a5: a0 03        	ldy	#$3
    49a7: a5 19        	lda	$19                     ; 0x2019 <textPrint+0x14d>
    49a9: 71 12        	adc	($12),y                 ; 0x2012 <textPrint+0x146>
    49ab: aa           	tax
    49ac: a0 01        	ldy	#$1
    49ae: a5 18        	lda	$18                     ; 0x2018 <textPrint+0x14c>
    49b0: 71 16        	adc	($16),y                 ; 0x2016 <textPrint+0x14a>
    49b2: 86 12        	stx	$12                     ; 0x2012 <textPrint+0x146>
    49b4: 85 13        	sta	$13                     ; 0x2013 <textPrint+0x147>
    49b6: a8           	tay
    49b7: 18           	clc
    49b8: 8a           	txa
    49b9: 69 03        	adc	#$3
    49bb: 85 16        	sta	$16                     ; 0x2016 <textPrint+0x14a>
    49bd: 98           	tya
    49be: 69 00        	adc	#$0
    49c0: 85 17        	sta	$17                     ; 0x2017 <textPrint+0x14b>
    49c2: a0 03        	ldy	#$3
    49c4: b1 12        	lda	($12),y                 ; 0x2012 <textPrint+0x146>
    49c6: 18           	clc
    49c7: 48           	pha
    49c8: a5 10        	lda	$10                     ; 0x2010 <textPrint+0x144>
    49ca: 69 1b        	adc	#$1b
    49cc: 85 12        	sta	$12                     ; 0x2012 <textPrint+0x146>
    49ce: a5 11        	lda	$11                     ; 0x2011 <textPrint+0x145>
    49d0: 69 00        	adc	#$0
    49d2: 85 13        	sta	$13                     ; 0x2013 <textPrint+0x147>
    49d4: 68           	pla
    49d5: 92 12        	sta	($12)                   ; 0x2012 <textPrint+0x146>
    49d7: a0 01        	ldy	#$1
    49d9: b1 16        	lda	($16),y                 ; 0x2016 <textPrint+0x14a>
    49db: a0 01        	ldy	#$1
    49dd: 91 12        	sta	($12),y                 ; 0x2012 <textPrint+0x146>
    49df: c8           	iny
    49e0: b1 16        	lda	($16),y                 ; 0x2016 <textPrint+0x14a>
    49e2: 91 12        	sta	($12),y                 ; 0x2012 <textPrint+0x146>
    49e4: c8           	iny
    49e5: b1 16        	lda	($16),y                 ; 0x2016 <textPrint+0x14a>
    49e7: 91 12        	sta	($12),y                 ; 0x2012 <textPrint+0x146>
    49e9: 18           	clc
    49ea: a5 10        	lda	$10                     ; 0x2010 <textPrint+0x144>
    49ec: 69 2f        	adc	#$2f
    49ee: 85 16        	sta	$16                     ; 0x2016 <textPrint+0x14a>
    49f0: a5 11        	lda	$11                     ; 0x2011 <textPrint+0x145>
    49f2: 69 00        	adc	#$0
    49f4: 85 17        	sta	$17                     ; 0x2017 <textPrint+0x14b>
    49f6: b2 16        	lda	($16)                   ; 0x2016 <textPrint+0x14a>
    49f8: 85 18        	sta	$18                     ; 0x2018 <textPrint+0x14c>
    49fa: a0 01        	ldy	#$1
    49fc: b1 16        	lda	($16),y                 ; 0x2016 <textPrint+0x14a>
    49fe: a0 01        	ldy	#$1
    4a00: aa           	tax
    4a01: a5 18        	lda	$18                     ; 0x2018 <textPrint+0x14c>
    4a03: 85 16        	sta	$16                     ; 0x2016 <textPrint+0x14a>
    4a05: 86 17        	stx	$17                     ; 0x2017 <textPrint+0x14b>
    4a07: b2 14        	lda	($14)                   ; 0x2014 <textPrint+0x148>
    4a09: 85 1a        	sta	$1a                     ; 0x201a <textPrint+0x14e>
    4a0b: b1 14        	lda	($14),y                 ; 0x2014 <textPrint+0x148>
    4a0d: 85 19        	sta	$19                     ; 0x2019 <textPrint+0x14d>
    4a0f: a5 1a        	lda	$1a                     ; 0x201a <textPrint+0x14e>
    4a11: 0a           	asl
    4a12: a0 01        	ldy	#$1
    4a14: b0 02        	bcs	$4a18 <playmidi+0x82d>
    4a16: a0 00        	ldy	#$0
    4a18: 84 1a        	sty	$1a                     ; 0x201a <textPrint+0x14e>
    4a1a: 18           	clc
    4a1b: a0 20        	ldy	#$20
    4a1d: 71 16        	adc	($16),y                 ; 0x2016 <textPrint+0x14a>
    4a1f: a0 01        	ldy	#$1
    4a21: b0 02        	bcs	$4a25 <playmidi+0x83a>
    4a23: a0 00        	ldy	#$0
    4a25: 84 17        	sty	$17                     ; 0x2017 <textPrint+0x14b>
    4a27: 85 16        	sta	$16                     ; 0x2016 <textPrint+0x14a>
    4a29: 18           	clc
    4a2a: a5 18        	lda	$18                     ; 0x2018 <textPrint+0x14c>
    4a2c: 69 20        	adc	#$20
    4a2e: 85 14        	sta	$14                     ; 0x2014 <textPrint+0x148>
    4a30: 8a           	txa
    4a31: 69 00        	adc	#$0
    4a33: 85 15        	sta	$15                     ; 0x2015 <textPrint+0x149>
    4a35: a5 19        	lda	$19                     ; 0x2019 <textPrint+0x14d>
    4a37: a6 1a        	ldx	$1a                     ; 0x201a <textPrint+0x14e>
    4a39: e0 01        	cpx	#$1
    4a3b: 2a           	rol
    4a3c: a0 01        	ldy	#$1
    4a3e: a6 17        	ldx	$17                     ; 0x2017 <textPrint+0x14b>
    4a40: e0 01        	cpx	#$1
    4a42: 71 14        	adc	($14),y                 ; 0x2014 <textPrint+0x148>
    4a44: 85 15        	sta	$15                     ; 0x2015 <textPrint+0x149>
    4a46: a6 16        	ldx	$16                     ; 0x2016 <textPrint+0x14a>
    4a48: 86 14        	stx	$14                     ; 0x2014 <textPrint+0x148>
    4a4a: b2 14        	lda	($14)                   ; 0x2014 <textPrint+0x148>
    4a4c: aa           	tax
    4a4d: b1 14        	lda	($14),y                 ; 0x2014 <textPrint+0x148>
    4a4f: 85 14        	sta	$14                     ; 0x2014 <textPrint+0x148>
    4a51: a0 01        	ldy	#$1
    4a53: 8a           	txa
    4a54: 0a           	asl
    4a55: aa           	tax
    4a56: a5 14        	lda	$14                     ; 0x2014 <textPrint+0x148>
    4a58: 2a           	rol
    4a59: 64 15        	stz	$15                     ; 0x2015 <textPrint+0x149>
    4a5b: 26 15        	rol	$15                     ; 0x2015 <textPrint+0x149>
    4a5d: 64 16        	stz	$16                     ; 0x2016 <textPrint+0x14a>
    4a5f: 26 16        	rol	$16                     ; 0x2016 <textPrint+0x14a>
    4a61: 86 14        	stx	$14                     ; 0x2014 <textPrint+0x148>
    4a63: 06 14        	asl	$14                     ; 0x2014 <textPrint+0x148>
    4a65: 2a           	rol
    4a66: aa           	tax
    4a67: a5 15        	lda	$15                     ; 0x2015 <textPrint+0x149>
    4a69: 2a           	rol
    4a6a: 26 16        	rol	$16                     ; 0x2016 <textPrint+0x14a>
    4a6c: 06 14        	asl	$14                     ; 0x2014 <textPrint+0x148>
    4a6e: 86 15        	stx	$15                     ; 0x2015 <textPrint+0x149>
    4a70: 26 15        	rol	$15                     ; 0x2015 <textPrint+0x149>
    4a72: 2a           	rol
    4a73: aa           	tax
    4a74: 26 16        	rol	$16                     ; 0x2016 <textPrint+0x14a>
    4a76: 18           	clc
    4a77: a5 14        	lda	$14                     ; 0x2014 <textPrint+0x148>
    4a79: 72 12        	adc	($12)                   ; 0x2012 <textPrint+0x146>
    4a7b: 85 14        	sta	$14                     ; 0x2014 <textPrint+0x148>
    4a7d: a5 15        	lda	$15                     ; 0x2015 <textPrint+0x149>
    4a7f: 71 12        	adc	($12),y                 ; 0x2012 <textPrint+0x146>
    4a81: 85 15        	sta	$15                     ; 0x2015 <textPrint+0x149>
    4a83: c8           	iny
    4a84: 8a           	txa
    4a85: 71 12        	adc	($12),y                 ; 0x2012 <textPrint+0x146>
    4a87: 85 17        	sta	$17                     ; 0x2017 <textPrint+0x14b>
    4a89: c8           	iny
    4a8a: a5 16        	lda	$16                     ; 0x2016 <textPrint+0x14a>
    4a8c: 71 12        	adc	($12),y                 ; 0x2012 <textPrint+0x146>
    4a8e: aa           	tax
    4a8f: a5 15        	lda	$15                     ; 0x2015 <textPrint+0x149>
    4a91: a0 01        	ldy	#$1
    4a93: 91 12        	sta	($12),y                 ; 0x2012 <textPrint+0x146>
    4a95: c8           	iny
    4a96: a5 17        	lda	$17                     ; 0x2017 <textPrint+0x14b>
    4a98: 91 12        	sta	($12),y                 ; 0x2012 <textPrint+0x146>
    4a9a: 8a           	txa
    4a9b: c8           	iny
    4a9c: 91 12        	sta	($12),y                 ; 0x2012 <textPrint+0x146>
    4a9e: a5 14        	lda	$14                     ; 0x2014 <textPrint+0x148>
    4aa0: 92 12        	sta	($12)                   ; 0x2012 <textPrint+0x146>
    4aa2: 4c 01 4d     	jmp	$4d01 <playmidi+0xb16>
    4aa5: 18           	clc
    4aa6: a5 10        	lda	$10                     ; 0x2010 <textPrint+0x144>
    4aa8: 69 15        	adc	#$15
    4aaa: 85 14        	sta	$14                     ; 0x2014 <textPrint+0x148>
    4aac: a5 11        	lda	$11                     ; 0x2011 <textPrint+0x145>
    4aae: 69 00        	adc	#$0
    4ab0: 85 15        	sta	$15                     ; 0x2015 <textPrint+0x149>
    4ab2: b2 14        	lda	($14)                   ; 0x2014 <textPrint+0x148>
    4ab4: 85 18        	sta	$18                     ; 0x2018 <textPrint+0x14c>
    4ab6: a0 01        	ldy	#$1
    4ab8: b1 14        	lda	($14),y                 ; 0x2014 <textPrint+0x148>
    4aba: 85 19        	sta	$19                     ; 0x2019 <textPrint+0x14d>
    4abc: c8           	iny
    4abd: b1 14        	lda	($14),y                 ; 0x2014 <textPrint+0x148>
    4abf: 85 1a        	sta	$1a                     ; 0x201a <textPrint+0x14e>
    4ac1: 18           	clc
    4ac2: a5 10        	lda	$10                     ; 0x2010 <textPrint+0x144>
    4ac4: 69 23        	adc	#$23
    4ac6: 85 16        	sta	$16                     ; 0x2016 <textPrint+0x14a>
    4ac8: a5 11        	lda	$11                     ; 0x2011 <textPrint+0x145>
    4aca: 69 00        	adc	#$0
    4acc: 85 17        	sta	$17                     ; 0x2017 <textPrint+0x14b>
    4ace: b2 16        	lda	($16)                   ; 0x2016 <textPrint+0x14a>
    4ad0: 85 12        	sta	$12                     ; 0x2012 <textPrint+0x146>
    4ad2: 88           	dey
    4ad3: b1 16        	lda	($16),y                 ; 0x2016 <textPrint+0x14a>
    4ad5: 85 13        	sta	$13                     ; 0x2013 <textPrint+0x147>
    4ad7: a0 03        	ldy	#$3
    4ad9: b1 14        	lda	($14),y                 ; 0x2014 <textPrint+0x148>
    4adb: aa           	tax
    4adc: 88           	dey
    4add: b1 16        	lda	($16),y                 ; 0x2016 <textPrint+0x14a>
    4adf: 85 14        	sta	$14                     ; 0x2014 <textPrint+0x148>
    4ae1: c8           	iny
    4ae2: 8a           	txa
    4ae3: d1 16        	cmp	($16),y                 ; 0x2016 <textPrint+0x14a>
    4ae5: a2 01        	ldx	#$1
    4ae7: b0 02        	bcs	$4aeb <playmidi+0x900>
    4ae9: a2 00        	ldx	#$0
    4aeb: 86 15        	stx	$15                     ; 0x2015 <textPrint+0x149>
    4aed: d1 16        	cmp	($16),y                 ; 0x2016 <textPrint+0x14a>
    4aef: f0 02        	beq	$4af3 <playmidi+0x908>
    4af1: 80 3f        	bra	$4b32 <playmidi+0x947>
    4af3: a6 1a        	ldx	$1a                     ; 0x201a <textPrint+0x14e>
    4af5: e4 14        	cpx	$14                     ; 0x2014 <textPrint+0x148>
    4af7: a0 01        	ldy	#$1
    4af9: b0 02        	bcs	$4afd <playmidi+0x912>
    4afb: a0 00        	ldy	#$0
    4afd: 84 15        	sty	$15                     ; 0x2015 <textPrint+0x149>
    4aff: e4 14        	cpx	$14                     ; 0x2014 <textPrint+0x148>
    4b01: f0 02        	beq	$4b05 <playmidi+0x91a>
    4b03: 80 24        	bra	$4b29 <playmidi+0x93e>
    4b05: a6 19        	ldx	$19                     ; 0x2019 <textPrint+0x14d>
    4b07: e4 13        	cpx	$13                     ; 0x2013 <textPrint+0x147>
    4b09: a0 01        	ldy	#$1
    4b0b: b0 02        	bcs	$4b0f <playmidi+0x924>
    4b0d: a0 00        	ldy	#$0
    4b0f: 84 14        	sty	$14                     ; 0x2014 <textPrint+0x148>
    4b11: e4 13        	cpx	$13                     ; 0x2013 <textPrint+0x147>
    4b13: f0 02        	beq	$4b17 <playmidi+0x92c>
    4b15: 80 09        	bra	$4b20 <playmidi+0x935>
    4b17: a6 18        	ldx	$18                     ; 0x2018 <textPrint+0x14c>
    4b19: e4 12        	cpx	$12                     ; 0x2012 <textPrint+0x146>
    4b1b: 90 0a        	bcc	$4b27 <playmidi+0x93c>
    4b1d: 4c d7 4c     	jmp	$4cd7 <playmidi+0xaec>
    4b20: a5 14        	lda	$14                     ; 0x2014 <textPrint+0x148>
    4b22: f0 03        	beq	$4b27 <playmidi+0x93c>
    4b24: 4c d7 4c     	jmp	$4cd7 <playmidi+0xaec>
    4b27: 80 07        	bra	$4b30 <playmidi+0x945>
    4b29: a5 15        	lda	$15                     ; 0x2015 <textPrint+0x149>
    4b2b: f0 03        	beq	$4b30 <playmidi+0x945>
    4b2d: 4c d7 4c     	jmp	$4cd7 <playmidi+0xaec>
    4b30: 80 07        	bra	$4b39 <playmidi+0x94e>
    4b32: a5 15        	lda	$15                     ; 0x2015 <textPrint+0x149>
    4b34: f0 03        	beq	$4b39 <playmidi+0x94e>
    4b36: 4c d7 4c     	jmp	$4cd7 <playmidi+0xaec>
    4b39: 80 00        	bra	$4b3b <playmidi+0x950>
    4b3b: 18           	clc
    4b3c: a5 10        	lda	$10                     ; 0x2010 <textPrint+0x144>
    4b3e: 69 15        	adc	#$15
    4b40: 85 12        	sta	$12                     ; 0x2012 <textPrint+0x146>
    4b42: a5 11        	lda	$11                     ; 0x2011 <textPrint+0x145>
    4b44: 69 00        	adc	#$0
    4b46: 85 13        	sta	$13                     ; 0x2013 <textPrint+0x147>
    4b48: b2 12        	lda	($12)                   ; 0x2012 <textPrint+0x146>
    4b4a: 18           	clc
    4b4b: 48           	pha
    4b4c: a5 10        	lda	$10                     ; 0x2010 <textPrint+0x144>
    4b4e: 69 23        	adc	#$23
    4b50: 85 14        	sta	$14                     ; 0x2014 <textPrint+0x148>
    4b52: a5 11        	lda	$11                     ; 0x2011 <textPrint+0x145>
    4b54: 69 00        	adc	#$0
    4b56: 85 15        	sta	$15                     ; 0x2015 <textPrint+0x149>
    4b58: 68           	pla
    4b59: 92 14        	sta	($14)                   ; 0x2014 <textPrint+0x148>
    4b5b: a0 01        	ldy	#$1
    4b5d: b1 12        	lda	($12),y                 ; 0x2012 <textPrint+0x146>
    4b5f: 91 14        	sta	($14),y                 ; 0x2014 <textPrint+0x148>
    4b61: c8           	iny
    4b62: b1 12        	lda	($12),y                 ; 0x2012 <textPrint+0x146>
    4b64: 91 14        	sta	($14),y                 ; 0x2014 <textPrint+0x148>
    4b66: c8           	iny
    4b67: b1 12        	lda	($12),y                 ; 0x2012 <textPrint+0x146>
    4b69: 91 14        	sta	($14),y                 ; 0x2014 <textPrint+0x148>
    4b6b: 18           	clc
    4b6c: a5 10        	lda	$10                     ; 0x2010 <textPrint+0x144>
    4b6e: 69 2b        	adc	#$2b
    4b70: 85 14        	sta	$14                     ; 0x2014 <textPrint+0x148>
    4b72: a5 11        	lda	$11                     ; 0x2011 <textPrint+0x145>
    4b74: 69 00        	adc	#$0
    4b76: 85 15        	sta	$15                     ; 0x2015 <textPrint+0x149>
    4b78: b2 14        	lda	($14)                   ; 0x2014 <textPrint+0x148>
    4b7a: 18           	clc
    4b7b: 48           	pha
    4b7c: a5 10        	lda	$10                     ; 0x2010 <textPrint+0x144>
    4b7e: 69 29        	adc	#$29
    4b80: 85 12        	sta	$12                     ; 0x2012 <textPrint+0x146>
    4b82: a5 11        	lda	$11                     ; 0x2011 <textPrint+0x145>
    4b84: 69 00        	adc	#$0
    4b86: 85 13        	sta	$13                     ; 0x2013 <textPrint+0x147>
    4b88: 68           	pla
    4b89: 92 12        	sta	($12)                   ; 0x2012 <textPrint+0x146>
    4b8b: a0 01        	ldy	#$1
    4b8d: b1 14        	lda	($14),y                 ; 0x2014 <textPrint+0x148>
    4b8f: a0 01        	ldy	#$1
    4b91: 91 12        	sta	($12),y                 ; 0x2012 <textPrint+0x146>
    4b93: a0 01        	ldy	#$1
    4b95: 18           	clc
    4b96: a5 10        	lda	$10                     ; 0x2010 <textPrint+0x144>
    4b98: 69 2d        	adc	#$2d
    4b9a: 85 12        	sta	$12                     ; 0x2012 <textPrint+0x146>
    4b9c: a5 11        	lda	$11                     ; 0x2011 <textPrint+0x145>
    4b9e: 69 00        	adc	#$0
    4ba0: 85 13        	sta	$13                     ; 0x2013 <textPrint+0x147>
    4ba2: b2 12        	lda	($12)                   ; 0x2012 <textPrint+0x146>
    4ba4: 85 16        	sta	$16                     ; 0x2016 <textPrint+0x14a>
    4ba6: b1 12        	lda	($12),y                 ; 0x2012 <textPrint+0x146>
    4ba8: aa           	tax
    4ba9: a0 01        	ldy	#$1
    4bab: a5 16        	lda	$16                     ; 0x2016 <textPrint+0x14a>
    4bad: 85 12        	sta	$12                     ; 0x2012 <textPrint+0x146>
    4baf: 86 13        	stx	$13                     ; 0x2013 <textPrint+0x147>
    4bb1: 18           	clc
    4bb2: 69 03        	adc	#$3
    4bb4: 85 16        	sta	$16                     ; 0x2016 <textPrint+0x14a>
    4bb6: 8a           	txa
    4bb7: 69 00        	adc	#$0
    4bb9: 85 17        	sta	$17                     ; 0x2017 <textPrint+0x14b>
    4bbb: b2 14        	lda	($14)                   ; 0x2014 <textPrint+0x148>
    4bbd: 85 19        	sta	$19                     ; 0x2019 <textPrint+0x14d>
    4bbf: b1 14        	lda	($14),y                 ; 0x2014 <textPrint+0x148>
    4bc1: 85 18        	sta	$18                     ; 0x2018 <textPrint+0x14c>
    4bc3: 06 19        	asl	$19                     ; 0x2019 <textPrint+0x14d>
    4bc5: 2a           	rol
    4bc6: 06 19        	asl	$19                     ; 0x2019 <textPrint+0x14d>
    4bc8: 2a           	rol
    4bc9: 06 19        	asl	$19                     ; 0x2019 <textPrint+0x14d>
    4bcb: 2a           	rol
    4bcc: aa           	tax
    4bcd: 38           	sec
    4bce: a5 19        	lda	$19                     ; 0x2019 <textPrint+0x14d>
    4bd0: f2 14        	sbc	($14)                   ; 0x2014 <textPrint+0x148>
    4bd2: 85 19        	sta	$19                     ; 0x2019 <textPrint+0x14d>
    4bd4: 8a           	txa
    4bd5: e5 18        	sbc	$18                     ; 0x2018 <textPrint+0x14c>
    4bd7: 85 18        	sta	$18                     ; 0x2018 <textPrint+0x14c>
    4bd9: 18           	clc
    4bda: a0 03        	ldy	#$3
    4bdc: a5 19        	lda	$19                     ; 0x2019 <textPrint+0x14d>
    4bde: 71 12        	adc	($12),y                 ; 0x2012 <textPrint+0x146>
    4be0: aa           	tax
    4be1: a0 01        	ldy	#$1
    4be3: a5 18        	lda	$18                     ; 0x2018 <textPrint+0x14c>
    4be5: 71 16        	adc	($16),y                 ; 0x2016 <textPrint+0x14a>
    4be7: 86 12        	stx	$12                     ; 0x2012 <textPrint+0x146>
    4be9: 85 13        	sta	$13                     ; 0x2013 <textPrint+0x147>
    4beb: a8           	tay
    4bec: 18           	clc
    4bed: 8a           	txa
    4bee: 69 03        	adc	#$3
    4bf0: 85 16        	sta	$16                     ; 0x2016 <textPrint+0x14a>
    4bf2: 98           	tya
    4bf3: 69 00        	adc	#$0
    4bf5: 85 17        	sta	$17                     ; 0x2017 <textPrint+0x14b>
    4bf7: a0 03        	ldy	#$3
    4bf9: b1 12        	lda	($12),y                 ; 0x2012 <textPrint+0x146>
    4bfb: 18           	clc
    4bfc: 48           	pha
    4bfd: a5 10        	lda	$10                     ; 0x2010 <textPrint+0x144>
    4bff: 69 1b        	adc	#$1b
    4c01: 85 12        	sta	$12                     ; 0x2012 <textPrint+0x146>
    4c03: a5 11        	lda	$11                     ; 0x2011 <textPrint+0x145>
    4c05: 69 00        	adc	#$0
    4c07: 85 13        	sta	$13                     ; 0x2013 <textPrint+0x147>
    4c09: 68           	pla
    4c0a: 92 12        	sta	($12)                   ; 0x2012 <textPrint+0x146>
    4c0c: a0 01        	ldy	#$1
    4c0e: b1 16        	lda	($16),y                 ; 0x2016 <textPrint+0x14a>
    4c10: 91 12        	sta	($12),y                 ; 0x2012 <textPrint+0x146>
    4c12: c8           	iny
    4c13: b1 16        	lda	($16),y                 ; 0x2016 <textPrint+0x14a>
    4c15: 91 12        	sta	($12),y                 ; 0x2012 <textPrint+0x146>
    4c17: c8           	iny
    4c18: b1 16        	lda	($16),y                 ; 0x2016 <textPrint+0x14a>
    4c1a: a0 03        	ldy	#$3
    4c1c: 91 12        	sta	($12),y                 ; 0x2012 <textPrint+0x146>
    4c1e: 18           	clc
    4c1f: a5 10        	lda	$10                     ; 0x2010 <textPrint+0x144>
    4c21: 69 2f        	adc	#$2f
    4c23: 85 16        	sta	$16                     ; 0x2016 <textPrint+0x14a>
    4c25: a5 11        	lda	$11                     ; 0x2011 <textPrint+0x145>
    4c27: 69 00        	adc	#$0
    4c29: 85 17        	sta	$17                     ; 0x2017 <textPrint+0x14b>
    4c2b: b2 16        	lda	($16)                   ; 0x2016 <textPrint+0x14a>
    4c2d: 85 18        	sta	$18                     ; 0x2018 <textPrint+0x14c>
    4c2f: a0 01        	ldy	#$1
    4c31: b1 16        	lda	($16),y                 ; 0x2016 <textPrint+0x14a>
    4c33: a0 01        	ldy	#$1
    4c35: aa           	tax
    4c36: a5 18        	lda	$18                     ; 0x2018 <textPrint+0x14c>
    4c38: 85 16        	sta	$16                     ; 0x2016 <textPrint+0x14a>
    4c3a: 86 17        	stx	$17                     ; 0x2017 <textPrint+0x14b>
    4c3c: b2 14        	lda	($14)                   ; 0x2014 <textPrint+0x148>
    4c3e: 85 1a        	sta	$1a                     ; 0x201a <textPrint+0x14e>
    4c40: b1 14        	lda	($14),y                 ; 0x2014 <textPrint+0x148>
    4c42: 85 19        	sta	$19                     ; 0x2019 <textPrint+0x14d>
    4c44: a5 1a        	lda	$1a                     ; 0x201a <textPrint+0x14e>
    4c46: 0a           	asl
    4c47: a0 01        	ldy	#$1
    4c49: b0 02        	bcs	$4c4d <playmidi+0xa62>
    4c4b: a0 00        	ldy	#$0
    4c4d: 84 1a        	sty	$1a                     ; 0x201a <textPrint+0x14e>
    4c4f: 18           	clc
    4c50: a0 20        	ldy	#$20
    4c52: 71 16        	adc	($16),y                 ; 0x2016 <textPrint+0x14a>
    4c54: a0 01        	ldy	#$1
    4c56: b0 02        	bcs	$4c5a <playmidi+0xa6f>
    4c58: a0 00        	ldy	#$0
    4c5a: 84 17        	sty	$17                     ; 0x2017 <textPrint+0x14b>
    4c5c: 85 16        	sta	$16                     ; 0x2016 <textPrint+0x14a>
    4c5e: 18           	clc
    4c5f: a5 18        	lda	$18                     ; 0x2018 <textPrint+0x14c>
    4c61: 69 20        	adc	#$20
    4c63: 85 14        	sta	$14                     ; 0x2014 <textPrint+0x148>
    4c65: 8a           	txa
    4c66: 69 00        	adc	#$0
    4c68: 85 15        	sta	$15                     ; 0x2015 <textPrint+0x149>
    4c6a: a5 19        	lda	$19                     ; 0x2019 <textPrint+0x14d>
    4c6c: a6 1a        	ldx	$1a                     ; 0x201a <textPrint+0x14e>
    4c6e: e0 01        	cpx	#$1
    4c70: 2a           	rol
    4c71: a0 01        	ldy	#$1
    4c73: a6 17        	ldx	$17                     ; 0x2017 <textPrint+0x14b>
    4c75: e0 01        	cpx	#$1
    4c77: 71 14        	adc	($14),y                 ; 0x2014 <textPrint+0x148>
    4c79: 85 15        	sta	$15                     ; 0x2015 <textPrint+0x149>
    4c7b: a6 16        	ldx	$16                     ; 0x2016 <textPrint+0x14a>
    4c7d: 86 14        	stx	$14                     ; 0x2014 <textPrint+0x148>
    4c7f: b2 14        	lda	($14)                   ; 0x2014 <textPrint+0x148>
    4c81: aa           	tax
    4c82: b1 14        	lda	($14),y                 ; 0x2014 <textPrint+0x148>
    4c84: 85 14        	sta	$14                     ; 0x2014 <textPrint+0x148>
    4c86: a0 01        	ldy	#$1
    4c88: 8a           	txa
    4c89: 0a           	asl
    4c8a: aa           	tax
    4c8b: a5 14        	lda	$14                     ; 0x2014 <textPrint+0x148>
    4c8d: 2a           	rol
    4c8e: 64 15        	stz	$15                     ; 0x2015 <textPrint+0x149>
    4c90: 26 15        	rol	$15                     ; 0x2015 <textPrint+0x149>
    4c92: 64 16        	stz	$16                     ; 0x2016 <textPrint+0x14a>
    4c94: 26 16        	rol	$16                     ; 0x2016 <textPrint+0x14a>
    4c96: 86 14        	stx	$14                     ; 0x2014 <textPrint+0x148>
    4c98: 06 14        	asl	$14                     ; 0x2014 <textPrint+0x148>
    4c9a: 2a           	rol
    4c9b: aa           	tax
    4c9c: a5 15        	lda	$15                     ; 0x2015 <textPrint+0x149>
    4c9e: 2a           	rol
    4c9f: 26 16        	rol	$16                     ; 0x2016 <textPrint+0x14a>
    4ca1: 06 14        	asl	$14                     ; 0x2014 <textPrint+0x148>
    4ca3: 86 15        	stx	$15                     ; 0x2015 <textPrint+0x149>
    4ca5: 26 15        	rol	$15                     ; 0x2015 <textPrint+0x149>
    4ca7: 2a           	rol
    4ca8: aa           	tax
    4ca9: 26 16        	rol	$16                     ; 0x2016 <textPrint+0x14a>
    4cab: 18           	clc
    4cac: a5 14        	lda	$14                     ; 0x2014 <textPrint+0x148>
    4cae: 72 12        	adc	($12)                   ; 0x2012 <textPrint+0x146>
    4cb0: 85 14        	sta	$14                     ; 0x2014 <textPrint+0x148>
    4cb2: a5 15        	lda	$15                     ; 0x2015 <textPrint+0x149>
    4cb4: 71 12        	adc	($12),y                 ; 0x2012 <textPrint+0x146>
    4cb6: 85 15        	sta	$15                     ; 0x2015 <textPrint+0x149>
    4cb8: c8           	iny
    4cb9: 8a           	txa
    4cba: 71 12        	adc	($12),y                 ; 0x2012 <textPrint+0x146>
    4cbc: 85 17        	sta	$17                     ; 0x2017 <textPrint+0x14b>
    4cbe: c8           	iny
    4cbf: a5 16        	lda	$16                     ; 0x2016 <textPrint+0x14a>
    4cc1: 71 12        	adc	($12),y                 ; 0x2012 <textPrint+0x146>
    4cc3: aa           	tax
    4cc4: a5 15        	lda	$15                     ; 0x2015 <textPrint+0x149>
    4cc6: a0 01        	ldy	#$1
    4cc8: 91 12        	sta	($12),y                 ; 0x2012 <textPrint+0x146>
    4cca: c8           	iny
    4ccb: a5 17        	lda	$17                     ; 0x2017 <textPrint+0x14b>
    4ccd: 91 12        	sta	($12),y                 ; 0x2012 <textPrint+0x146>
    4ccf: 8a           	txa
    4cd0: c8           	iny
    4cd1: 91 12        	sta	($12),y                 ; 0x2012 <textPrint+0x146>
    4cd3: a5 14        	lda	$14                     ; 0x2014 <textPrint+0x148>
    4cd5: 92 12        	sta	($12)                   ; 0x2012 <textPrint+0x146>
    4cd7: 18           	clc
    4cd8: a5 10        	lda	$10                     ; 0x2010 <textPrint+0x144>
    4cda: 69 2b        	adc	#$2b
    4cdc: 85 12        	sta	$12                     ; 0x2012 <textPrint+0x146>
    4cde: a5 11        	lda	$11                     ; 0x2011 <textPrint+0x145>
    4ce0: 69 00        	adc	#$0
    4ce2: 85 13        	sta	$13                     ; 0x2013 <textPrint+0x147>
    4ce4: b2 12        	lda	($12)                   ; 0x2012 <textPrint+0x146>
    4ce6: aa           	tax
    4ce7: a0 01        	ldy	#$1
    4ce9: b1 12        	lda	($12),y                 ; 0x2012 <textPrint+0x146>
    4ceb: e8           	inx
    4cec: f0 03        	beq	$4cf1 <playmidi+0xb06>
    4cee: 4c f5 4c     	jmp	$4cf5 <playmidi+0xb0a>
    4cf1: 1a           	inc
    4cf2: 4c f5 4c     	jmp	$4cf5 <playmidi+0xb0a>
    4cf5: 85 14        	sta	$14                     ; 0x2014 <textPrint+0x148>
    4cf7: 8a           	txa
    4cf8: 92 12        	sta	($12)                   ; 0x2012 <textPrint+0x146>
    4cfa: a5 14        	lda	$14                     ; 0x2014 <textPrint+0x148>
    4cfc: 91 12        	sta	($12),y                 ; 0x2012 <textPrint+0x146>
    4cfe: 4c 69 47     	jmp	$4769 <playmidi+0x57e>
    4d01: 18           	clc
    4d02: a5 10        	lda	$10                     ; 0x2010 <textPrint+0x144>
    4d04: 69 23        	adc	#$23
    4d06: 85 24        	sta	$24                     ; 0x2024 <textPrint+0x158>
    4d08: a5 11        	lda	$11                     ; 0x2011 <textPrint+0x145>
    4d0a: 69 00        	adc	#$0
    4d0c: 85 25        	sta	$25                     ; 0x2025 <textPrint+0x159>
    4d0e: b2 24        	lda	($24)                   ; 0x2024 <textPrint+0x158>
    4d10: 18           	clc
    4d11: 48           	pha
    4d12: a5 10        	lda	$10                     ; 0x2010 <textPrint+0x144>
    4d14: 69 06        	adc	#$6
    4d16: 85 26        	sta	$26                     ; 0x2026 <textPrint+0x15a>
    4d18: a5 11        	lda	$11                     ; 0x2011 <textPrint+0x145>
    4d1a: 69 00        	adc	#$0
    4d1c: 85 27        	sta	$27                     ; 0x2027 <textPrint+0x15b>
    4d1e: 68           	pla
    4d1f: 92 26        	sta	($26)                   ; 0x2026 <textPrint+0x15a>
    4d21: a0 01        	ldy	#$1
    4d23: b1 24        	lda	($24),y                 ; 0x2024 <textPrint+0x158>
    4d25: 91 26        	sta	($26),y                 ; 0x2026 <textPrint+0x15a>
    4d27: c8           	iny
    4d28: b1 24        	lda	($24),y                 ; 0x2024 <textPrint+0x158>
    4d2a: 91 26        	sta	($26),y                 ; 0x2026 <textPrint+0x15a>
    4d2c: c8           	iny
    4d2d: b1 24        	lda	($24),y                 ; 0x2024 <textPrint+0x158>
    4d2f: 91 26        	sta	($26),y                 ; 0x2026 <textPrint+0x15a>
    4d31: 18           	clc
    4d32: a5 10        	lda	$10                     ; 0x2010 <textPrint+0x144>
    4d34: 69 2f        	adc	#$2f
    4d36: 85 28        	sta	$28                     ; 0x2028 <textPrint+0x15c>
    4d38: a5 11        	lda	$11                     ; 0x2011 <textPrint+0x145>
    4d3a: 69 00        	adc	#$0
    4d3c: 85 29        	sta	$29                     ; 0x2029 <textPrint+0x15d>
    4d3e: b2 28        	lda	($28)                   ; 0x2028 <textPrint+0x15c>
    4d40: 85 12        	sta	$12                     ; 0x2012 <textPrint+0x146>
    4d42: a0 01        	ldy	#$1
    4d44: b1 28        	lda	($28),y                 ; 0x2028 <textPrint+0x15c>
    4d46: aa           	tax
    4d47: a5 12        	lda	$12                     ; 0x2012 <textPrint+0x146>
    4d49: 86 13        	stx	$13                     ; 0x2013 <textPrint+0x147>
    4d4b: 18           	clc
    4d4c: 69 30        	adc	#$30
    4d4e: 85 14        	sta	$14                     ; 0x2014 <textPrint+0x148>
    4d50: 8a           	txa
    4d51: 69 00        	adc	#$0
    4d53: 85 15        	sta	$15                     ; 0x2015 <textPrint+0x149>
    4d55: a0 30        	ldy	#$30
    4d57: b1 12        	lda	($12),y                 ; 0x2012 <textPrint+0x146>
    4d59: 85 12        	sta	$12                     ; 0x2012 <textPrint+0x146>
    4d5b: 18           	clc
    4d5c: a5 10        	lda	$10                     ; 0x2010 <textPrint+0x144>
    4d5e: 69 1b        	adc	#$1b
    4d60: 85 2a        	sta	$2a                     ; 0x202a <textPrint+0x15e>
    4d62: a5 11        	lda	$11                     ; 0x2011 <textPrint+0x145>
    4d64: 69 00        	adc	#$0
    4d66: 85 2b        	sta	$2b                     ; 0x202b <textPrint+0x15f>
    4d68: a0 01        	ldy	#$1
    4d6a: b1 2a        	lda	($2a),y                 ; 0x202a <textPrint+0x15e>
    4d6c: 85 17        	sta	$17                     ; 0x2017 <textPrint+0x14b>
    4d6e: c8           	iny
    4d6f: b1 2a        	lda	($2a),y                 ; 0x202a <textPrint+0x15e>
    4d71: 85 13        	sta	$13                     ; 0x2013 <textPrint+0x147>
    4d73: c8           	iny
    4d74: b1 2a        	lda	($2a),y                 ; 0x202a <textPrint+0x15e>
    4d76: 85 16        	sta	$16                     ; 0x2016 <textPrint+0x14a>
    4d78: 18           	clc
    4d79: a5 12        	lda	$12                     ; 0x2012 <textPrint+0x146>
    4d7b: 72 2a        	adc	($2a)                   ; 0x202a <textPrint+0x15e>
    4d7d: 85 12        	sta	$12                     ; 0x2012 <textPrint+0x146>
    4d7f: a5 17        	lda	$17                     ; 0x2017 <textPrint+0x14b>
    4d81: a0 01        	ldy	#$1
    4d83: 71 14        	adc	($14),y                 ; 0x2014 <textPrint+0x148>
    4d85: 85 17        	sta	$17                     ; 0x2017 <textPrint+0x14b>
    4d87: a5 13        	lda	$13                     ; 0x2013 <textPrint+0x147>
    4d89: c8           	iny
    4d8a: 71 14        	adc	($14),y                 ; 0x2014 <textPrint+0x148>
    4d8c: 85 13        	sta	$13                     ; 0x2013 <textPrint+0x147>
    4d8e: c8           	iny
    4d8f: a5 16        	lda	$16                     ; 0x2016 <textPrint+0x14a>
    4d91: 71 14        	adc	($14),y                 ; 0x2014 <textPrint+0x148>
    4d93: aa           	tax
    4d94: 18           	clc
    4d95: a5 12        	lda	$12                     ; 0x2012 <textPrint+0x146>
    4d97: 69 04        	adc	#$4
    4d99: a8           	tay
    4d9a: a5 17        	lda	$17                     ; 0x2017 <textPrint+0x14b>
    4d9c: 69 00        	adc	#$0
    4d9e: 85 14        	sta	$14                     ; 0x2014 <textPrint+0x148>
    4da0: a5 13        	lda	$13                     ; 0x2013 <textPrint+0x147>
    4da2: 69 00        	adc	#$0
    4da4: 85 12        	sta	$12                     ; 0x2012 <textPrint+0x146>
    4da6: 8a           	txa
    4da7: 69 00        	adc	#$0
    4da9: 85 13        	sta	$13                     ; 0x2013 <textPrint+0x147>
    4dab: a6 14        	ldx	$14                     ; 0x2014 <textPrint+0x148>
    4dad: 98           	tya
    4dae: 20 3f 17     	jsr	$173f <FAR_PEEK>
    4db1: a0 04        	ldy	#$4
    4db3: 91 26        	sta	($26),y                 ; 0x2026 <textPrint+0x15a>
    4db5: b2 28        	lda	($28)                   ; 0x2028 <textPrint+0x15c>
    4db7: 85 12        	sta	$12                     ; 0x2012 <textPrint+0x146>
    4db9: a0 01        	ldy	#$1
    4dbb: b1 28        	lda	($28),y                 ; 0x2028 <textPrint+0x15c>
    4dbd: aa           	tax
    4dbe: a5 12        	lda	$12                     ; 0x2012 <textPrint+0x146>
    4dc0: 86 13        	stx	$13                     ; 0x2013 <textPrint+0x147>
    4dc2: 18           	clc
    4dc3: 69 30        	adc	#$30
    4dc5: 85 14        	sta	$14                     ; 0x2014 <textPrint+0x148>
    4dc7: 8a           	txa
    4dc8: 69 00        	adc	#$0
    4dca: 85 15        	sta	$15                     ; 0x2015 <textPrint+0x149>
    4dcc: a0 30        	ldy	#$30
    4dce: b1 12        	lda	($12),y                 ; 0x2012 <textPrint+0x146>
    4dd0: 85 12        	sta	$12                     ; 0x2012 <textPrint+0x146>
    4dd2: a0 01        	ldy	#$1
    4dd4: b1 2a        	lda	($2a),y                 ; 0x202a <textPrint+0x15e>
    4dd6: 85 17        	sta	$17                     ; 0x2017 <textPrint+0x14b>
    4dd8: c8           	iny
    4dd9: b1 2a        	lda	($2a),y                 ; 0x202a <textPrint+0x15e>
    4ddb: 85 16        	sta	$16                     ; 0x2016 <textPrint+0x14a>
    4ddd: c8           	iny
    4dde: b1 2a        	lda	($2a),y                 ; 0x202a <textPrint+0x15e>
    4de0: 85 13        	sta	$13                     ; 0x2013 <textPrint+0x147>
    4de2: 18           	clc
    4de3: a5 12        	lda	$12                     ; 0x2012 <textPrint+0x146>
    4de5: 72 2a        	adc	($2a)                   ; 0x202a <textPrint+0x15e>
    4de7: 85 12        	sta	$12                     ; 0x2012 <textPrint+0x146>
    4de9: a5 17        	lda	$17                     ; 0x2017 <textPrint+0x14b>
    4deb: a0 01        	ldy	#$1
    4ded: 71 14        	adc	($14),y                 ; 0x2014 <textPrint+0x148>
    4def: 85 17        	sta	$17                     ; 0x2017 <textPrint+0x14b>
    4df1: c8           	iny
    4df2: a5 16        	lda	$16                     ; 0x2016 <textPrint+0x14a>
    4df4: 71 14        	adc	($14),y                 ; 0x2014 <textPrint+0x148>
    4df6: 85 16        	sta	$16                     ; 0x2016 <textPrint+0x14a>
    4df8: a5 13        	lda	$13                     ; 0x2013 <textPrint+0x147>
    4dfa: c8           	iny
    4dfb: 71 14        	adc	($14),y                 ; 0x2014 <textPrint+0x148>
    4dfd: 85 13        	sta	$13                     ; 0x2013 <textPrint+0x147>
    4dff: 18           	clc
    4e00: a5 12        	lda	$12                     ; 0x2012 <textPrint+0x146>
    4e02: 69 05        	adc	#$5
    4e04: a8           	tay
    4e05: a5 17        	lda	$17                     ; 0x2017 <textPrint+0x14b>
    4e07: 69 00        	adc	#$0
    4e09: aa           	tax
    4e0a: a5 16        	lda	$16                     ; 0x2016 <textPrint+0x14a>
    4e0c: 69 00        	adc	#$0
    4e0e: 85 12        	sta	$12                     ; 0x2012 <textPrint+0x146>
    4e10: a5 13        	lda	$13                     ; 0x2013 <textPrint+0x147>
    4e12: 69 00        	adc	#$0
    4e14: 85 13        	sta	$13                     ; 0x2013 <textPrint+0x147>
    4e16: 98           	tya
    4e17: 20 3f 17     	jsr	$173f <FAR_PEEK>
    4e1a: a0 05        	ldy	#$5
    4e1c: 91 26        	sta	($26),y                 ; 0x2026 <textPrint+0x15a>
    4e1e: b2 28        	lda	($28)                   ; 0x2028 <textPrint+0x15c>
    4e20: 85 12        	sta	$12                     ; 0x2012 <textPrint+0x146>
    4e22: a0 01        	ldy	#$1
    4e24: b1 28        	lda	($28),y                 ; 0x2028 <textPrint+0x15c>
    4e26: aa           	tax
    4e27: a5 12        	lda	$12                     ; 0x2012 <textPrint+0x146>
    4e29: 86 13        	stx	$13                     ; 0x2013 <textPrint+0x147>
    4e2b: 18           	clc
    4e2c: 69 30        	adc	#$30
    4e2e: 85 14        	sta	$14                     ; 0x2014 <textPrint+0x148>
    4e30: 8a           	txa
    4e31: 69 00        	adc	#$0
    4e33: 85 15        	sta	$15                     ; 0x2015 <textPrint+0x149>
    4e35: a0 30        	ldy	#$30
    4e37: b1 12        	lda	($12),y                 ; 0x2012 <textPrint+0x146>
    4e39: 85 12        	sta	$12                     ; 0x2012 <textPrint+0x146>
    4e3b: a0 01        	ldy	#$1
    4e3d: b1 2a        	lda	($2a),y                 ; 0x202a <textPrint+0x15e>
    4e3f: 85 17        	sta	$17                     ; 0x2017 <textPrint+0x14b>
    4e41: c8           	iny
    4e42: b1 2a        	lda	($2a),y                 ; 0x202a <textPrint+0x15e>
    4e44: 85 13        	sta	$13                     ; 0x2013 <textPrint+0x147>
    4e46: c8           	iny
    4e47: b1 2a        	lda	($2a),y                 ; 0x202a <textPrint+0x15e>
    4e49: 85 16        	sta	$16                     ; 0x2016 <textPrint+0x14a>
    4e4b: 18           	clc
    4e4c: a5 12        	lda	$12                     ; 0x2012 <textPrint+0x146>
    4e4e: 72 2a        	adc	($2a)                   ; 0x202a <textPrint+0x15e>
    4e50: 85 12        	sta	$12                     ; 0x2012 <textPrint+0x146>
    4e52: a0 01        	ldy	#$1
    4e54: a5 17        	lda	$17                     ; 0x2017 <textPrint+0x14b>
    4e56: 71 14        	adc	($14),y                 ; 0x2014 <textPrint+0x148>
    4e58: 85 17        	sta	$17                     ; 0x2017 <textPrint+0x14b>
    4e5a: a5 13        	lda	$13                     ; 0x2013 <textPrint+0x147>
    4e5c: c8           	iny
    4e5d: 71 14        	adc	($14),y                 ; 0x2014 <textPrint+0x148>
    4e5f: 85 13        	sta	$13                     ; 0x2013 <textPrint+0x147>
    4e61: c8           	iny
    4e62: a5 16        	lda	$16                     ; 0x2016 <textPrint+0x14a>
    4e64: 71 14        	adc	($14),y                 ; 0x2014 <textPrint+0x148>
    4e66: aa           	tax
    4e67: 18           	clc
    4e68: a5 12        	lda	$12                     ; 0x2012 <textPrint+0x146>
    4e6a: 69 06        	adc	#$6
    4e6c: a8           	tay
    4e6d: a5 17        	lda	$17                     ; 0x2017 <textPrint+0x14b>
    4e6f: 69 00        	adc	#$0
    4e71: 85 14        	sta	$14                     ; 0x2014 <textPrint+0x148>
    4e73: a5 13        	lda	$13                     ; 0x2013 <textPrint+0x147>
    4e75: 69 00        	adc	#$0
    4e77: 85 12        	sta	$12                     ; 0x2012 <textPrint+0x146>
    4e79: 8a           	txa
    4e7a: 69 00        	adc	#$0
    4e7c: 85 13        	sta	$13                     ; 0x2013 <textPrint+0x147>
    4e7e: a6 14        	ldx	$14                     ; 0x2014 <textPrint+0x148>
    4e80: 98           	tya
    4e81: 20 3f 17     	jsr	$173f <FAR_PEEK>
    4e84: a0 06        	ldy	#$6
    4e86: 91 26        	sta	($26),y                 ; 0x2026 <textPrint+0x15a>
    4e88: b2 28        	lda	($28)                   ; 0x2028 <textPrint+0x15c>
    4e8a: 85 12        	sta	$12                     ; 0x2012 <textPrint+0x146>
    4e8c: a0 01        	ldy	#$1
    4e8e: b1 28        	lda	($28),y                 ; 0x2028 <textPrint+0x15c>
    4e90: aa           	tax
    4e91: a5 12        	lda	$12                     ; 0x2012 <textPrint+0x146>
    4e93: 86 13        	stx	$13                     ; 0x2013 <textPrint+0x147>
    4e95: 18           	clc
    4e96: 69 30        	adc	#$30
    4e98: 85 14        	sta	$14                     ; 0x2014 <textPrint+0x148>
    4e9a: 8a           	txa
    4e9b: 69 00        	adc	#$0
    4e9d: 85 15        	sta	$15                     ; 0x2015 <textPrint+0x149>
    4e9f: a0 30        	ldy	#$30
    4ea1: b1 12        	lda	($12),y                 ; 0x2012 <textPrint+0x146>
    4ea3: 85 12        	sta	$12                     ; 0x2012 <textPrint+0x146>
    4ea5: a0 01        	ldy	#$1
    4ea7: b1 2a        	lda	($2a),y                 ; 0x202a <textPrint+0x15e>
    4ea9: 85 17        	sta	$17                     ; 0x2017 <textPrint+0x14b>
    4eab: c8           	iny
    4eac: b1 2a        	lda	($2a),y                 ; 0x202a <textPrint+0x15e>
    4eae: 85 13        	sta	$13                     ; 0x2013 <textPrint+0x147>
    4eb0: c8           	iny
    4eb1: b1 2a        	lda	($2a),y                 ; 0x202a <textPrint+0x15e>
    4eb3: 85 16        	sta	$16                     ; 0x2016 <textPrint+0x14a>
    4eb5: 18           	clc
    4eb6: a5 12        	lda	$12                     ; 0x2012 <textPrint+0x146>
    4eb8: 72 2a        	adc	($2a)                   ; 0x202a <textPrint+0x15e>
    4eba: 85 12        	sta	$12                     ; 0x2012 <textPrint+0x146>
    4ebc: a5 17        	lda	$17                     ; 0x2017 <textPrint+0x14b>
    4ebe: a0 01        	ldy	#$1
    4ec0: 71 14        	adc	($14),y                 ; 0x2014 <textPrint+0x148>
    4ec2: 85 17        	sta	$17                     ; 0x2017 <textPrint+0x14b>
    4ec4: a5 13        	lda	$13                     ; 0x2013 <textPrint+0x147>
    4ec6: c8           	iny
    4ec7: 71 14        	adc	($14),y                 ; 0x2014 <textPrint+0x148>
    4ec9: 85 13        	sta	$13                     ; 0x2013 <textPrint+0x147>
    4ecb: a5 16        	lda	$16                     ; 0x2016 <textPrint+0x14a>
    4ecd: c8           	iny
    4ece: 71 14        	adc	($14),y                 ; 0x2014 <textPrint+0x148>
    4ed0: aa           	tax
    4ed1: 18           	clc
    4ed2: a5 12        	lda	$12                     ; 0x2012 <textPrint+0x146>
    4ed4: 69 07        	adc	#$7
    4ed6: a8           	tay
    4ed7: a5 17        	lda	$17                     ; 0x2017 <textPrint+0x14b>
    4ed9: 69 00        	adc	#$0
    4edb: 85 14        	sta	$14                     ; 0x2014 <textPrint+0x148>
    4edd: a5 13        	lda	$13                     ; 0x2013 <textPrint+0x147>
    4edf: 69 00        	adc	#$0
    4ee1: 85 12        	sta	$12                     ; 0x2012 <textPrint+0x146>
    4ee3: 8a           	txa
    4ee4: 69 00        	adc	#$0
    4ee6: 85 13        	sta	$13                     ; 0x2013 <textPrint+0x147>
    4ee8: a6 14        	ldx	$14                     ; 0x2014 <textPrint+0x148>
    4eea: 98           	tya
    4eeb: 20 3f 17     	jsr	$173f <FAR_PEEK>
    4eee: a0 07        	ldy	#$7
    4ef0: 91 26        	sta	($26),y                 ; 0x2026 <textPrint+0x15a>
    4ef2: a0 01        	ldy	#$1
    4ef4: b1 24        	lda	($24),y                 ; 0x2024 <textPrint+0x158>
    4ef6: 85 12        	sta	$12                     ; 0x2012 <textPrint+0x146>
    4ef8: c8           	iny
    4ef9: b1 24        	lda	($24),y                 ; 0x2024 <textPrint+0x158>
    4efb: 85 13        	sta	$13                     ; 0x2013 <textPrint+0x147>
    4efd: c8           	iny
    4efe: b1 24        	lda	($24),y                 ; 0x2024 <textPrint+0x158>
    4f00: 85 14        	sta	$14                     ; 0x2014 <textPrint+0x148>
    4f02: b2 24        	lda	($24)                   ; 0x2024 <textPrint+0x158>
    4f04: a6 14        	ldx	$14                     ; 0x2014 <textPrint+0x148>
    4f06: d0 42        	bne	$4f4a <playmidi+0xd5f>
    4f08: 80 00        	bra	$4f0a <playmidi+0xd1f>
    4f0a: a6 13        	ldx	$13                     ; 0x2013 <textPrint+0x147>
    4f0c: d0 3c        	bne	$4f4a <playmidi+0xd5f>
    4f0e: 80 00        	bra	$4f10 <playmidi+0xd25>
    4f10: a6 12        	ldx	$12                     ; 0x2012 <textPrint+0x146>
    4f12: d0 36        	bne	$4f4a <playmidi+0xd5f>
    4f14: 80 00        	bra	$4f16 <playmidi+0xd2b>
    4f16: aa           	tax
    4f17: d0 31        	bne	$4f4a <playmidi+0xd5f>
    4f19: 80 00        	bra	$4f1b <playmidi+0xd30>
    4f1b: 18           	clc
    4f1c: a5 10        	lda	$10                     ; 0x2010 <textPrint+0x144>
    4f1e: 69 06        	adc	#$6
    4f20: 85 12        	sta	$12                     ; 0x2012 <textPrint+0x146>
    4f22: a5 11        	lda	$11                     ; 0x2011 <textPrint+0x145>
    4f24: 69 00        	adc	#$0
    4f26: 85 13        	sta	$13                     ; 0x2013 <textPrint+0x147>
    4f28: 20 13 30     	jsr	$3013 <sendAME>
    4f2b: 20 60 2f     	jsr	$2f60 <checkKeySkip>
    4f2e: aa           	tax
    4f2f: f0 16        	beq	$4f47 <playmidi+0xd5c>
    4f31: 80 00        	bra	$4f33 <playmidi+0xd48>
    4f33: 18           	clc
    4f34: a5 10        	lda	$10                     ; 0x2010 <textPrint+0x144>
    4f36: 69 31        	adc	#$31
    4f38: 85 12        	sta	$12                     ; 0x2012 <textPrint+0x146>
    4f3a: a5 11        	lda	$11                     ; 0x2011 <textPrint+0x145>
    4f3c: 69 00        	adc	#$0
    4f3e: 85 13        	sta	$13                     ; 0x2013 <textPrint+0x147>
    4f40: a9 00        	lda	#$0
    4f42: 92 12        	sta	($12)                   ; 0x2012 <textPrint+0x146>
    4f44: 4c 81 56     	jmp	$5681 <playmidi+0x1496>
    4f47: 4c bc 50     	jmp	$50bc <playmidi+0xed1>
    4f4a: 18           	clc
    4f4b: a5 10        	lda	$10                     ; 0x2010 <textPrint+0x144>
    4f4d: 69 23        	adc	#$23
    4f4f: 85 12        	sta	$12                     ; 0x2012 <textPrint+0x146>
    4f51: a5 11        	lda	$11                     ; 0x2011 <textPrint+0x145>
    4f53: 69 00        	adc	#$0
    4f55: 85 13        	sta	$13                     ; 0x2013 <textPrint+0x147>
    4f57: b2 12        	lda	($12)                   ; 0x2012 <textPrint+0x146>
    4f59: 18           	clc
    4f5a: 48           	pha
    4f5b: a5 10        	lda	$10                     ; 0x2010 <textPrint+0x144>
    4f5d: 69 11        	adc	#$11
    4f5f: 85 14        	sta	$14                     ; 0x2014 <textPrint+0x148>
    4f61: a5 11        	lda	$11                     ; 0x2011 <textPrint+0x145>
    4f63: 69 00        	adc	#$0
    4f65: 85 15        	sta	$15                     ; 0x2015 <textPrint+0x149>
    4f67: 68           	pla
    4f68: 92 14        	sta	($14)                   ; 0x2014 <textPrint+0x148>
    4f6a: a0 01        	ldy	#$1
    4f6c: b1 12        	lda	($12),y                 ; 0x2012 <textPrint+0x146>
    4f6e: 91 14        	sta	($14),y                 ; 0x2014 <textPrint+0x148>
    4f70: c8           	iny
    4f71: b1 12        	lda	($12),y                 ; 0x2012 <textPrint+0x146>
    4f73: 91 14        	sta	($14),y                 ; 0x2014 <textPrint+0x148>
    4f75: c8           	iny
    4f76: b1 12        	lda	($12),y                 ; 0x2012 <textPrint+0x146>
    4f78: 91 14        	sta	($14),y                 ; 0x2014 <textPrint+0x148>
    4f7a: 18           	clc
    4f7b: a5 10        	lda	$10                     ; 0x2010 <textPrint+0x144>
    4f7d: 69 11        	adc	#$11
    4f7f: 85 12        	sta	$12                     ; 0x2012 <textPrint+0x146>
    4f81: a5 11        	lda	$11                     ; 0x2011 <textPrint+0x145>
    4f83: 69 00        	adc	#$0
    4f85: 85 13        	sta	$13                     ; 0x2013 <textPrint+0x147>
    4f87: b2 12        	lda	($12)                   ; 0x2012 <textPrint+0x146>
    4f89: 85 14        	sta	$14                     ; 0x2014 <textPrint+0x148>
    4f8b: a0 01        	ldy	#$1
    4f8d: b1 12        	lda	($12),y                 ; 0x2012 <textPrint+0x146>
    4f8f: 85 15        	sta	$15                     ; 0x2015 <textPrint+0x149>
    4f91: c8           	iny
    4f92: b1 12        	lda	($12),y                 ; 0x2012 <textPrint+0x146>
    4f94: 85 16        	sta	$16                     ; 0x2016 <textPrint+0x14a>
    4f96: c8           	iny
    4f97: b1 12        	lda	($12),y                 ; 0x2012 <textPrint+0x146>
    4f99: c9 01        	cmp	#$1
    4f9b: a2 01        	ldx	#$1
    4f9d: b0 02        	bcs	$4fa1 <playmidi+0xdb6>
    4f9f: a2 00        	ldx	#$0
    4fa1: 86 12        	stx	$12                     ; 0x2012 <textPrint+0x146>
    4fa3: c9 01        	cmp	#$1
    4fa5: f0 02        	beq	$4fa9 <playmidi+0xdbe>
    4fa7: 80 3d        	bra	$4fe6 <playmidi+0xdfb>
    4fa9: a6 16        	ldx	$16                     ; 0x2016 <textPrint+0x14a>
    4fab: e0 00        	cpx	#$0
    4fad: a0 01        	ldy	#$1
    4faf: b0 02        	bcs	$4fb3 <playmidi+0xdc8>
    4fb1: a0 00        	ldy	#$0
    4fb3: 84 12        	sty	$12                     ; 0x2012 <textPrint+0x146>
    4fb5: 8a           	txa
    4fb6: f0 02        	beq	$4fba <playmidi+0xdcf>
    4fb8: 80 23        	bra	$4fdd <playmidi+0xdf2>
    4fba: a6 15        	ldx	$15                     ; 0x2015 <textPrint+0x149>
    4fbc: e0 00        	cpx	#$0
    4fbe: a0 01        	ldy	#$1
    4fc0: b0 02        	bcs	$4fc4 <playmidi+0xdd9>
    4fc2: a0 00        	ldy	#$0
    4fc4: 84 12        	sty	$12                     ; 0x2012 <textPrint+0x146>
    4fc6: 8a           	txa
    4fc7: f0 02        	beq	$4fcb <playmidi+0xde0>
    4fc9: 80 09        	bra	$4fd4 <playmidi+0xde9>
    4fcb: a6 14        	ldx	$14                     ; 0x2014 <textPrint+0x148>
    4fcd: e0 00        	cpx	#$0
    4fcf: b0 0a        	bcs	$4fdb <playmidi+0xdf0>
    4fd1: 4c 61 50     	jmp	$5061 <playmidi+0xe76>
    4fd4: a5 12        	lda	$12                     ; 0x2012 <textPrint+0x146>
    4fd6: d0 03        	bne	$4fdb <playmidi+0xdf0>
    4fd8: 4c 61 50     	jmp	$5061 <playmidi+0xe76>
    4fdb: 80 07        	bra	$4fe4 <playmidi+0xdf9>
    4fdd: a5 12        	lda	$12                     ; 0x2012 <textPrint+0x146>
    4fdf: d0 03        	bne	$4fe4 <playmidi+0xdf9>
    4fe1: 4c 61 50     	jmp	$5061 <playmidi+0xe76>
    4fe4: 80 07        	bra	$4fed <playmidi+0xe02>
    4fe6: a5 12        	lda	$12                     ; 0x2012 <textPrint+0x146>
    4fe8: d0 03        	bne	$4fed <playmidi+0xe02>
    4fea: 4c 61 50     	jmp	$5061 <playmidi+0xe76>
    4fed: 80 00        	bra	$4fef <playmidi+0xe04>
    4fef: a2 ff        	ldx	#$ff
    4ff1: 86 12        	stx	$12                     ; 0x2012 <textPrint+0x146>
    4ff3: a2 ff        	ldx	#$ff
    4ff5: 8a           	txa
    4ff6: 20 b9 57     	jsr	$57b9 <setTimer0>
    4ff9: 20 5d 58     	jsr	$585d <isTimer0Done>
    4ffc: aa           	tax
    4ffd: d0 20        	bne	$501f <playmidi+0xe34>
    4fff: 80 00        	bra	$5001 <playmidi+0xe16>
    5001: 20 60 2f     	jsr	$2f60 <checkKeySkip>
    5004: aa           	tax
    5005: f0 16        	beq	$501d <playmidi+0xe32>
    5007: 80 00        	bra	$5009 <playmidi+0xe1e>
    5009: 18           	clc
    500a: a5 10        	lda	$10                     ; 0x2010 <textPrint+0x144>
    500c: 69 31        	adc	#$31
    500e: 85 12        	sta	$12                     ; 0x2012 <textPrint+0x146>
    5010: a5 11        	lda	$11                     ; 0x2011 <textPrint+0x145>
    5012: 69 00        	adc	#$0
    5014: 85 13        	sta	$13                     ; 0x2013 <textPrint+0x147>
    5016: a9 00        	lda	#$0
    5018: 92 12        	sta	($12)                   ; 0x2012 <textPrint+0x146>
    501a: 4c 81 56     	jmp	$5681 <playmidi+0x1496>
    501d: 80 da        	bra	$4ff9 <playmidi+0xe0e>
    501f: a2 10        	ldx	#$10
    5021: 8e 60 d6     	stx	$d660                   ; 0xd660 <end_block9+0x6b6c>
    5024: 18           	clc
    5025: a5 10        	lda	$10                     ; 0x2010 <textPrint+0x144>
    5027: 69 11        	adc	#$11
    5029: 85 12        	sta	$12                     ; 0x2012 <textPrint+0x146>
    502b: a5 11        	lda	$11                     ; 0x2011 <textPrint+0x145>
    502d: 69 00        	adc	#$0
    502f: 85 13        	sta	$13                     ; 0x2013 <textPrint+0x147>
    5031: b2 12        	lda	($12)                   ; 0x2012 <textPrint+0x146>
    5033: 85 14        	sta	$14                     ; 0x2014 <textPrint+0x148>
    5035: a0 01        	ldy	#$1
    5037: b1 12        	lda	($12),y                 ; 0x2012 <textPrint+0x146>
    5039: 85 15        	sta	$15                     ; 0x2015 <textPrint+0x149>
    503b: c8           	iny
    503c: b1 12        	lda	($12),y                 ; 0x2012 <textPrint+0x146>
    503e: aa           	tax
    503f: 18           	clc
    5040: a5 14        	lda	$14                     ; 0x2014 <textPrint+0x148>
    5042: 69 01        	adc	#$1
    5044: 85 14        	sta	$14                     ; 0x2014 <textPrint+0x148>
    5046: a5 15        	lda	$15                     ; 0x2015 <textPrint+0x149>
    5048: 69 00        	adc	#$0
    504a: 88           	dey
    504b: 91 12        	sta	($12),y                 ; 0x2012 <textPrint+0x146>
    504d: 8a           	txa
    504e: 69 00        	adc	#$0
    5050: c8           	iny
    5051: 91 12        	sta	($12),y                 ; 0x2012 <textPrint+0x146>
    5053: c8           	iny
    5054: b1 12        	lda	($12),y                 ; 0x2012 <textPrint+0x146>
    5056: 69 ff        	adc	#$ff
    5058: 91 12        	sta	($12),y                 ; 0x2012 <textPrint+0x146>
    505a: a5 14        	lda	$14                     ; 0x2014 <textPrint+0x148>
    505c: 92 12        	sta	($12)                   ; 0x2012 <textPrint+0x146>
    505e: 4c 7a 4f     	jmp	$4f7a <playmidi+0xd8f>
    5061: 18           	clc
    5062: a5 10        	lda	$10                     ; 0x2010 <textPrint+0x144>
    5064: 69 11        	adc	#$11
    5066: 85 12        	sta	$12                     ; 0x2012 <textPrint+0x146>
    5068: a5 11        	lda	$11                     ; 0x2011 <textPrint+0x145>
    506a: 69 00        	adc	#$0
    506c: 85 13        	sta	$13                     ; 0x2013 <textPrint+0x147>
    506e: b2 12        	lda	($12)                   ; 0x2012 <textPrint+0x146>
    5070: 85 14        	sta	$14                     ; 0x2014 <textPrint+0x148>
    5072: a0 01        	ldy	#$1
    5074: b1 12        	lda	($12),y                 ; 0x2012 <textPrint+0x146>
    5076: aa           	tax
    5077: c8           	iny
    5078: b1 12        	lda	($12),y                 ; 0x2012 <textPrint+0x146>
    507a: 85 12        	sta	$12                     ; 0x2012 <textPrint+0x146>
    507c: a5 14        	lda	$14                     ; 0x2014 <textPrint+0x148>
    507e: 20 b9 57     	jsr	$57b9 <setTimer0>
    5081: 20 5d 58     	jsr	$585d <isTimer0Done>
    5084: aa           	tax
    5085: d0 20        	bne	$50a7 <playmidi+0xebc>
    5087: 80 00        	bra	$5089 <playmidi+0xe9e>
    5089: 20 60 2f     	jsr	$2f60 <checkKeySkip>
    508c: aa           	tax
    508d: f0 16        	beq	$50a5 <playmidi+0xeba>
    508f: 80 00        	bra	$5091 <playmidi+0xea6>
    5091: 18           	clc
    5092: a5 10        	lda	$10                     ; 0x2010 <textPrint+0x144>
    5094: 69 31        	adc	#$31
    5096: 85 12        	sta	$12                     ; 0x2012 <textPrint+0x146>
    5098: a5 11        	lda	$11                     ; 0x2011 <textPrint+0x145>
    509a: 69 00        	adc	#$0
    509c: 85 13        	sta	$13                     ; 0x2013 <textPrint+0x147>
    509e: a9 00        	lda	#$0
    50a0: 92 12        	sta	($12)                   ; 0x2012 <textPrint+0x146>
    50a2: 4c 81 56     	jmp	$5681 <playmidi+0x1496>
    50a5: 80 da        	bra	$5081 <playmidi+0xe96>
    50a7: a2 10        	ldx	#$10
    50a9: 8e 60 d6     	stx	$d660                   ; 0xd660 <end_block9+0x6b6c>
    50ac: 18           	clc
    50ad: a5 10        	lda	$10                     ; 0x2010 <textPrint+0x144>
    50af: 69 06        	adc	#$6
    50b1: 85 12        	sta	$12                     ; 0x2012 <textPrint+0x146>
    50b3: a5 11        	lda	$11                     ; 0x2011 <textPrint+0x145>
    50b5: 69 00        	adc	#$0
    50b7: 85 13        	sta	$13                     ; 0x2013 <textPrint+0x147>
    50b9: 20 13 30     	jsr	$3013 <sendAME>
    50bc: 18           	clc
    50bd: a5 10        	lda	$10                     ; 0x2010 <textPrint+0x144>
    50bf: 69 2f        	adc	#$2f
    50c1: 85 26        	sta	$26                     ; 0x2026 <textPrint+0x15a>
    50c3: a5 11        	lda	$11                     ; 0x2011 <textPrint+0x145>
    50c5: 69 00        	adc	#$0
    50c7: 85 27        	sta	$27                     ; 0x2027 <textPrint+0x15b>
    50c9: b2 26        	lda	($26)                   ; 0x2026 <textPrint+0x15a>
    50cb: aa           	tax
    50cc: a0 01        	ldy	#$1
    50ce: b1 26        	lda	($26),y                 ; 0x2026 <textPrint+0x15a>
    50d0: a0 01        	ldy	#$1
    50d2: 86 12        	stx	$12                     ; 0x2012 <textPrint+0x146>
    50d4: 85 13        	sta	$13                     ; 0x2013 <textPrint+0x147>
    50d6: 85 15        	sta	$15                     ; 0x2015 <textPrint+0x149>
    50d8: 18           	clc
    50d9: 8a           	txa
    50da: 69 20        	adc	#$20
    50dc: 85 14        	sta	$14                     ; 0x2014 <textPrint+0x148>
    50de: a5 15        	lda	$15                     ; 0x2015 <textPrint+0x149>
    50e0: 69 00        	adc	#$0
    50e2: 85 15        	sta	$15                     ; 0x2015 <textPrint+0x149>
    50e4: 18           	clc
    50e5: a5 10        	lda	$10                     ; 0x2010 <textPrint+0x144>
    50e7: 69 29        	adc	#$29
    50e9: 85 24        	sta	$24                     ; 0x2024 <textPrint+0x158>
    50eb: a5 11        	lda	$11                     ; 0x2011 <textPrint+0x145>
    50ed: 69 00        	adc	#$0
    50ef: 85 25        	sta	$25                     ; 0x2025 <textPrint+0x159>
    50f1: b2 24        	lda	($24)                   ; 0x2024 <textPrint+0x158>
    50f3: aa           	tax
    50f4: b1 24        	lda	($24),y                 ; 0x2024 <textPrint+0x158>
    50f6: 85 16        	sta	$16                     ; 0x2016 <textPrint+0x14a>
    50f8: 8a           	txa
    50f9: 0a           	asl
    50fa: 26 16        	rol	$16                     ; 0x2016 <textPrint+0x14a>
    50fc: 18           	clc
    50fd: a0 20        	ldy	#$20
    50ff: 71 12        	adc	($12),y                 ; 0x2012 <textPrint+0x146>
    5101: 85 12        	sta	$12                     ; 0x2012 <textPrint+0x146>
    5103: a0 01        	ldy	#$1
    5105: a5 16        	lda	$16                     ; 0x2016 <textPrint+0x14a>
    5107: 71 14        	adc	($14),y                 ; 0x2014 <textPrint+0x148>
    5109: 85 13        	sta	$13                     ; 0x2013 <textPrint+0x147>
    510b: b2 12        	lda	($12)                   ; 0x2012 <textPrint+0x146>
    510d: 85 14        	sta	$14                     ; 0x2014 <textPrint+0x148>
    510f: b1 12        	lda	($12),y                 ; 0x2012 <textPrint+0x146>
    5111: aa           	tax
    5112: a5 14        	lda	$14                     ; 0x2014 <textPrint+0x148>
    5114: 1a           	inc
    5115: f0 03        	beq	$511a <playmidi+0xf2f>
    5117: 4c 1e 51     	jmp	$511e <playmidi+0xf33>
    511a: e8           	inx
    511b: 4c 1e 51     	jmp	$511e <playmidi+0xf33>
    511e: 92 12        	sta	($12)                   ; 0x2012 <textPrint+0x146>
    5120: 8a           	txa
    5121: 91 12        	sta	($12),y                 ; 0x2012 <textPrint+0x146>
    5123: a0 01        	ldy	#$1
    5125: 18           	clc
    5126: a5 10        	lda	$10                     ; 0x2010 <textPrint+0x144>
    5128: 69 2d        	adc	#$2d
    512a: 85 12        	sta	$12                     ; 0x2012 <textPrint+0x146>
    512c: a5 11        	lda	$11                     ; 0x2011 <textPrint+0x145>
    512e: 69 00        	adc	#$0
    5130: 85 13        	sta	$13                     ; 0x2013 <textPrint+0x147>
    5132: b2 12        	lda	($12)                   ; 0x2012 <textPrint+0x146>
    5134: 85 14        	sta	$14                     ; 0x2014 <textPrint+0x148>
    5136: b1 12        	lda	($12),y                 ; 0x2012 <textPrint+0x146>
    5138: aa           	tax
    5139: a0 01        	ldy	#$1
    513b: a5 14        	lda	$14                     ; 0x2014 <textPrint+0x148>
    513d: 85 12        	sta	$12                     ; 0x2012 <textPrint+0x146>
    513f: 86 13        	stx	$13                     ; 0x2013 <textPrint+0x147>
    5141: 18           	clc
    5142: 69 03        	adc	#$3
    5144: 85 14        	sta	$14                     ; 0x2014 <textPrint+0x148>
    5146: 8a           	txa
    5147: 69 00        	adc	#$0
    5149: 85 15        	sta	$15                     ; 0x2015 <textPrint+0x149>
    514b: b2 24        	lda	($24)                   ; 0x2024 <textPrint+0x158>
    514d: 85 17        	sta	$17                     ; 0x2017 <textPrint+0x14b>
    514f: b1 24        	lda	($24),y                 ; 0x2024 <textPrint+0x158>
    5151: 85 16        	sta	$16                     ; 0x2016 <textPrint+0x14a>
    5153: 06 17        	asl	$17                     ; 0x2017 <textPrint+0x14b>
    5155: 2a           	rol
    5156: 06 17        	asl	$17                     ; 0x2017 <textPrint+0x14b>
    5158: 2a           	rol
    5159: 06 17        	asl	$17                     ; 0x2017 <textPrint+0x14b>
    515b: 2a           	rol
    515c: aa           	tax
    515d: 38           	sec
    515e: a5 17        	lda	$17                     ; 0x2017 <textPrint+0x14b>
    5160: f2 24        	sbc	($24)                   ; 0x2024 <textPrint+0x158>
    5162: 85 17        	sta	$17                     ; 0x2017 <textPrint+0x14b>
    5164: 8a           	txa
    5165: e5 16        	sbc	$16                     ; 0x2016 <textPrint+0x14a>
    5167: 85 16        	sta	$16                     ; 0x2016 <textPrint+0x14a>
    5169: 18           	clc
    516a: a0 03        	ldy	#$3
    516c: a5 17        	lda	$17                     ; 0x2017 <textPrint+0x14b>
    516e: 71 12        	adc	($12),y                 ; 0x2012 <textPrint+0x146>
    5170: aa           	tax
    5171: a0 01        	ldy	#$1
    5173: a5 16        	lda	$16                     ; 0x2016 <textPrint+0x14a>
    5175: 71 14        	adc	($14),y                 ; 0x2014 <textPrint+0x148>
    5177: 86 12        	stx	$12                     ; 0x2012 <textPrint+0x146>
    5179: 85 13        	sta	$13                     ; 0x2013 <textPrint+0x147>
    517b: a8           	tay
    517c: 18           	clc
    517d: 8a           	txa
    517e: 69 03        	adc	#$3
    5180: 85 14        	sta	$14                     ; 0x2014 <textPrint+0x148>
    5182: 98           	tya
    5183: 69 00        	adc	#$0
    5185: 85 15        	sta	$15                     ; 0x2015 <textPrint+0x149>
    5187: a0 03        	ldy	#$3
    5189: b1 12        	lda	($12),y                 ; 0x2012 <textPrint+0x146>
    518b: 18           	clc
    518c: 48           	pha
    518d: a5 10        	lda	$10                     ; 0x2010 <textPrint+0x144>
    518f: 69 1b        	adc	#$1b
    5191: 85 28        	sta	$28                     ; 0x2028 <textPrint+0x15c>
    5193: a5 11        	lda	$11                     ; 0x2011 <textPrint+0x145>
    5195: 69 00        	adc	#$0
    5197: 85 29        	sta	$29                     ; 0x2029 <textPrint+0x15d>
    5199: 68           	pla
    519a: 92 28        	sta	($28)                   ; 0x2028 <textPrint+0x15c>
    519c: a0 01        	ldy	#$1
    519e: b1 14        	lda	($14),y                 ; 0x2014 <textPrint+0x148>
    51a0: 91 28        	sta	($28),y                 ; 0x2028 <textPrint+0x15c>
    51a2: c8           	iny
    51a3: b1 14        	lda	($14),y                 ; 0x2014 <textPrint+0x148>
    51a5: 91 28        	sta	($28),y                 ; 0x2028 <textPrint+0x15c>
    51a7: c8           	iny
    51a8: b1 14        	lda	($14),y                 ; 0x2014 <textPrint+0x148>
    51aa: a0 03        	ldy	#$3
    51ac: 91 28        	sta	($28),y                 ; 0x2028 <textPrint+0x15c>
    51ae: b2 26        	lda	($26)                   ; 0x2026 <textPrint+0x15a>
    51b0: 85 12        	sta	$12                     ; 0x2012 <textPrint+0x146>
    51b2: a0 01        	ldy	#$1
    51b4: b1 26        	lda	($26),y                 ; 0x2026 <textPrint+0x15a>
    51b6: a0 01        	ldy	#$1
    51b8: aa           	tax
    51b9: a5 12        	lda	$12                     ; 0x2012 <textPrint+0x146>
    51bb: 85 14        	sta	$14                     ; 0x2014 <textPrint+0x148>
    51bd: 86 13        	stx	$13                     ; 0x2013 <textPrint+0x147>
    51bf: b2 24        	lda	($24)                   ; 0x2024 <textPrint+0x158>
    51c1: 85 15        	sta	$15                     ; 0x2015 <textPrint+0x149>
    51c3: b1 24        	lda	($24),y                 ; 0x2024 <textPrint+0x158>
    51c5: 85 16        	sta	$16                     ; 0x2016 <textPrint+0x14a>
    51c7: a5 15        	lda	$15                     ; 0x2015 <textPrint+0x149>
    51c9: 0a           	asl
    51ca: a0 01        	ldy	#$1
    51cc: b0 02        	bcs	$51d0 <playmidi+0xfe5>
    51ce: a0 00        	ldy	#$0
    51d0: 84 17        	sty	$17                     ; 0x2017 <textPrint+0x14b>
    51d2: 18           	clc
    51d3: a0 20        	ldy	#$20
    51d5: 71 12        	adc	($12),y                 ; 0x2012 <textPrint+0x146>
    51d7: a0 01        	ldy	#$1
    51d9: b0 02        	bcs	$51dd <playmidi+0xff2>
    51db: a0 00        	ldy	#$0
    51dd: 84 18        	sty	$18                     ; 0x2018 <textPrint+0x14c>
    51df: 85 15        	sta	$15                     ; 0x2015 <textPrint+0x149>
    51e1: 18           	clc
    51e2: a5 14        	lda	$14                     ; 0x2014 <textPrint+0x148>
    51e4: 69 20        	adc	#$20
    51e6: 85 12        	sta	$12                     ; 0x2012 <textPrint+0x146>
    51e8: 8a           	txa
    51e9: 69 00        	adc	#$0
    51eb: 85 13        	sta	$13                     ; 0x2013 <textPrint+0x147>
    51ed: a5 16        	lda	$16                     ; 0x2016 <textPrint+0x14a>
    51ef: a6 17        	ldx	$17                     ; 0x2017 <textPrint+0x14b>
    51f1: e0 01        	cpx	#$1
    51f3: 2a           	rol
    51f4: a0 01        	ldy	#$1
    51f6: a6 18        	ldx	$18                     ; 0x2018 <textPrint+0x14c>
    51f8: e0 01        	cpx	#$1
    51fa: 71 12        	adc	($12),y                 ; 0x2012 <textPrint+0x146>
    51fc: 85 13        	sta	$13                     ; 0x2013 <textPrint+0x147>
    51fe: a6 15        	ldx	$15                     ; 0x2015 <textPrint+0x149>
    5200: 86 12        	stx	$12                     ; 0x2012 <textPrint+0x146>
    5202: b2 12        	lda	($12)                   ; 0x2012 <textPrint+0x146>
    5204: aa           	tax
    5205: b1 12        	lda	($12),y                 ; 0x2012 <textPrint+0x146>
    5207: 85 12        	sta	$12                     ; 0x2012 <textPrint+0x146>
    5209: a0 01        	ldy	#$1
    520b: 8a           	txa
    520c: 0a           	asl
    520d: 26 12        	rol	$12                     ; 0x2012 <textPrint+0x146>
    520f: 64 13        	stz	$13                     ; 0x2013 <textPrint+0x147>
    5211: 26 13        	rol	$13                     ; 0x2013 <textPrint+0x147>
    5213: 64 14        	stz	$14                     ; 0x2014 <textPrint+0x148>
    5215: 26 14        	rol	$14                     ; 0x2014 <textPrint+0x148>
    5217: 0a           	asl
    5218: 26 12        	rol	$12                     ; 0x2012 <textPrint+0x146>
    521a: 26 13        	rol	$13                     ; 0x2013 <textPrint+0x147>
    521c: 26 14        	rol	$14                     ; 0x2014 <textPrint+0x148>
    521e: 0a           	asl
    521f: 26 12        	rol	$12                     ; 0x2012 <textPrint+0x146>
    5221: 26 13        	rol	$13                     ; 0x2013 <textPrint+0x147>
    5223: 26 14        	rol	$14                     ; 0x2014 <textPrint+0x148>
    5225: 18           	clc
    5226: 72 28        	adc	($28)                   ; 0x2028 <textPrint+0x15c>
    5228: aa           	tax
    5229: a5 12        	lda	$12                     ; 0x2012 <textPrint+0x146>
    522b: 71 28        	adc	($28),y                 ; 0x2028 <textPrint+0x15c>
    522d: 85 12        	sta	$12                     ; 0x2012 <textPrint+0x146>
    522f: c8           	iny
    5230: a5 13        	lda	$13                     ; 0x2013 <textPrint+0x147>
    5232: 71 28        	adc	($28),y                 ; 0x2028 <textPrint+0x15c>
    5234: 85 13        	sta	$13                     ; 0x2013 <textPrint+0x147>
    5236: c8           	iny
    5237: a5 14        	lda	$14                     ; 0x2014 <textPrint+0x148>
    5239: 71 28        	adc	($28),y                 ; 0x2028 <textPrint+0x15c>
    523b: 85 14        	sta	$14                     ; 0x2014 <textPrint+0x148>
    523d: 8a           	txa
    523e: 92 28        	sta	($28)                   ; 0x2028 <textPrint+0x15c>
    5240: a5 12        	lda	$12                     ; 0x2012 <textPrint+0x146>
    5242: a0 01        	ldy	#$1
    5244: 91 28        	sta	($28),y                 ; 0x2028 <textPrint+0x15c>
    5246: c8           	iny
    5247: a5 13        	lda	$13                     ; 0x2013 <textPrint+0x147>
    5249: 91 28        	sta	($28),y                 ; 0x2028 <textPrint+0x15c>
    524b: a5 14        	lda	$14                     ; 0x2014 <textPrint+0x148>
    524d: c8           	iny
    524e: 91 28        	sta	($28),y                 ; 0x2028 <textPrint+0x15c>
    5250: b2 26        	lda	($26)                   ; 0x2026 <textPrint+0x15a>
    5252: 85 12        	sta	$12                     ; 0x2012 <textPrint+0x146>
    5254: a0 01        	ldy	#$1
    5256: b1 26        	lda	($26),y                 ; 0x2026 <textPrint+0x15a>
    5258: aa           	tax
    5259: a5 12        	lda	$12                     ; 0x2012 <textPrint+0x146>
    525b: 86 13        	stx	$13                     ; 0x2013 <textPrint+0x147>
    525d: 18           	clc
    525e: 69 30        	adc	#$30
    5260: 85 14        	sta	$14                     ; 0x2014 <textPrint+0x148>
    5262: 8a           	txa
    5263: 69 00        	adc	#$0
    5265: 85 15        	sta	$15                     ; 0x2015 <textPrint+0x149>
    5267: a0 30        	ldy	#$30
    5269: b1 12        	lda	($12),y                 ; 0x2012 <textPrint+0x146>
    526b: 85 12        	sta	$12                     ; 0x2012 <textPrint+0x146>
    526d: a0 01        	ldy	#$1
    526f: b1 28        	lda	($28),y                 ; 0x2028 <textPrint+0x15c>
    5271: aa           	tax
    5272: c8           	iny
    5273: b1 28        	lda	($28),y                 ; 0x2028 <textPrint+0x15c>
    5275: 85 17        	sta	$17                     ; 0x2017 <textPrint+0x14b>
    5277: c8           	iny
    5278: b1 28        	lda	($28),y                 ; 0x2028 <textPrint+0x15c>
    527a: 85 13        	sta	$13                     ; 0x2013 <textPrint+0x147>
    527c: 18           	clc
    527d: a5 12        	lda	$12                     ; 0x2012 <textPrint+0x146>
    527f: 72 28        	adc	($28)                   ; 0x2028 <textPrint+0x15c>
    5281: 85 16        	sta	$16                     ; 0x2016 <textPrint+0x14a>
    5283: 8a           	txa
    5284: a0 01        	ldy	#$1
    5286: 71 14        	adc	($14),y                 ; 0x2014 <textPrint+0x148>
    5288: aa           	tax
    5289: a5 17        	lda	$17                     ; 0x2017 <textPrint+0x14b>
    528b: c8           	iny
    528c: 71 14        	adc	($14),y                 ; 0x2014 <textPrint+0x148>
    528e: 85 12        	sta	$12                     ; 0x2012 <textPrint+0x146>
    5290: a5 13        	lda	$13                     ; 0x2013 <textPrint+0x147>
    5292: c8           	iny
    5293: 71 14        	adc	($14),y                 ; 0x2014 <textPrint+0x148>
    5295: 85 13        	sta	$13                     ; 0x2013 <textPrint+0x147>
    5297: a5 16        	lda	$16                     ; 0x2016 <textPrint+0x14a>
    5299: 20 3f 17     	jsr	$173f <FAR_PEEK>
    529c: a0 05        	ldy	#$5
    529e: 91 10        	sta	($10),y                 ; 0x2010 <textPrint+0x144>
    52a0: b2 26        	lda	($26)                   ; 0x2026 <textPrint+0x15a>
    52a2: 85 12        	sta	$12                     ; 0x2012 <textPrint+0x146>
    52a4: a0 01        	ldy	#$1
    52a6: b1 26        	lda	($26),y                 ; 0x2026 <textPrint+0x15a>
    52a8: aa           	tax
    52a9: a5 12        	lda	$12                     ; 0x2012 <textPrint+0x146>
    52ab: 86 13        	stx	$13                     ; 0x2013 <textPrint+0x147>
    52ad: 18           	clc
    52ae: 69 30        	adc	#$30
    52b0: 85 14        	sta	$14                     ; 0x2014 <textPrint+0x148>
    52b2: 8a           	txa
    52b3: 69 00        	adc	#$0
    52b5: 85 15        	sta	$15                     ; 0x2015 <textPrint+0x149>
    52b7: a0 30        	ldy	#$30
    52b9: b1 12        	lda	($12),y                 ; 0x2012 <textPrint+0x146>
    52bb: 85 12        	sta	$12                     ; 0x2012 <textPrint+0x146>
    52bd: a0 01        	ldy	#$1
    52bf: b1 28        	lda	($28),y                 ; 0x2028 <textPrint+0x15c>
    52c1: 85 17        	sta	$17                     ; 0x2017 <textPrint+0x14b>
    52c3: c8           	iny
    52c4: b1 28        	lda	($28),y                 ; 0x2028 <textPrint+0x15c>
    52c6: 85 13        	sta	$13                     ; 0x2013 <textPrint+0x147>
    52c8: c8           	iny
    52c9: b1 28        	lda	($28),y                 ; 0x2028 <textPrint+0x15c>
    52cb: aa           	tax
    52cc: 18           	clc
    52cd: a5 12        	lda	$12                     ; 0x2012 <textPrint+0x146>
    52cf: 72 28        	adc	($28)                   ; 0x2028 <textPrint+0x15c>
    52d1: 85 16        	sta	$16                     ; 0x2016 <textPrint+0x14a>
    52d3: a5 17        	lda	$17                     ; 0x2017 <textPrint+0x14b>
    52d5: a0 01        	ldy	#$1
    52d7: 71 14        	adc	($14),y                 ; 0x2014 <textPrint+0x148>
    52d9: 85 17        	sta	$17                     ; 0x2017 <textPrint+0x14b>
    52db: a5 13        	lda	$13                     ; 0x2013 <textPrint+0x147>
    52dd: c8           	iny
    52de: 71 14        	adc	($14),y                 ; 0x2014 <textPrint+0x148>
    52e0: 85 12        	sta	$12                     ; 0x2012 <textPrint+0x146>
    52e2: 8a           	txa
    52e3: c8           	iny
    52e4: 71 14        	adc	($14),y                 ; 0x2014 <textPrint+0x148>
    52e6: a6 17        	ldx	$17                     ; 0x2017 <textPrint+0x14b>
    52e8: e6 16        	inc	$16                     ; 0x2016 <textPrint+0x14a>
    52ea: f0 03        	beq	$52ef <playmidi+0x1104>
    52ec: 4c 06 53     	jmp	$5306 <playmidi+0x111b>
    52ef: e8           	inx
    52f0: f0 03        	beq	$52f5 <playmidi+0x110a>
    52f2: 4c 03 53     	jmp	$5303 <playmidi+0x1118>
    52f5: e6 12        	inc	$12                     ; 0x2012 <textPrint+0x146>
    52f7: f0 03        	beq	$52fc <playmidi+0x1111>
    52f9: 4c 00 53     	jmp	$5300 <playmidi+0x1115>
    52fc: 1a           	inc
    52fd: 4c 00 53     	jmp	$5300 <playmidi+0x1115>
    5300: 4c 03 53     	jmp	$5303 <playmidi+0x1118>
    5303: 4c 06 53     	jmp	$5306 <playmidi+0x111b>
    5306: 85 13        	sta	$13                     ; 0x2013 <textPrint+0x147>
    5308: a5 16        	lda	$16                     ; 0x2016 <textPrint+0x14a>
    530a: 20 3f 17     	jsr	$173f <FAR_PEEK>
    530d: 85 2b        	sta	$2b                     ; 0x202b <textPrint+0x15f>
    530f: b2 26        	lda	($26)                   ; 0x2026 <textPrint+0x15a>
    5311: 85 12        	sta	$12                     ; 0x2012 <textPrint+0x146>
    5313: a0 01        	ldy	#$1
    5315: b1 26        	lda	($26),y                 ; 0x2026 <textPrint+0x15a>
    5317: aa           	tax
    5318: a5 12        	lda	$12                     ; 0x2012 <textPrint+0x146>
    531a: 86 13        	stx	$13                     ; 0x2013 <textPrint+0x147>
    531c: 18           	clc
    531d: 69 30        	adc	#$30
    531f: 85 14        	sta	$14                     ; 0x2014 <textPrint+0x148>
    5321: 8a           	txa
    5322: 69 00        	adc	#$0
    5324: 85 15        	sta	$15                     ; 0x2015 <textPrint+0x149>
    5326: a0 30        	ldy	#$30
    5328: b1 12        	lda	($12),y                 ; 0x2012 <textPrint+0x146>
    532a: 85 12        	sta	$12                     ; 0x2012 <textPrint+0x146>
    532c: a0 01        	ldy	#$1
    532e: b1 28        	lda	($28),y                 ; 0x2028 <textPrint+0x15c>
    5330: 85 17        	sta	$17                     ; 0x2017 <textPrint+0x14b>
    5332: c8           	iny
    5333: b1 28        	lda	($28),y                 ; 0x2028 <textPrint+0x15c>
    5335: 85 16        	sta	$16                     ; 0x2016 <textPrint+0x14a>
    5337: c8           	iny
    5338: b1 28        	lda	($28),y                 ; 0x2028 <textPrint+0x15c>
    533a: 85 13        	sta	$13                     ; 0x2013 <textPrint+0x147>
    533c: 18           	clc
    533d: a5 12        	lda	$12                     ; 0x2012 <textPrint+0x146>
    533f: 72 28        	adc	($28)                   ; 0x2028 <textPrint+0x15c>
    5341: 85 12        	sta	$12                     ; 0x2012 <textPrint+0x146>
    5343: a5 17        	lda	$17                     ; 0x2017 <textPrint+0x14b>
    5345: a0 01        	ldy	#$1
    5347: 71 14        	adc	($14),y                 ; 0x2014 <textPrint+0x148>
    5349: 85 17        	sta	$17                     ; 0x2017 <textPrint+0x14b>
    534b: c8           	iny
    534c: a5 16        	lda	$16                     ; 0x2016 <textPrint+0x14a>
    534e: 71 14        	adc	($14),y                 ; 0x2014 <textPrint+0x148>
    5350: 85 16        	sta	$16                     ; 0x2016 <textPrint+0x14a>
    5352: c8           	iny
    5353: a5 13        	lda	$13                     ; 0x2013 <textPrint+0x147>
    5355: 71 14        	adc	($14),y                 ; 0x2014 <textPrint+0x148>
    5357: 85 13        	sta	$13                     ; 0x2013 <textPrint+0x147>
    5359: 18           	clc
    535a: a5 12        	lda	$12                     ; 0x2012 <textPrint+0x146>
    535c: 69 02        	adc	#$2
    535e: a8           	tay
    535f: a5 17        	lda	$17                     ; 0x2017 <textPrint+0x14b>
    5361: 69 00        	adc	#$0
    5363: aa           	tax
    5364: a5 16        	lda	$16                     ; 0x2016 <textPrint+0x14a>
    5366: 69 00        	adc	#$0
    5368: 85 12        	sta	$12                     ; 0x2012 <textPrint+0x146>
    536a: a5 13        	lda	$13                     ; 0x2013 <textPrint+0x147>
    536c: 69 00        	adc	#$0
    536e: 85 13        	sta	$13                     ; 0x2013 <textPrint+0x147>
    5370: 98           	tya
    5371: 20 3f 17     	jsr	$173f <FAR_PEEK>
    5374: 85 2a        	sta	$2a                     ; 0x202a <textPrint+0x15e>
    5376: b2 26        	lda	($26)                   ; 0x2026 <textPrint+0x15a>
    5378: aa           	tax
    5379: a0 01        	ldy	#$1
    537b: b1 26        	lda	($26),y                 ; 0x2026 <textPrint+0x15a>
    537d: 86 12        	stx	$12                     ; 0x2012 <textPrint+0x146>
    537f: 85 13        	sta	$13                     ; 0x2013 <textPrint+0x147>
    5381: 85 15        	sta	$15                     ; 0x2015 <textPrint+0x149>
    5383: a0 30        	ldy	#$30
    5385: b1 12        	lda	($12),y                 ; 0x2012 <textPrint+0x146>
    5387: 85 14        	sta	$14                     ; 0x2014 <textPrint+0x148>
    5389: 18           	clc
    538a: 8a           	txa
    538b: 69 30        	adc	#$30
    538d: 85 12        	sta	$12                     ; 0x2012 <textPrint+0x146>
    538f: a5 15        	lda	$15                     ; 0x2015 <textPrint+0x149>
    5391: 69 00        	adc	#$0
    5393: 85 13        	sta	$13                     ; 0x2013 <textPrint+0x147>
    5395: a0 01        	ldy	#$1
    5397: b1 28        	lda	($28),y                 ; 0x2028 <textPrint+0x15c>
    5399: 85 17        	sta	$17                     ; 0x2017 <textPrint+0x14b>
    539b: c8           	iny
    539c: b1 28        	lda	($28),y                 ; 0x2028 <textPrint+0x15c>
    539e: 85 15        	sta	$15                     ; 0x2015 <textPrint+0x149>
    53a0: c8           	iny
    53a1: b1 28        	lda	($28),y                 ; 0x2028 <textPrint+0x15c>
    53a3: 85 16        	sta	$16                     ; 0x2016 <textPrint+0x14a>
    53a5: 18           	clc
    53a6: a5 14        	lda	$14                     ; 0x2014 <textPrint+0x148>
    53a8: 72 28        	adc	($28)                   ; 0x2028 <textPrint+0x15c>
    53aa: 85 14        	sta	$14                     ; 0x2014 <textPrint+0x148>
    53ac: a5 17        	lda	$17                     ; 0x2017 <textPrint+0x14b>
    53ae: a0 01        	ldy	#$1
    53b0: 71 12        	adc	($12),y                 ; 0x2012 <textPrint+0x146>
    53b2: 85 17        	sta	$17                     ; 0x2017 <textPrint+0x14b>
    53b4: a5 15        	lda	$15                     ; 0x2015 <textPrint+0x149>
    53b6: c8           	iny
    53b7: 71 12        	adc	($12),y                 ; 0x2012 <textPrint+0x146>
    53b9: 85 15        	sta	$15                     ; 0x2015 <textPrint+0x149>
    53bb: a5 16        	lda	$16                     ; 0x2016 <textPrint+0x14a>
    53bd: c8           	iny
    53be: 71 12        	adc	($12),y                 ; 0x2012 <textPrint+0x146>
    53c0: aa           	tax
    53c1: 18           	clc
    53c2: a5 14        	lda	$14                     ; 0x2014 <textPrint+0x148>
    53c4: 69 03        	adc	#$3
    53c6: a8           	tay
    53c7: a5 17        	lda	$17                     ; 0x2017 <textPrint+0x14b>
    53c9: 69 00        	adc	#$0
    53cb: 85 14        	sta	$14                     ; 0x2014 <textPrint+0x148>
    53cd: a5 15        	lda	$15                     ; 0x2015 <textPrint+0x149>
    53cf: 69 00        	adc	#$0
    53d1: 85 12        	sta	$12                     ; 0x2012 <textPrint+0x146>
    53d3: 8a           	txa
    53d4: 69 00        	adc	#$0
    53d6: 85 13        	sta	$13                     ; 0x2013 <textPrint+0x147>
    53d8: a6 14        	ldx	$14                     ; 0x2014 <textPrint+0x148>
    53da: 98           	tya
    53db: 20 3f 17     	jsr	$173f <FAR_PEEK>
    53de: aa           	tax
    53df: 18           	clc
    53e0: a5 10        	lda	$10                     ; 0x2010 <textPrint+0x144>
    53e2: 69 0e        	adc	#$e
    53e4: 85 12        	sta	$12                     ; 0x2012 <textPrint+0x146>
    53e6: a5 11        	lda	$11                     ; 0x2011 <textPrint+0x145>
    53e8: 69 00        	adc	#$0
    53ea: 85 13        	sta	$13                     ; 0x2013 <textPrint+0x147>
    53ec: b2 24        	lda	($24)                   ; 0x2024 <textPrint+0x158>
    53ee: 85 15        	sta	$15                     ; 0x2015 <textPrint+0x149>
    53f0: a0 01        	ldy	#$1
    53f2: b1 24        	lda	($24),y                 ; 0x2024 <textPrint+0x158>
    53f4: 85 14        	sta	$14                     ; 0x2014 <textPrint+0x148>
    53f6: a0 01        	ldy	#$1
    53f8: a5 15        	lda	$15                     ; 0x2015 <textPrint+0x149>
    53fa: 0a           	asl
    53fb: 26 14        	rol	$14                     ; 0x2014 <textPrint+0x148>
    53fd: 0a           	asl
    53fe: 26 14        	rol	$14                     ; 0x2014 <textPrint+0x148>
    5400: 18           	clc
    5401: 72 12        	adc	($12)                   ; 0x2012 <textPrint+0x146>
    5403: 85 15        	sta	$15                     ; 0x2015 <textPrint+0x149>
    5405: a5 14        	lda	$14                     ; 0x2014 <textPrint+0x148>
    5407: 71 12        	adc	($12),y                 ; 0x2012 <textPrint+0x146>
    5409: a4 15        	ldy	$15                     ; 0x2015 <textPrint+0x149>
    540b: 84 12        	sty	$12                     ; 0x2012 <textPrint+0x146>
    540d: 85 13        	sta	$13                     ; 0x2013 <textPrint+0x147>
    540f: a5 2a        	lda	$2a                     ; 0x202a <textPrint+0x15e>
    5411: a0 02        	ldy	#$2
    5413: 91 12        	sta	($12),y                 ; 0x2012 <textPrint+0x146>
    5415: a0 05        	ldy	#$5
    5417: b1 10        	lda	($10),y                 ; 0x2010 <textPrint+0x144>
    5419: 92 12        	sta	($12)                   ; 0x2012 <textPrint+0x146>
    541b: a5 2b        	lda	$2b                     ; 0x202b <textPrint+0x15f>
    541d: a0 01        	ldy	#$1
    541f: 91 12        	sta	($12),y                 ; 0x2012 <textPrint+0x146>
    5421: a0 03        	ldy	#$3
    5423: 8a           	txa
    5424: 91 12        	sta	($12),y                 ; 0x2012 <textPrint+0x146>
    5426: 18           	clc
    5427: a5 10        	lda	$10                     ; 0x2010 <textPrint+0x144>
    5429: 69 2b        	adc	#$2b
    542b: 85 12        	sta	$12                     ; 0x2012 <textPrint+0x146>
    542d: a5 11        	lda	$11                     ; 0x2011 <textPrint+0x145>
    542f: 69 00        	adc	#$0
    5431: 85 13        	sta	$13                     ; 0x2013 <textPrint+0x147>
    5433: a9 00        	lda	#$0
    5435: a0 01        	ldy	#$1
    5437: 91 12        	sta	($12),y                 ; 0x2012 <textPrint+0x146>
    5439: 92 12        	sta	($12)                   ; 0x2012 <textPrint+0x146>
    543b: 18           	clc
    543c: a5 10        	lda	$10                     ; 0x2010 <textPrint+0x144>
    543e: 69 2b        	adc	#$2b
    5440: 85 12        	sta	$12                     ; 0x2012 <textPrint+0x146>
    5442: a5 11        	lda	$11                     ; 0x2011 <textPrint+0x145>
    5444: 69 00        	adc	#$0
    5446: 85 13        	sta	$13                     ; 0x2013 <textPrint+0x147>
    5448: b2 12        	lda	($12)                   ; 0x2012 <textPrint+0x146>
    544a: 85 16        	sta	$16                     ; 0x2016 <textPrint+0x14a>
    544c: a0 01        	ldy	#$1
    544e: b1 12        	lda	($12),y                 ; 0x2012 <textPrint+0x146>
    5450: aa           	tax
    5451: 18           	clc
    5452: a5 10        	lda	$10                     ; 0x2010 <textPrint+0x144>
    5454: 69 19        	adc	#$19
    5456: 85 14        	sta	$14                     ; 0x2014 <textPrint+0x148>
    5458: a5 11        	lda	$11                     ; 0x2011 <textPrint+0x145>
    545a: 69 00        	adc	#$0
    545c: 85 15        	sta	$15                     ; 0x2015 <textPrint+0x149>
    545e: b2 14        	lda	($14)                   ; 0x2014 <textPrint+0x148>
    5460: 85 12        	sta	$12                     ; 0x2012 <textPrint+0x146>
    5462: 8a           	txa
    5463: d1 14        	cmp	($14),y                 ; 0x2014 <textPrint+0x148>
    5465: a2 01        	ldx	#$1
    5467: b0 02        	bcs	$546b <playmidi+0x1280>
    5469: a2 00        	ldx	#$0
    546b: 86 13        	stx	$13                     ; 0x2013 <textPrint+0x147>
    546d: d1 14        	cmp	($14),y                 ; 0x2014 <textPrint+0x148>
    546f: f0 02        	beq	$5473 <playmidi+0x1288>
    5471: 80 09        	bra	$547c <playmidi+0x1291>
    5473: a6 16        	ldx	$16                     ; 0x2016 <textPrint+0x14a>
    5475: e4 12        	cpx	$12                     ; 0x2012 <textPrint+0x146>
    5477: 90 0a        	bcc	$5483 <playmidi+0x1298>
    5479: 4c 41 56     	jmp	$5641 <playmidi+0x1456>
    547c: a5 13        	lda	$13                     ; 0x2013 <textPrint+0x147>
    547e: f0 03        	beq	$5483 <playmidi+0x1298>
    5480: 4c 41 56     	jmp	$5641 <playmidi+0x1456>
    5483: 80 00        	bra	$5485 <playmidi+0x129a>
    5485: 18           	clc
    5486: a5 10        	lda	$10                     ; 0x2010 <textPrint+0x144>
    5488: 69 2f        	adc	#$2f
    548a: 85 12        	sta	$12                     ; 0x2012 <textPrint+0x146>
    548c: a5 11        	lda	$11                     ; 0x2011 <textPrint+0x145>
    548e: 69 00        	adc	#$0
    5490: 85 13        	sta	$13                     ; 0x2013 <textPrint+0x147>
    5492: b2 12        	lda	($12)                   ; 0x2012 <textPrint+0x146>
    5494: aa           	tax
    5495: a0 01        	ldy	#$1
    5497: b1 12        	lda	($12),y                 ; 0x2012 <textPrint+0x146>
    5499: a0 01        	ldy	#$1
    549b: 86 14        	stx	$14                     ; 0x2014 <textPrint+0x148>
    549d: 85 15        	sta	$15                     ; 0x2015 <textPrint+0x149>
    549f: 85 12        	sta	$12                     ; 0x2012 <textPrint+0x146>
    54a1: 18           	clc
    54a2: 8a           	txa
    54a3: 69 20        	adc	#$20
    54a5: 85 16        	sta	$16                     ; 0x2016 <textPrint+0x14a>
    54a7: a5 12        	lda	$12                     ; 0x2012 <textPrint+0x146>
    54a9: 69 00        	adc	#$0
    54ab: 85 17        	sta	$17                     ; 0x2017 <textPrint+0x14b>
    54ad: 18           	clc
    54ae: a5 10        	lda	$10                     ; 0x2010 <textPrint+0x144>
    54b0: 69 2b        	adc	#$2b
    54b2: 85 12        	sta	$12                     ; 0x2012 <textPrint+0x146>
    54b4: a5 11        	lda	$11                     ; 0x2011 <textPrint+0x145>
    54b6: 69 00        	adc	#$0
    54b8: 85 13        	sta	$13                     ; 0x2013 <textPrint+0x147>
    54ba: b2 12        	lda	($12)                   ; 0x2012 <textPrint+0x146>
    54bc: aa           	tax
    54bd: b1 12        	lda	($12),y                 ; 0x2012 <textPrint+0x146>
    54bf: 85 18        	sta	$18                     ; 0x2018 <textPrint+0x14c>
    54c1: 8a           	txa
    54c2: 0a           	asl
    54c3: 26 18        	rol	$18                     ; 0x2018 <textPrint+0x14c>
    54c5: 18           	clc
    54c6: a0 20        	ldy	#$20
    54c8: 71 14        	adc	($14),y                 ; 0x2014 <textPrint+0x148>
    54ca: 85 14        	sta	$14                     ; 0x2014 <textPrint+0x148>
    54cc: a0 01        	ldy	#$1
    54ce: a5 18        	lda	$18                     ; 0x2018 <textPrint+0x14c>
    54d0: 71 16        	adc	($16),y                 ; 0x2016 <textPrint+0x14a>
    54d2: 85 15        	sta	$15                     ; 0x2015 <textPrint+0x149>
    54d4: b2 14        	lda	($14)                   ; 0x2014 <textPrint+0x148>
    54d6: 85 1b        	sta	$1b                     ; 0x201b <textPrint+0x14f>
    54d8: 18           	clc
    54d9: a5 10        	lda	$10                     ; 0x2010 <textPrint+0x144>
    54db: 69 2d        	adc	#$2d
    54dd: 85 16        	sta	$16                     ; 0x2016 <textPrint+0x14a>
    54df: a5 11        	lda	$11                     ; 0x2011 <textPrint+0x145>
    54e1: 69 00        	adc	#$0
    54e3: 85 17        	sta	$17                     ; 0x2017 <textPrint+0x14b>
    54e5: b2 16        	lda	($16)                   ; 0x2016 <textPrint+0x14a>
    54e7: 85 18        	sta	$18                     ; 0x2018 <textPrint+0x14c>
    54e9: b1 16        	lda	($16),y                 ; 0x2016 <textPrint+0x14a>
    54eb: aa           	tax
    54ec: a0 01        	ldy	#$1
    54ee: a5 18        	lda	$18                     ; 0x2018 <textPrint+0x14c>
    54f0: 85 16        	sta	$16                     ; 0x2016 <textPrint+0x14a>
    54f2: 86 17        	stx	$17                     ; 0x2017 <textPrint+0x14b>
    54f4: 18           	clc
    54f5: 69 03        	adc	#$3
    54f7: 85 18        	sta	$18                     ; 0x2018 <textPrint+0x14c>
    54f9: 8a           	txa
    54fa: 69 00        	adc	#$0
    54fc: 85 19        	sta	$19                     ; 0x2019 <textPrint+0x14d>
    54fe: b2 12        	lda	($12)                   ; 0x2012 <textPrint+0x146>
    5500: 85 1c        	sta	$1c                     ; 0x201c <textPrint+0x150>
    5502: b1 12        	lda	($12),y                 ; 0x2012 <textPrint+0x146>
    5504: 85 1a        	sta	$1a                     ; 0x201a <textPrint+0x14e>
    5506: 06 1c        	asl	$1c                     ; 0x201c <textPrint+0x150>
    5508: 2a           	rol
    5509: 06 1c        	asl	$1c                     ; 0x201c <textPrint+0x150>
    550b: 2a           	rol
    550c: 06 1c        	asl	$1c                     ; 0x201c <textPrint+0x150>
    550e: 2a           	rol
    550f: aa           	tax
    5510: 38           	sec
    5511: a5 1c        	lda	$1c                     ; 0x201c <textPrint+0x150>
    5513: f2 12        	sbc	($12)                   ; 0x2012 <textPrint+0x146>
    5515: 85 12        	sta	$12                     ; 0x2012 <textPrint+0x146>
    5517: 8a           	txa
    5518: e5 1a        	sbc	$1a                     ; 0x201a <textPrint+0x14e>
    551a: aa           	tax
    551b: b1 14        	lda	($14),y                 ; 0x2014 <textPrint+0x148>
    551d: 85 1a        	sta	$1a                     ; 0x201a <textPrint+0x14e>
    551f: a0 03        	ldy	#$3
    5521: 18           	clc
    5522: a5 12        	lda	$12                     ; 0x2012 <textPrint+0x146>
    5524: 71 16        	adc	($16),y                 ; 0x2016 <textPrint+0x14a>
    5526: 85 12        	sta	$12                     ; 0x2012 <textPrint+0x146>
    5528: a0 01        	ldy	#$1
    552a: 8a           	txa
    552b: 71 18        	adc	($18),y                 ; 0x2018 <textPrint+0x14c>
    552d: 85 13        	sta	$13                     ; 0x2013 <textPrint+0x147>
    552f: a6 12        	ldx	$12                     ; 0x2012 <textPrint+0x146>
    5531: 86 14        	stx	$14                     ; 0x2014 <textPrint+0x148>
    5533: 85 15        	sta	$15                     ; 0x2015 <textPrint+0x149>
    5535: e6 14        	inc	$14                     ; 0x2014 <textPrint+0x148>
    5537: f0 03        	beq	$553c <playmidi+0x1351>
    5539: 4c 41 55     	jmp	$5541 <playmidi+0x1356>
    553c: e6 15        	inc	$15                     ; 0x2015 <textPrint+0x149>
    553e: 4c 41 55     	jmp	$5541 <playmidi+0x1356>
    5541: b1 12        	lda	($12),y                 ; 0x2012 <textPrint+0x146>
    5543: 85 12        	sta	$12                     ; 0x2012 <textPrint+0x146>
    5545: a5 1a        	lda	$1a                     ; 0x201a <textPrint+0x14e>
    5547: d1 14        	cmp	($14),y                 ; 0x2014 <textPrint+0x148>
    5549: a2 01        	ldx	#$1
    554b: b0 02        	bcs	$554f <playmidi+0x1364>
    554d: a2 00        	ldx	#$0
    554f: 86 13        	stx	$13                     ; 0x2013 <textPrint+0x147>
    5551: d1 14        	cmp	($14),y                 ; 0x2014 <textPrint+0x148>
    5553: f0 02        	beq	$5557 <playmidi+0x136c>
    5555: 80 08        	bra	$555f <playmidi+0x1374>
    5557: a6 1b        	ldx	$1b                     ; 0x201b <textPrint+0x14f>
    5559: e4 12        	cpx	$12                     ; 0x2012 <textPrint+0x146>
    555b: 90 0d        	bcc	$556a <playmidi+0x137f>
    555d: 80 06        	bra	$5565 <playmidi+0x137a>
    555f: a5 13        	lda	$13                     ; 0x2013 <textPrint+0x147>
    5561: f0 07        	beq	$556a <playmidi+0x137f>
    5563: 80 00        	bra	$5565 <playmidi+0x137a>
    5565: 80 00        	bra	$5567 <playmidi+0x137c>
    5567: 4c 17 56     	jmp	$5617 <playmidi+0x142c>
    556a: 18           	clc
    556b: a5 10        	lda	$10                     ; 0x2010 <textPrint+0x144>
    556d: 69 2b        	adc	#$2b
    556f: 85 12        	sta	$12                     ; 0x2012 <textPrint+0x146>
    5571: a5 11        	lda	$11                     ; 0x2011 <textPrint+0x145>
    5573: 69 00        	adc	#$0
    5575: 85 13        	sta	$13                     ; 0x2013 <textPrint+0x147>
    5577: b2 12        	lda	($12)                   ; 0x2012 <textPrint+0x146>
    5579: 85 16        	sta	$16                     ; 0x2016 <textPrint+0x14a>
    557b: a0 01        	ldy	#$1
    557d: b1 12        	lda	($12),y                 ; 0x2012 <textPrint+0x146>
    557f: 85 13        	sta	$13                     ; 0x2013 <textPrint+0x147>
    5581: 18           	clc
    5582: a5 10        	lda	$10                     ; 0x2010 <textPrint+0x144>
    5584: 69 29        	adc	#$29
    5586: 85 14        	sta	$14                     ; 0x2014 <textPrint+0x148>
    5588: a5 11        	lda	$11                     ; 0x2011 <textPrint+0x145>
    558a: 69 00        	adc	#$0
    558c: 85 15        	sta	$15                     ; 0x2015 <textPrint+0x149>
    558e: b2 14        	lda	($14)                   ; 0x2014 <textPrint+0x148>
    5590: 85 12        	sta	$12                     ; 0x2012 <textPrint+0x146>
    5592: a5 13        	lda	$13                     ; 0x2013 <textPrint+0x147>
    5594: d1 14        	cmp	($14),y                 ; 0x2014 <textPrint+0x148>
    5596: f0 02        	beq	$559a <playmidi+0x13af>
    5598: 80 0e        	bra	$55a8 <playmidi+0x13bd>
    559a: a6 16        	ldx	$16                     ; 0x2016 <textPrint+0x14a>
    559c: e4 12        	cpx	$12                     ; 0x2012 <textPrint+0x146>
    559e: f0 02        	beq	$55a2 <playmidi+0x13b7>
    55a0: 80 02        	bra	$55a4 <playmidi+0x13b9>
    55a2: 80 02        	bra	$55a6 <playmidi+0x13bb>
    55a4: 80 09        	bra	$55af <playmidi+0x13c4>
    55a6: 80 02        	bra	$55aa <playmidi+0x13bf>
    55a8: 80 05        	bra	$55af <playmidi+0x13c4>
    55aa: 80 00        	bra	$55ac <playmidi+0x13c1>
    55ac: 4c 17 56     	jmp	$5617 <playmidi+0x142c>
    55af: 18           	clc
    55b0: a5 10        	lda	$10                     ; 0x2010 <textPrint+0x144>
    55b2: 69 23        	adc	#$23
    55b4: 85 12        	sta	$12                     ; 0x2012 <textPrint+0x146>
    55b6: a5 11        	lda	$11                     ; 0x2011 <textPrint+0x145>
    55b8: 69 00        	adc	#$0
    55ba: 85 13        	sta	$13                     ; 0x2013 <textPrint+0x147>
    55bc: a0 01        	ldy	#$1
    55be: 18           	clc
    55bf: a5 10        	lda	$10                     ; 0x2010 <textPrint+0x144>
    55c1: 69 0e        	adc	#$e
    55c3: 85 14        	sta	$14                     ; 0x2014 <textPrint+0x148>
    55c5: a5 11        	lda	$11                     ; 0x2011 <textPrint+0x145>
    55c7: 69 00        	adc	#$0
    55c9: 85 15        	sta	$15                     ; 0x2015 <textPrint+0x149>
    55cb: 18           	clc
    55cc: a5 10        	lda	$10                     ; 0x2010 <textPrint+0x144>
    55ce: 69 2b        	adc	#$2b
    55d0: 85 16        	sta	$16                     ; 0x2016 <textPrint+0x14a>
    55d2: a5 11        	lda	$11                     ; 0x2011 <textPrint+0x145>
    55d4: 69 00        	adc	#$0
    55d6: 85 17        	sta	$17                     ; 0x2017 <textPrint+0x14b>
    55d8: b2 16        	lda	($16)                   ; 0x2016 <textPrint+0x14a>
    55da: aa           	tax
    55db: b1 16        	lda	($16),y                 ; 0x2016 <textPrint+0x14a>
    55dd: 85 16        	sta	$16                     ; 0x2016 <textPrint+0x14a>
    55df: 8a           	txa
    55e0: 0a           	asl
    55e1: 26 16        	rol	$16                     ; 0x2016 <textPrint+0x14a>
    55e3: 0a           	asl
    55e4: 26 16        	rol	$16                     ; 0x2016 <textPrint+0x14a>
    55e6: 18           	clc
    55e7: 72 14        	adc	($14)                   ; 0x2014 <textPrint+0x148>
    55e9: aa           	tax
    55ea: a5 16        	lda	$16                     ; 0x2016 <textPrint+0x14a>
    55ec: 71 14        	adc	($14),y                 ; 0x2014 <textPrint+0x148>
    55ee: 86 14        	stx	$14                     ; 0x2014 <textPrint+0x148>
    55f0: 85 15        	sta	$15                     ; 0x2015 <textPrint+0x149>
    55f2: b2 14        	lda	($14)                   ; 0x2014 <textPrint+0x148>
    55f4: 85 16        	sta	$16                     ; 0x2016 <textPrint+0x14a>
    55f6: b1 14        	lda	($14),y                 ; 0x2014 <textPrint+0x148>
    55f8: aa           	tax
    55f9: 38           	sec
    55fa: a5 16        	lda	$16                     ; 0x2016 <textPrint+0x14a>
    55fc: f2 12        	sbc	($12)                   ; 0x2012 <textPrint+0x146>
    55fe: 85 16        	sta	$16                     ; 0x2016 <textPrint+0x14a>
    5600: 8a           	txa
    5601: f1 12        	sbc	($12),y                 ; 0x2012 <textPrint+0x146>
    5603: 91 14        	sta	($14),y                 ; 0x2014 <textPrint+0x148>
    5605: c8           	iny
    5606: b1 14        	lda	($14),y                 ; 0x2014 <textPrint+0x148>
    5608: f1 12        	sbc	($12),y                 ; 0x2012 <textPrint+0x146>
    560a: 91 14        	sta	($14),y                 ; 0x2014 <textPrint+0x148>
    560c: c8           	iny
    560d: b1 14        	lda	($14),y                 ; 0x2014 <textPrint+0x148>
    560f: f1 12        	sbc	($12),y                 ; 0x2012 <textPrint+0x146>
    5611: 91 14        	sta	($14),y                 ; 0x2014 <textPrint+0x148>
    5613: a5 16        	lda	$16                     ; 0x2016 <textPrint+0x14a>
    5615: 92 14        	sta	($14)                   ; 0x2014 <textPrint+0x148>
    5617: 18           	clc
    5618: a5 10        	lda	$10                     ; 0x2010 <textPrint+0x144>
    561a: 69 2b        	adc	#$2b
    561c: 85 12        	sta	$12                     ; 0x2012 <textPrint+0x146>
    561e: a5 11        	lda	$11                     ; 0x2011 <textPrint+0x145>
    5620: 69 00        	adc	#$0
    5622: 85 13        	sta	$13                     ; 0x2013 <textPrint+0x147>
    5624: b2 12        	lda	($12)                   ; 0x2012 <textPrint+0x146>
    5626: aa           	tax
    5627: a0 01        	ldy	#$1
    5629: b1 12        	lda	($12),y                 ; 0x2012 <textPrint+0x146>
    562b: e8           	inx
    562c: f0 03        	beq	$5631 <playmidi+0x1446>
    562e: 4c 35 56     	jmp	$5635 <playmidi+0x144a>
    5631: 1a           	inc
    5632: 4c 35 56     	jmp	$5635 <playmidi+0x144a>
    5635: 85 14        	sta	$14                     ; 0x2014 <textPrint+0x148>
    5637: 8a           	txa
    5638: 92 12        	sta	($12)                   ; 0x2012 <textPrint+0x146>
    563a: a5 14        	lda	$14                     ; 0x2014 <textPrint+0x148>
    563c: 91 12        	sta	($12),y                 ; 0x2012 <textPrint+0x146>
    563e: 4c 3b 54     	jmp	$543b <playmidi+0x1250>
    5641: 18           	clc
    5642: a5 10        	lda	$10                     ; 0x2010 <textPrint+0x144>
    5644: 69 27        	adc	#$27
    5646: 85 12        	sta	$12                     ; 0x2012 <textPrint+0x146>
    5648: a5 11        	lda	$11                     ; 0x2011 <textPrint+0x145>
    564a: 69 00        	adc	#$0
    564c: 85 13        	sta	$13                     ; 0x2013 <textPrint+0x147>
    564e: b2 12        	lda	($12)                   ; 0x2012 <textPrint+0x146>
    5650: 85 14        	sta	$14                     ; 0x2014 <textPrint+0x148>
    5652: a0 01        	ldy	#$1
    5654: b1 12        	lda	($12),y                 ; 0x2012 <textPrint+0x146>
    5656: a2 ff        	ldx	#$ff
    5658: c6 14        	dec	$14                     ; 0x2014 <textPrint+0x148>
    565a: e4 14        	cpx	$14                     ; 0x2014 <textPrint+0x148>
    565c: f0 03        	beq	$5661 <playmidi+0x1476>
    565e: 4c 65 56     	jmp	$5665 <playmidi+0x147a>
    5661: 3a           	dec
    5662: 4c 65 56     	jmp	$5665 <playmidi+0x147a>
    5665: aa           	tax
    5666: a5 14        	lda	$14                     ; 0x2014 <textPrint+0x148>
    5668: 92 12        	sta	($12)                   ; 0x2012 <textPrint+0x146>
    566a: 8a           	txa
    566b: 91 12        	sta	($12),y                 ; 0x2012 <textPrint+0x146>
    566d: 4c dd 46     	jmp	$46dd <playmidi+0x4f2>
    5670: 18           	clc
    5671: a5 10        	lda	$10                     ; 0x2010 <textPrint+0x144>
    5673: 69 31        	adc	#$31
    5675: 85 12        	sta	$12                     ; 0x2012 <textPrint+0x146>
    5677: a5 11        	lda	$11                     ; 0x2011 <textPrint+0x145>
    5679: 69 00        	adc	#$0
    567b: 85 13        	sta	$13                     ; 0x2013 <textPrint+0x147>
    567d: a9 00        	lda	#$0
    567f: 92 12        	sta	($12)                   ; 0x2012 <textPrint+0x146>
    5681: a0 00        	ldy	#$0
    5683: b1 10        	lda	($10),y                 ; 0x2010 <textPrint+0x144>
    5685: 85 2c        	sta	$2c                     ; 0x202c <textPrint+0x160>
    5687: c8           	iny
    5688: b1 10        	lda	($10),y                 ; 0x2010 <textPrint+0x144>
    568a: 85 2b        	sta	$2b                     ; 0x202b <textPrint+0x15f>
    568c: c8           	iny
    568d: b1 10        	lda	($10),y                 ; 0x2010 <textPrint+0x144>
    568f: 85 2a        	sta	$2a                     ; 0x202a <textPrint+0x15e>
    5691: c8           	iny
    5692: b1 10        	lda	($10),y                 ; 0x2010 <textPrint+0x144>
    5694: 85 29        	sta	$29                     ; 0x2029 <textPrint+0x15d>
    5696: c8           	iny
    5697: b1 10        	lda	($10),y                 ; 0x2010 <textPrint+0x144>
    5699: 85 28        	sta	$28                     ; 0x2028 <textPrint+0x15c>
    569b: fa           	plx
    569c: 86 27        	stx	$27                     ; 0x2027 <textPrint+0x15b>
    569e: fa           	plx
    569f: 86 26        	stx	$26                     ; 0x2026 <textPrint+0x15a>
    56a1: fa           	plx
    56a2: 86 25        	stx	$25                     ; 0x2025 <textPrint+0x159>
    56a4: fa           	plx
    56a5: 86 24        	stx	$24                     ; 0x2024 <textPrint+0x158>
    56a7: 18           	clc
    56a8: a5 10        	lda	$10                     ; 0x2010 <textPrint+0x144>
    56aa: 69 32        	adc	#$32
    56ac: 85 10        	sta	$10                     ; 0x2010 <textPrint+0x144>
    56ae: a5 11        	lda	$11                     ; 0x2011 <textPrint+0x145>
    56b0: 69 00        	adc	#$0
    56b2: 85 11        	sta	$11                     ; 0x2011 <textPrint+0x145>
    56b4: 60           	rts

000056b5 <openAllCODEC>:
    56b5: a2 1f        	ldx	#$1f
    56b7: 8e 20 d6     	stx	$d620                   ; 0xd620 <end_block9+0x6b2c>
    56ba: a2 2a        	ldx	#$2a
    56bc: 8e 21 d6     	stx	$d621                   ; 0xd621 <end_block9+0x6b2d>
    56bf: a2 01        	ldx	#$1
    56c1: 8e 22 d6     	stx	$d622                   ; 0xd622 <end_block9+0x6b2e>
    56c4: ad 22 d6     	lda	$d622                   ; 0xd622 <end_block9+0x6b2e>
    56c7: 29 01        	and	#$1
    56c9: f0 04        	beq	$56cf <openAllCODEC+0x1a>
    56cb: 80 00        	bra	$56cd <openAllCODEC+0x18>
    56cd: 80 f5        	bra	$56c4 <openAllCODEC+0xf>
    56cf: 60           	rts

000056d0 <setTimer>:
    56d0: 18           	clc
    56d1: a5 10        	lda	$10                     ; 0x2010 <textPrint+0x144>
    56d3: 69 fc        	adc	#$fc
    56d5: 85 10        	sta	$10                     ; 0x2010 <textPrint+0x144>
    56d7: a5 11        	lda	$11                     ; 0x2011 <textPrint+0x145>
    56d9: 69 ff        	adc	#$ff
    56db: 85 11        	sta	$11                     ; 0x2011 <textPrint+0x145>
    56dd: a5 12        	lda	$12                     ; 0x2012 <textPrint+0x146>
    56df: a6 13        	ldx	$13                     ; 0x2013 <textPrint+0x147>
    56e1: 18           	clc
    56e2: 48           	pha
    56e3: a5 10        	lda	$10                     ; 0x2010 <textPrint+0x144>
    56e5: 69 02        	adc	#$2
    56e7: 85 12        	sta	$12                     ; 0x2012 <textPrint+0x146>
    56e9: a5 11        	lda	$11                     ; 0x2011 <textPrint+0x145>
    56eb: 69 00        	adc	#$0
    56ed: 85 13        	sta	$13                     ; 0x2013 <textPrint+0x147>
    56ef: 68           	pla
    56f0: 92 12        	sta	($12)                   ; 0x2012 <textPrint+0x146>
    56f2: a0 01        	ldy	#$1
    56f4: 8a           	txa
    56f5: 91 12        	sta	($12),y                 ; 0x2012 <textPrint+0x146>
    56f7: b2 12        	lda	($12)                   ; 0x2012 <textPrint+0x146>
    56f9: 85 14        	sta	$14                     ; 0x2014 <textPrint+0x148>
    56fb: b1 12        	lda	($12),y                 ; 0x2012 <textPrint+0x146>
    56fd: 85 15        	sta	$15                     ; 0x2015 <textPrint+0x149>
    56ff: b2 14        	lda	($14)                   ; 0x2014 <textPrint+0x148>
    5701: 85 f3        	sta	$f3                     ; 0x20f3 <textPrint+0x227>
    5703: b2 12        	lda	($12)                   ; 0x2012 <textPrint+0x146>
    5705: 85 14        	sta	$14                     ; 0x2014 <textPrint+0x148>
    5707: b1 12        	lda	($12),y                 ; 0x2012 <textPrint+0x146>
    5709: 85 15        	sta	$15                     ; 0x2015 <textPrint+0x149>
    570b: b1 14        	lda	($14),y                 ; 0x2014 <textPrint+0x148>
    570d: 85 f4        	sta	$f4                     ; 0x20f4 <textPrint+0x228>
    570f: b2 12        	lda	($12)                   ; 0x2012 <textPrint+0x146>
    5711: aa           	tax
    5712: b1 12        	lda	($12),y                 ; 0x2012 <textPrint+0x146>
    5714: 86 12        	stx	$12                     ; 0x2012 <textPrint+0x146>
    5716: 85 13        	sta	$13                     ; 0x2013 <textPrint+0x147>
    5718: c8           	iny
    5719: b1 12        	lda	($12),y                 ; 0x2012 <textPrint+0x146>
    571b: 85 f5        	sta	$f5                     ; 0x20f5 <textPrint+0x229>
    571d: 18           	clc
    571e: a5 10        	lda	$10                     ; 0x2010 <textPrint+0x144>
    5720: 69 01        	adc	#$1
    5722: 85 12        	sta	$12                     ; 0x2012 <textPrint+0x146>
    5724: a5 11        	lda	$11                     ; 0x2011 <textPrint+0x145>
    5726: 69 00        	adc	#$0
    5728: 85 13        	sta	$13                     ; 0x2013 <textPrint+0x147>
    572a: a2 f3        	ldx	#$f3
    572c: 86 14        	stx	$14                     ; 0x2014 <textPrint+0x148>
    572e: a2 6a        	ldx	#$6a
    5730: 86 15        	stx	$15                     ; 0x2015 <textPrint+0x149>
    5732: 20 f0 ff     	jsr	$fff0 <end_block9+0x94fc>
    5735: 92 12        	sta	($12)                   ; 0x2012 <textPrint+0x146>
    5737: a9 00        	lda	#$0
    5739: 6a           	ror
    573a: 85 14        	sta	$14                     ; 0x2014 <textPrint+0x148>
    573c: b2 12        	lda	($12)                   ; 0x2012 <textPrint+0x146>
    573e: 18           	clc
    573f: a6 10        	ldx	$10                     ; 0x2010 <textPrint+0x144>
    5741: 86 12        	stx	$12                     ; 0x2012 <textPrint+0x146>
    5743: a6 11        	ldx	$11                     ; 0x2011 <textPrint+0x145>
    5745: 86 13        	stx	$13                     ; 0x2013 <textPrint+0x147>
    5747: 92 12        	sta	($12)                   ; 0x2012 <textPrint+0x146>
    5749: 18           	clc
    574a: a5 10        	lda	$10                     ; 0x2010 <textPrint+0x144>
    574c: 69 04        	adc	#$4
    574e: 85 10        	sta	$10                     ; 0x2010 <textPrint+0x144>
    5750: a5 11        	lda	$11                     ; 0x2011 <textPrint+0x145>
    5752: 69 00        	adc	#$0
    5754: 85 11        	sta	$11                     ; 0x2011 <textPrint+0x145>
    5756: 60           	rts

00005757 <getTimerAbsolute>:
    5757: 18           	clc
    5758: a5 10        	lda	$10                     ; 0x2010 <textPrint+0x144>
    575a: 69 fd        	adc	#$fd
    575c: 85 10        	sta	$10                     ; 0x2010 <textPrint+0x144>
    575e: a5 11        	lda	$11                     ; 0x2011 <textPrint+0x145>
    5760: 69 ff        	adc	#$ff
    5762: 85 11        	sta	$11                     ; 0x2011 <textPrint+0x145>
    5764: 18           	clc
    5765: a5 10        	lda	$10                     ; 0x2010 <textPrint+0x144>
    5767: 69 02        	adc	#$2
    5769: 85 12        	sta	$12                     ; 0x2012 <textPrint+0x146>
    576b: a5 11        	lda	$11                     ; 0x2011 <textPrint+0x145>
    576d: 69 00        	adc	#$0
    576f: 85 13        	sta	$13                     ; 0x2013 <textPrint+0x147>
    5771: a9 00        	lda	#$0
    5773: 92 12        	sta	($12)                   ; 0x2012 <textPrint+0x146>
    5775: a9 80        	lda	#$80
    5777: 12 12        	ora	($12)                   ; 0x2012 <textPrint+0x146>
    5779: 85 f3        	sta	$f3                     ; 0x20f3 <textPrint+0x227>
    577b: 18           	clc
    577c: a5 10        	lda	$10                     ; 0x2010 <textPrint+0x144>
    577e: 69 01        	adc	#$1
    5780: 85 12        	sta	$12                     ; 0x2012 <textPrint+0x146>
    5782: a5 11        	lda	$11                     ; 0x2011 <textPrint+0x145>
    5784: 69 00        	adc	#$0
    5786: 85 13        	sta	$13                     ; 0x2013 <textPrint+0x147>
    5788: a2 f3        	ldx	#$f3
    578a: 86 14        	stx	$14                     ; 0x2014 <textPrint+0x148>
    578c: a2 6a        	ldx	#$6a
    578e: 86 15        	stx	$15                     ; 0x2015 <textPrint+0x149>
    5790: 20 f0 ff     	jsr	$fff0 <end_block9+0x94fc>
    5793: 92 12        	sta	($12)                   ; 0x2012 <textPrint+0x146>
    5795: a9 00        	lda	#$0
    5797: 6a           	ror
    5798: 85 14        	sta	$14                     ; 0x2014 <textPrint+0x148>
    579a: b2 12        	lda	($12)                   ; 0x2012 <textPrint+0x146>
    579c: 18           	clc
    579d: a6 10        	ldx	$10                     ; 0x2010 <textPrint+0x144>
    579f: 86 12        	stx	$12                     ; 0x2012 <textPrint+0x146>
    57a1: a6 11        	ldx	$11                     ; 0x2011 <textPrint+0x145>
    57a3: 86 13        	stx	$13                     ; 0x2013 <textPrint+0x147>
    57a5: 92 12        	sta	($12)                   ; 0x2012 <textPrint+0x146>
    57a7: b2 12        	lda	($12)                   ; 0x2012 <textPrint+0x146>
    57a9: 48           	pha
    57aa: 18           	clc
    57ab: a5 10        	lda	$10                     ; 0x2010 <textPrint+0x144>
    57ad: 69 03        	adc	#$3
    57af: 85 10        	sta	$10                     ; 0x2010 <textPrint+0x144>
    57b1: a5 11        	lda	$11                     ; 0x2011 <textPrint+0x145>
    57b3: 69 00        	adc	#$0
    57b5: 85 11        	sta	$11                     ; 0x2011 <textPrint+0x145>
    57b7: 68           	pla
    57b8: 60           	rts

000057b9 <setTimer0>:
    57b9: 48           	pha
    57ba: 18           	clc
    57bb: a5 10        	lda	$10                     ; 0x2010 <textPrint+0x144>
    57bd: 69 fb        	adc	#$fb
    57bf: 85 10        	sta	$10                     ; 0x2010 <textPrint+0x144>
    57c1: a5 11        	lda	$11                     ; 0x2011 <textPrint+0x145>
    57c3: 69 ff        	adc	#$ff
    57c5: 85 11        	sta	$11                     ; 0x2011 <textPrint+0x145>
    57c7: 68           	pla
    57c8: a4 24        	ldy	$24                     ; 0x2024 <textPrint+0x158>
    57ca: 5a           	phy
    57cb: a4 25        	ldy	$25                     ; 0x2025 <textPrint+0x159>
    57cd: 5a           	phy
    57ce: a4 26        	ldy	$26                     ; 0x2026 <textPrint+0x15a>
    57d0: 5a           	phy
    57d1: a4 27        	ldy	$27                     ; 0x2027 <textPrint+0x15b>
    57d3: 5a           	phy
    57d4: 48           	pha
    57d5: a5 28        	lda	$28                     ; 0x2028 <textPrint+0x15c>
    57d7: a0 01        	ldy	#$1
    57d9: 91 10        	sta	($10),y                 ; 0x2010 <textPrint+0x144>
    57db: a5 29        	lda	$29                     ; 0x2029 <textPrint+0x15d>
    57dd: 88           	dey
    57de: 91 10        	sta	($10),y                 ; 0x2010 <textPrint+0x144>
    57e0: 18           	clc
    57e1: a5 10        	lda	$10                     ; 0x2010 <textPrint+0x144>
    57e3: 69 04        	adc	#$4
    57e5: 85 24        	sta	$24                     ; 0x2024 <textPrint+0x158>
    57e7: a5 11        	lda	$11                     ; 0x2011 <textPrint+0x145>
    57e9: 69 00        	adc	#$0
    57eb: 85 25        	sta	$25                     ; 0x2025 <textPrint+0x159>
    57ed: 68           	pla
    57ee: 92 24        	sta	($24)                   ; 0x2024 <textPrint+0x158>
    57f0: 18           	clc
    57f1: a5 10        	lda	$10                     ; 0x2010 <textPrint+0x144>
    57f3: 69 03        	adc	#$3
    57f5: 85 26        	sta	$26                     ; 0x2026 <textPrint+0x15a>
    57f7: a5 11        	lda	$11                     ; 0x2011 <textPrint+0x145>
    57f9: 69 00        	adc	#$0
    57fb: 85 27        	sta	$27                     ; 0x2027 <textPrint+0x15b>
    57fd: 8a           	txa
    57fe: 92 26        	sta	($26)                   ; 0x2026 <textPrint+0x15a>
    5800: 18           	clc
    5801: a5 10        	lda	$10                     ; 0x2010 <textPrint+0x144>
    5803: 69 02        	adc	#$2
    5805: 85 28        	sta	$28                     ; 0x2028 <textPrint+0x15c>
    5807: a5 11        	lda	$11                     ; 0x2011 <textPrint+0x145>
    5809: 69 00        	adc	#$0
    580b: 85 29        	sta	$29                     ; 0x2029 <textPrint+0x15d>
    580d: a5 12        	lda	$12                     ; 0x2012 <textPrint+0x146>
    580f: 92 28        	sta	($28)                   ; 0x2028 <textPrint+0x15c>
    5811: 20 4d 58     	jsr	$584d <resetTimer0>
    5814: a2 01        	ldx	#$1
    5816: 8e 54 d6     	stx	$d654                   ; 0xd654 <end_block9+0x6b60>
    5819: b2 24        	lda	($24)                   ; 0x2024 <textPrint+0x158>
    581b: 8d 55 d6     	sta	$d655                   ; 0xd655 <end_block9+0x6b61>
    581e: b2 26        	lda	($26)                   ; 0x2026 <textPrint+0x15a>
    5820: 8d 56 d6     	sta	$d656                   ; 0xd656 <end_block9+0x6b62>
    5823: b2 28        	lda	($28)                   ; 0x2028 <textPrint+0x15c>
    5825: 8d 57 d6     	sta	$d657                   ; 0xd657 <end_block9+0x6b63>
    5828: a0 00        	ldy	#$0
    582a: b1 10        	lda	($10),y                 ; 0x2010 <textPrint+0x144>
    582c: 85 29        	sta	$29                     ; 0x2029 <textPrint+0x15d>
    582e: c8           	iny
    582f: b1 10        	lda	($10),y                 ; 0x2010 <textPrint+0x144>
    5831: 85 28        	sta	$28                     ; 0x2028 <textPrint+0x15c>
    5833: fa           	plx
    5834: 86 27        	stx	$27                     ; 0x2027 <textPrint+0x15b>
    5836: fa           	plx
    5837: 86 26        	stx	$26                     ; 0x2026 <textPrint+0x15a>
    5839: fa           	plx
    583a: 86 25        	stx	$25                     ; 0x2025 <textPrint+0x159>
    583c: fa           	plx
    583d: 86 24        	stx	$24                     ; 0x2024 <textPrint+0x158>
    583f: 18           	clc
    5840: a5 10        	lda	$10                     ; 0x2010 <textPrint+0x144>
    5842: 69 05        	adc	#$5
    5844: 85 10        	sta	$10                     ; 0x2010 <textPrint+0x144>
    5846: a5 11        	lda	$11                     ; 0x2011 <textPrint+0x145>
    5848: 69 00        	adc	#$0
    584a: 85 11        	sta	$11                     ; 0x2011 <textPrint+0x145>
    584c: 60           	rts

0000584d <resetTimer0>:
    584d: a2 02        	ldx	#$2
    584f: 8e 50 d6     	stx	$d650                   ; 0xd650 <end_block9+0x6b5c>
    5852: a2 09        	ldx	#$9
    5854: 8e 50 d6     	stx	$d650                   ; 0xd650 <end_block9+0x6b5c>
    5857: a2 10        	ldx	#$10
    5859: 8e 60 d6     	stx	$d660                   ; 0xd660 <end_block9+0x6b6c>
    585c: 60           	rts

0000585d <isTimer0Done>:
    585d: ad 60 d6     	lda	$d660                   ; 0xd660 <end_block9+0x6b6c>
    5860: 29 10        	and	#$10
    5862: 60           	rts

00005863 <exit>:
    5863: 20 19 03     	jsr	$319 <_fini>
    5866: 80 fe        	bra	$5866 <exit+0x3>

00005868 <_ZN12_GLOBAL__N_13putEcP6Status>:
    5868: 85 18        	sta	$18                     ; 0x2018 <textPrint+0x14c>
    586a: a6 13        	ldx	$13                     ; 0x2013 <textPrint+0x147>
    586c: 18           	clc
    586d: a5 12        	lda	$12                     ; 0x2012 <textPrint+0x146>
    586f: 69 05        	adc	#$5
    5871: a8           	tay
    5872: a5 13        	lda	$13                     ; 0x2013 <textPrint+0x147>
    5874: 86 15        	stx	$15                     ; 0x2015 <textPrint+0x149>
    5876: 69 00        	adc	#$0
    5878: 18           	clc
    5879: 84 16        	sty	$16                     ; 0x2016 <textPrint+0x14a>
    587b: a0 05        	ldy	#$5
    587d: 85 17        	sta	$17                     ; 0x2017 <textPrint+0x14b>
    587f: b1 12        	lda	($12),y                 ; 0x2012 <textPrint+0x146>
    5881: aa           	tax
    5882: a5 12        	lda	$12                     ; 0x2012 <textPrint+0x146>
    5884: 69 03        	adc	#$3
    5886: 85 14        	sta	$14                     ; 0x2014 <textPrint+0x148>
    5888: a5 15        	lda	$15                     ; 0x2015 <textPrint+0x149>
    588a: 69 00        	adc	#$0
    588c: 85 15        	sta	$15                     ; 0x2015 <textPrint+0x149>
    588e: a0 01        	ldy	#$1
    5890: b1 16        	lda	($16),y                 ; 0x2016 <textPrint+0x14a>
    5892: d1 14        	cmp	($14),y                 ; 0x2014 <textPrint+0x148>
    5894: d0 11        	bne	$58a7 <_ZN12_GLOBAL__N_13putEcP6Status+0x3f>
    5896: a0 03        	ldy	#$3
    5898: 85 17        	sta	$17                     ; 0x2017 <textPrint+0x14b>
    589a: b1 12        	lda	($12),y                 ; 0x2012 <textPrint+0x146>
    589c: 85 14        	sta	$14                     ; 0x2014 <textPrint+0x148>
    589e: 86 16        	stx	$16                     ; 0x2016 <textPrint+0x14a>
    58a0: e4 14        	cpx	$14                     ; 0x2014 <textPrint+0x148>
    58a2: 90 0e        	bcc	$58b2 <_ZN12_GLOBAL__N_13putEcP6Status+0x4a>
    58a4: 4c 11 59     	jmp	$5911 <_ZN12_GLOBAL__N_13putEcP6Status+0xa9>
    58a7: 86 16        	stx	$16                     ; 0x2016 <textPrint+0x14a>
    58a9: d1 14        	cmp	($14),y                 ; 0x2014 <textPrint+0x148>
    58ab: 85 17        	sta	$17                     ; 0x2017 <textPrint+0x14b>
    58ad: 90 03        	bcc	$58b2 <_ZN12_GLOBAL__N_13putEcP6Status+0x4a>
    58af: 4c 11 59     	jmp	$5911 <_ZN12_GLOBAL__N_13putEcP6Status+0xa9>
    58b2: a5 12        	lda	$12                     ; 0x2012 <textPrint+0x146>
    58b4: 18           	clc
    58b5: 69 0f        	adc	#$f
    58b7: 85 14        	sta	$14                     ; 0x2014 <textPrint+0x148>
    58b9: a5 13        	lda	$13                     ; 0x2013 <textPrint+0x147>
    58bb: 69 00        	adc	#$0
    58bd: 85 15        	sta	$15                     ; 0x2015 <textPrint+0x149>
    58bf: a0 01        	ldy	#$1
    58c1: b1 14        	lda	($14),y                 ; 0x2014 <textPrint+0x148>
    58c3: a2 00        	ldx	#$0
    58c5: 86 14        	stx	$14                     ; 0x2014 <textPrint+0x148>
    58c7: a2 00        	ldx	#$0
    58c9: 86 15        	stx	$15                     ; 0x2015 <textPrint+0x149>
    58cb: c5 15        	cmp	$15                     ; 0x2015 <textPrint+0x149>
    58cd: d0 2d        	bne	$58fc <_ZN12_GLOBAL__N_13putEcP6Status+0x94>
    58cf: a0 0f        	ldy	#$f
    58d1: b1 12        	lda	($12),y                 ; 0x2012 <textPrint+0x146>
    58d3: c5 14        	cmp	$14                     ; 0x2014 <textPrint+0x148>
    58d5: d0 25        	bne	$58fc <_ZN12_GLOBAL__N_13putEcP6Status+0x94>
    58d7: a5 12        	lda	$12                     ; 0x2012 <textPrint+0x146>
    58d9: 18           	clc
    58da: 69 09        	adc	#$9
    58dc: 85 14        	sta	$14                     ; 0x2014 <textPrint+0x148>
    58de: a5 13        	lda	$13                     ; 0x2013 <textPrint+0x147>
    58e0: 69 00        	adc	#$0
    58e2: a0 09        	ldy	#$9
    58e4: 85 15        	sta	$15                     ; 0x2015 <textPrint+0x149>
    58e6: 18           	clc
    58e7: a5 16        	lda	$16                     ; 0x2016 <textPrint+0x14a>
    58e9: 71 12        	adc	($12),y                 ; 0x2012 <textPrint+0x146>
    58eb: aa           	tax
    58ec: a0 01        	ldy	#$1
    58ee: a5 17        	lda	$17                     ; 0x2017 <textPrint+0x14b>
    58f0: 71 14        	adc	($14),y                 ; 0x2014 <textPrint+0x148>
    58f2: 86 14        	stx	$14                     ; 0x2014 <textPrint+0x148>
    58f4: 85 15        	sta	$15                     ; 0x2015 <textPrint+0x149>
    58f6: a5 18        	lda	$18                     ; 0x2018 <textPrint+0x14c>
    58f8: 92 14        	sta	($14)                   ; 0x2014 <textPrint+0x148>
    58fa: 80 15        	bra	$5911 <_ZN12_GLOBAL__N_13putEcP6Status+0xa9>
    58fc: a6 12        	ldx	$12                     ; 0x2012 <textPrint+0x146>
    58fe: 86 af        	stx	$af                     ; 0x20af <textPrint+0x1e3>
    5900: a6 13        	ldx	$13                     ; 0x2013 <textPrint+0x147>
    5902: 86 b0        	stx	$b0                     ; 0x20b0 <textPrint+0x1e4>
    5904: a5 18        	lda	$18                     ; 0x2018 <textPrint+0x14c>
    5906: 20 85 24     	jsr	$2485 <__putchar>
    5909: a6 af        	ldx	$af                     ; 0x20af <textPrint+0x1e3>
    590b: 86 12        	stx	$12                     ; 0x2012 <textPrint+0x146>
    590d: a6 b0        	ldx	$b0                     ; 0x20b0 <textPrint+0x1e4>
    590f: 86 13        	stx	$13                     ; 0x2013 <textPrint+0x147>
    5911: a0 05        	ldy	#$5
    5913: a5 12        	lda	$12                     ; 0x2012 <textPrint+0x146>
    5915: 18           	clc
    5916: 69 05        	adc	#$5
    5918: 85 14        	sta	$14                     ; 0x2014 <textPrint+0x148>
    591a: a5 13        	lda	$13                     ; 0x2013 <textPrint+0x147>
    591c: 69 00        	adc	#$0
    591e: 85 15        	sta	$15                     ; 0x2015 <textPrint+0x149>
    5920: b1 12        	lda	($12),y                 ; 0x2012 <textPrint+0x146>
    5922: aa           	tax
    5923: a0 01        	ldy	#$1
    5925: b1 14        	lda	($14),y                 ; 0x2014 <textPrint+0x148>
    5927: e8           	inx
    5928: d0 01        	bne	$592b <_ZN12_GLOBAL__N_13putEcP6Status+0xc3>
    592a: 1a           	inc
    592b: 85 16        	sta	$16                     ; 0x2016 <textPrint+0x14a>
    592d: 8a           	txa
    592e: a0 05        	ldy	#$5
    5930: 91 12        	sta	($12),y                 ; 0x2012 <textPrint+0x146>
    5932: a0 01        	ldy	#$1
    5934: a5 16        	lda	$16                     ; 0x2016 <textPrint+0x14a>
    5936: 91 14        	sta	($14),y                 ; 0x2014 <textPrint+0x148>
    5938: 60           	rts

00005939 <_ZN12_GLOBAL__N_112print_stringEPKcP6Status>:
    5939: a6 12        	ldx	$12                     ; 0x2012 <textPrint+0x146>
    593b: 86 a7        	stx	$a7                     ; 0x20a7 <textPrint+0x1db>
    593d: a6 13        	ldx	$13                     ; 0x2013 <textPrint+0x147>
    593f: 86 a8        	stx	$a8                     ; 0x20a8 <textPrint+0x1dc>
    5941: a6 14        	ldx	$14                     ; 0x2014 <textPrint+0x148>
    5943: 86 a9        	stx	$a9                     ; 0x20a9 <textPrint+0x1dd>
    5945: a6 15        	ldx	$15                     ; 0x2015 <textPrint+0x149>
    5947: 86 aa        	stx	$aa                     ; 0x20aa <textPrint+0x1de>
    5949: a5 a9        	lda	$a9                     ; 0x20a9 <textPrint+0x1dd>
    594b: 18           	clc
    594c: 69 0d        	adc	#$d
    594e: 85 12        	sta	$12                     ; 0x2012 <textPrint+0x146>
    5950: a5 aa        	lda	$aa                     ; 0x20aa <textPrint+0x1de>
    5952: 69 00        	adc	#$0
    5954: 85 13        	sta	$13                     ; 0x2013 <textPrint+0x147>
    5956: a0 01        	ldy	#$1
    5958: b1 12        	lda	($12),y                 ; 0x2012 <textPrint+0x146>
    595a: 30 16        	bmi	$5972 <_ZN12_GLOBAL__N_112print_stringEPKcP6Status+0x39>
    595c: a0 0d        	ldy	#$d
    595e: 85 12        	sta	$12                     ; 0x2012 <textPrint+0x146>
    5960: b1 a9        	lda	($a9),y                 ; 0x20a9 <textPrint+0x1dd>
    5962: a6 12        	ldx	$12                     ; 0x2012 <textPrint+0x146>
    5964: 86 ae        	stx	$ae                     ; 0x20ae <textPrint+0x1e2>
    5966: d0 0f        	bne	$5977 <_ZN12_GLOBAL__N_112print_stringEPKcP6Status+0x3e>
    5968: aa           	tax
    5969: d0 0c        	bne	$5977 <_ZN12_GLOBAL__N_112print_stringEPKcP6Status+0x3e>
    596b: 64 ab        	stz	$ab                     ; 0x20ab <textPrint+0x1df>
    596d: a2 00        	ldx	#$0
    596f: 4c 40 5a     	jmp	$5a40 <_ZN12_GLOBAL__N_112print_stringEPKcP6Status+0x107>
    5972: a9 ff        	lda	#$ff
    5974: aa           	tax
    5975: 86 ae        	stx	$ae                     ; 0x20ae <textPrint+0x1e2>
    5977: 85 ab        	sta	$ab                     ; 0x20ab <textPrint+0x1df>
    5979: 64 12        	stz	$12                     ; 0x2012 <textPrint+0x146>
    597b: a4 a7        	ldy	$a7                     ; 0x20a7 <textPrint+0x1db>
    597d: a6 a8        	ldx	$a8                     ; 0x20a8 <textPrint+0x1dc>
    597f: 86 16        	stx	$16                     ; 0x2016 <textPrint+0x14a>
    5981: 64 13        	stz	$13                     ; 0x2013 <textPrint+0x147>
    5983: 98           	tya
    5984: 18           	clc
    5985: 65 12        	adc	$12                     ; 0x2012 <textPrint+0x146>
    5987: 85 14        	sta	$14                     ; 0x2014 <textPrint+0x148>
    5989: a5 a8        	lda	$a8                     ; 0x20a8 <textPrint+0x1dc>
    598b: 65 13        	adc	$13                     ; 0x2013 <textPrint+0x147>
    598d: 85 15        	sta	$15                     ; 0x2015 <textPrint+0x149>
    598f: b2 14        	lda	($14)                   ; 0x2014 <textPrint+0x148>
    5991: d0 03        	bne	$5996 <_ZN12_GLOBAL__N_112print_stringEPKcP6Status+0x5d>
    5993: 4c 3a 5a     	jmp	$5a3a <_ZN12_GLOBAL__N_112print_stringEPKcP6Status+0x101>
    5996: e6 12        	inc	$12                     ; 0x2012 <textPrint+0x146>
    5998: d0 02        	bne	$599c <_ZN12_GLOBAL__N_112print_stringEPKcP6Status+0x63>
    599a: e6 13        	inc	$13                     ; 0x2013 <textPrint+0x147>
    599c: a6 ae        	ldx	$ae                     ; 0x20ae <textPrint+0x1e2>
    599e: e4 13        	cpx	$13                     ; 0x2013 <textPrint+0x147>
    59a0: d0 e1        	bne	$5983 <_ZN12_GLOBAL__N_112print_stringEPKcP6Status+0x4a>
    59a2: a6 ab        	ldx	$ab                     ; 0x20ab <textPrint+0x1df>
    59a4: e4 12        	cpx	$12                     ; 0x2012 <textPrint+0x146>
    59a6: d0 db        	bne	$5983 <_ZN12_GLOBAL__N_112print_stringEPKcP6Status+0x4a>
    59a8: a0 01        	ldy	#$1
    59aa: b1 a9        	lda	($a9),y                 ; 0x20a9 <textPrint+0x1dd>
    59ac: 29 01        	and	#$1
    59ae: f0 03        	beq	$59b3 <_ZN12_GLOBAL__N_112print_stringEPKcP6Status+0x7a>
    59b0: 4c 0b 5a     	jmp	$5a0b <_ZN12_GLOBAL__N_112print_stringEPKcP6Status+0xd2>
    59b3: a5 a9        	lda	$a9                     ; 0x20a9 <textPrint+0x1dd>
    59b5: 18           	clc
    59b6: 69 0b        	adc	#$b
    59b8: 85 14        	sta	$14                     ; 0x2014 <textPrint+0x148>
    59ba: a5 aa        	lda	$aa                     ; 0x20aa <textPrint+0x1de>
    59bc: 69 00        	adc	#$0
    59be: 85 15        	sta	$15                     ; 0x2015 <textPrint+0x149>
    59c0: a0 0b        	ldy	#$b
    59c2: b1 a9        	lda	($a9),y                 ; 0x20a9 <textPrint+0x1dd>
    59c4: 85 13        	sta	$13                     ; 0x2013 <textPrint+0x147>
    59c6: a0 01        	ldy	#$1
    59c8: b1 14        	lda	($14),y                 ; 0x2014 <textPrint+0x148>
    59ca: 85 12        	sta	$12                     ; 0x2012 <textPrint+0x146>
    59cc: a6 ae        	ldx	$ae                     ; 0x20ae <textPrint+0x1e2>
    59ce: e4 12        	cpx	$12                     ; 0x2012 <textPrint+0x146>
    59d0: d0 08        	bne	$59da <_ZN12_GLOBAL__N_112print_stringEPKcP6Status+0xa1>
    59d2: a6 ab        	ldx	$ab                     ; 0x20ab <textPrint+0x1df>
    59d4: e4 13        	cpx	$13                     ; 0x2013 <textPrint+0x147>
    59d6: 90 06        	bcc	$59de <_ZN12_GLOBAL__N_112print_stringEPKcP6Status+0xa5>
    59d8: 80 31        	bra	$5a0b <_ZN12_GLOBAL__N_112print_stringEPKcP6Status+0xd2>
    59da: e4 12        	cpx	$12                     ; 0x2012 <textPrint+0x146>
    59dc: b0 2d        	bcs	$5a0b <_ZN12_GLOBAL__N_112print_stringEPKcP6Status+0xd2>
    59de: 38           	sec
    59df: a5 ab        	lda	$ab                     ; 0x20ab <textPrint+0x1df>
    59e1: e5 13        	sbc	$13                     ; 0x2013 <textPrint+0x147>
    59e3: a8           	tay
    59e4: a5 ae        	lda	$ae                     ; 0x20ae <textPrint+0x1e2>
    59e6: e5 12        	sbc	$12                     ; 0x2012 <textPrint+0x146>
    59e8: 85 ad        	sta	$ad                     ; 0x20ad <textPrint+0x1e1>
    59ea: a6 a9        	ldx	$a9                     ; 0x20a9 <textPrint+0x1dd>
    59ec: 86 12        	stx	$12                     ; 0x2012 <textPrint+0x146>
    59ee: a6 aa        	ldx	$aa                     ; 0x20aa <textPrint+0x1de>
    59f0: 86 13        	stx	$13                     ; 0x2013 <textPrint+0x147>
    59f2: 84 ac        	sty	$ac                     ; 0x20ac <textPrint+0x1e0>
    59f4: a9 20        	lda	#$20
    59f6: 20 68 58     	jsr	$5868 <_ZN12_GLOBAL__N_13putEcP6Status>
    59f9: a6 ad        	ldx	$ad                     ; 0x20ad <textPrint+0x1e1>
    59fb: e6 ac        	inc	$ac                     ; 0x20ac <textPrint+0x1e0>
    59fd: d0 01        	bne	$5a00 <_ZN12_GLOBAL__N_112print_stringEPKcP6Status+0xc7>
    59ff: e8           	inx
    5a00: 86 ad        	stx	$ad                     ; 0x20ad <textPrint+0x1e1>
    5a02: a4 ac        	ldy	$ac                     ; 0x20ac <textPrint+0x1e0>
    5a04: 8a           	txa
    5a05: d0 e3        	bne	$59ea <_ZN12_GLOBAL__N_112print_stringEPKcP6Status+0xb1>
    5a07: a5 ac        	lda	$ac                     ; 0x20ac <textPrint+0x1e0>
    5a09: d0 df        	bne	$59ea <_ZN12_GLOBAL__N_112print_stringEPKcP6Status+0xb1>
    5a0b: a4 ae        	ldy	$ae                     ; 0x20ae <textPrint+0x1e2>
    5a0d: d0 04        	bne	$5a13 <_ZN12_GLOBAL__N_112print_stringEPKcP6Status+0xda>
    5a0f: a5 ab        	lda	$ab                     ; 0x20ab <textPrint+0x1df>
    5a11: f0 26        	beq	$5a39 <_ZN12_GLOBAL__N_112print_stringEPKcP6Status+0x100>
    5a13: a2 ff        	ldx	#$ff
    5a15: c6 ab        	dec	$ab                     ; 0x20ab <textPrint+0x1df>
    5a17: e4 ab        	cpx	$ab                     ; 0x20ab <textPrint+0x1df>
    5a19: d0 01        	bne	$5a1c <_ZN12_GLOBAL__N_112print_stringEPKcP6Status+0xe3>
    5a1b: 88           	dey
    5a1c: 84 ac        	sty	$ac                     ; 0x20ac <textPrint+0x1e0>
    5a1e: b2 a7        	lda	($a7)                   ; 0x20a7 <textPrint+0x1db>
    5a20: e6 a7        	inc	$a7                     ; 0x20a7 <textPrint+0x1db>
    5a22: d0 02        	bne	$5a26 <_ZN12_GLOBAL__N_112print_stringEPKcP6Status+0xed>
    5a24: e6 a8        	inc	$a8                     ; 0x20a8 <textPrint+0x1dc>
    5a26: a6 a9        	ldx	$a9                     ; 0x20a9 <textPrint+0x1dd>
    5a28: 86 12        	stx	$12                     ; 0x2012 <textPrint+0x146>
    5a2a: a6 aa        	ldx	$aa                     ; 0x20aa <textPrint+0x1de>
    5a2c: 86 13        	stx	$13                     ; 0x2013 <textPrint+0x147>
    5a2e: 20 68 58     	jsr	$5868 <_ZN12_GLOBAL__N_13putEcP6Status>
    5a31: a4 ac        	ldy	$ac                     ; 0x20ac <textPrint+0x1e0>
    5a33: d0 de        	bne	$5a13 <_ZN12_GLOBAL__N_112print_stringEPKcP6Status+0xda>
    5a35: a5 ab        	lda	$ab                     ; 0x20ab <textPrint+0x1df>
    5a37: d0 da        	bne	$5a13 <_ZN12_GLOBAL__N_112print_stringEPKcP6Status+0xda>
    5a39: 60           	rts
    5a3a: a6 12        	ldx	$12                     ; 0x2012 <textPrint+0x146>
    5a3c: 86 ab        	stx	$ab                     ; 0x20ab <textPrint+0x1df>
    5a3e: a6 13        	ldx	$13                     ; 0x2013 <textPrint+0x147>
    5a40: 86 ae        	stx	$ae                     ; 0x20ae <textPrint+0x1e2>
    5a42: 4c a8 59     	jmp	$59a8 <_ZN12_GLOBAL__N_112print_stringEPKcP6Status+0x6f>

00005a45 <printf>:
    5a45: a6 12        	ldx	$12                     ; 0x2012 <textPrint+0x146>
    5a47: 86 5c        	stx	$5c                     ; 0x205c <textPrint+0x190>
    5a49: a6 13        	ldx	$13                     ; 0x2013 <textPrint+0x147>
    5a4b: 86 5d        	stx	$5d                     ; 0x205d <textPrint+0x191>
    5a4d: 18           	clc
    5a4e: a6 10        	ldx	$10                     ; 0x2010 <textPrint+0x144>
    5a50: a4 11        	ldy	$11                     ; 0x2011 <textPrint+0x145>
    5a52: 86 9d        	stx	$9d                     ; 0x209d <textPrint+0x1d1>
    5a54: 84 9e        	sty	$9e                     ; 0x209e <textPrint+0x1d2>
    5a56: a6 9d        	ldx	$9d                     ; 0x209d <textPrint+0x1d1>
    5a58: a4 9e        	ldy	$9e                     ; 0x209e <textPrint+0x1d2>
    5a5a: 86 88        	stx	$88                     ; 0x2088 <textPrint+0x1bc>
    5a5c: 84 89        	sty	$89                     ; 0x2089 <textPrint+0x1bd>
    5a5e: a2 ff        	ldx	#$ff
    5a60: 86 8d        	stx	$8d                     ; 0x208d <textPrint+0x1c1>
    5a62: 86 8e        	stx	$8e                     ; 0x208e <textPrint+0x1c2>
    5a64: 64 8f        	stz	$8f                     ; 0x208f <textPrint+0x1c3>
    5a66: 64 90        	stz	$90                     ; 0x2090 <textPrint+0x1c4>
    5a68: e8           	inx
    5a69: 86 5e        	stx	$5e                     ; 0x205e <textPrint+0x192>
    5a6b: a2 00        	ldx	#$0
    5a6d: 86 5f        	stx	$5f                     ; 0x205f <textPrint+0x193>
    5a6f: a6 5e        	ldx	$5e                     ; 0x205e <textPrint+0x192>
    5a71: a4 5f        	ldy	$5f                     ; 0x205f <textPrint+0x193>
    5a73: 86 93        	stx	$93                     ; 0x2093 <textPrint+0x1c7>
    5a75: 84 94        	sty	$94                     ; 0x2094 <textPrint+0x1c8>
    5a77: a2 02        	ldx	#$2
    5a79: 86 99        	stx	$99                     ; 0x2099 <textPrint+0x1cd>
    5a7b: 64 9a        	stz	$9a                     ; 0x209a <textPrint+0x1ce>
    5a7d: a6 88        	ldx	$88                     ; 0x2088 <textPrint+0x1bc>
    5a7f: a4 89        	ldy	$89                     ; 0x2089 <textPrint+0x1bd>
    5a81: 86 9b        	stx	$9b                     ; 0x209b <textPrint+0x1cf>
    5a83: 84 9c        	sty	$9c                     ; 0x209c <textPrint+0x1d0>
    5a85: a2 7f        	ldx	#$7f
    5a87: a0 00        	ldy	#$0
    5a89: 86 12        	stx	$12                     ; 0x2012 <textPrint+0x146>
    5a8b: 84 13        	sty	$13                     ; 0x2013 <textPrint+0x147>
    5a8d: a0 01        	ldy	#$1
    5a8f: a9 66        	lda	#$66
    5a91: 18           	clc
    5a92: 69 02        	adc	#$2
    5a94: 85 a5        	sta	$a5                     ; 0x20a5 <textPrint+0x1d9>
    5a96: a9 00        	lda	#$0
    5a98: 69 00        	adc	#$0
    5a9a: 85 a6        	sta	$a6                     ; 0x20a6 <textPrint+0x1da>
    5a9c: e6 12        	inc	$12                     ; 0x2012 <textPrint+0x146>
    5a9e: d0 02        	bne	$5aa2 <printf+0x5d>
    5aa0: e6 13        	inc	$13                     ; 0x2013 <textPrint+0x147>
    5aa2: a6 12        	ldx	$12                     ; 0x2012 <textPrint+0x146>
    5aa4: 86 a1        	stx	$a1                     ; 0x20a1 <textPrint+0x1d5>
    5aa6: a6 13        	ldx	$13                     ; 0x2013 <textPrint+0x147>
    5aa8: 86 a2        	stx	$a2                     ; 0x20a2 <textPrint+0x1d6>
    5aaa: a6 5c        	ldx	$5c                     ; 0x205c <textPrint+0x190>
    5aac: 86 60        	stx	$60                     ; 0x2060 <textPrint+0x194>
    5aae: a6 5d        	ldx	$5d                     ; 0x205d <textPrint+0x191>
    5ab0: 86 61        	stx	$61                     ; 0x2061 <textPrint+0x195>
    5ab2: b2 5c        	lda	($5c)                   ; 0x205c <textPrint+0x190>
    5ab4: c9 25        	cmp	#$25
    5ab6: f0 21        	beq	$5ad9 <printf+0x94>
    5ab8: aa           	tax
    5ab9: d0 03        	bne	$5abe <printf+0x79>
    5abb: 4c 00 66     	jmp	$6600 <printf+0xbbb>
    5abe: 20 85 24     	jsr	$2485 <__putchar>
    5ac1: a0 01        	ldy	#$1
    5ac3: e6 60        	inc	$60                     ; 0x2060 <textPrint+0x194>
    5ac5: d0 02        	bne	$5ac9 <printf+0x84>
    5ac7: e6 61        	inc	$61                     ; 0x2061 <textPrint+0x195>
    5ac9: e6 8f        	inc	$8f                     ; 0x208f <textPrint+0x1c3>
    5acb: d0 02        	bne	$5acf <printf+0x8a>
    5acd: e6 90        	inc	$90                     ; 0x2090 <textPrint+0x1c4>
    5acf: a6 60        	ldx	$60                     ; 0x2060 <textPrint+0x194>
    5ad1: 86 5c        	stx	$5c                     ; 0x205c <textPrint+0x190>
    5ad3: a6 61        	ldx	$61                     ; 0x2061 <textPrint+0x195>
    5ad5: 86 5d        	stx	$5d                     ; 0x205d <textPrint+0x191>
    5ad7: 80 d1        	bra	$5aaa <printf+0x65>
    5ad9: a6 5c        	ldx	$5c                     ; 0x205c <textPrint+0x190>
    5adb: 86 12        	stx	$12                     ; 0x2012 <textPrint+0x146>
    5add: a6 5d        	ldx	$5d                     ; 0x205d <textPrint+0x191>
    5adf: 86 13        	stx	$13                     ; 0x2013 <textPrint+0x147>
    5ae1: e6 12        	inc	$12                     ; 0x2012 <textPrint+0x146>
    5ae3: d0 02        	bne	$5ae7 <printf+0xa2>
    5ae5: e6 13        	inc	$13                     ; 0x2013 <textPrint+0x147>
    5ae7: b1 60        	lda	($60),y                 ; 0x2060 <textPrint+0x194>
    5ae9: c9 25        	cmp	#$25
    5aeb: d0 16        	bne	$5b03 <printf+0xbe>
    5aed: a4 8f        	ldy	$8f                     ; 0x208f <textPrint+0x1c3>
    5aef: a5 90        	lda	$90                     ; 0x2090 <textPrint+0x1c4>
    5af1: c5 8e        	cmp	$8e                     ; 0x208e <textPrint+0x1c2>
    5af3: f0 03        	beq	$5af8 <printf+0xb3>
    5af5: 4c 09 5c     	jmp	$5c09 <printf+0x1c4>
    5af8: a6 8d        	ldx	$8d                     ; 0x208d <textPrint+0x1c1>
    5afa: 86 12        	stx	$12                     ; 0x2012 <textPrint+0x146>
    5afc: 84 13        	sty	$13                     ; 0x2013 <textPrint+0x147>
    5afe: c4 12        	cpy	$12                     ; 0x2012 <textPrint+0x146>
    5b00: 4c 0d 5c     	jmp	$5c0d <printf+0x1c8>
    5b03: 64 8b        	stz	$8b                     ; 0x208b <textPrint+0x1bf>
    5b05: 64 8c        	stz	$8c                     ; 0x208c <textPrint+0x1c0>
    5b07: 64 8a        	stz	$8a                     ; 0x208a <textPrint+0x1be>
    5b09: 64 95        	stz	$95                     ; 0x2095 <textPrint+0x1c9>
    5b0b: 64 96        	stz	$96                     ; 0x2096 <textPrint+0x1ca>
    5b0d: a2 ff        	ldx	#$ff
    5b0f: 86 97        	stx	$97                     ; 0x2097 <textPrint+0x1cb>
    5b11: 86 98        	stx	$98                     ; 0x2098 <textPrint+0x1cc>
    5b13: 64 5b        	stz	$5b                     ; 0x205b <textPrint+0x18f>
    5b15: 80 33        	bra	$5b4a <printf+0x105>
    5b17: a2 02        	ldx	#$2
    5b19: 80 15        	bra	$5b30 <printf+0xeb>
    5b1b: e0 20        	cpx	#$20
    5b1d: f0 15        	beq	$5b34 <printf+0xef>
    5b1f: 86 15        	stx	$15                     ; 0x2015 <textPrint+0x149>
    5b21: e0 23        	cpx	#$23
    5b23: f0 03        	beq	$5b28 <printf+0xe3>
    5b25: 4c a7 5b     	jmp	$5ba7 <printf+0x162>
    5b28: a5 5b        	lda	$5b                     ; 0x205b <textPrint+0x18f>
    5b2a: a2 04        	ldx	#$4
    5b2c: 80 02        	bra	$5b30 <printf+0xeb>
    5b2e: a2 10        	ldx	#$10
    5b30: 86 14        	stx	$14                     ; 0x2014 <textPrint+0x148>
    5b32: 80 06        	bra	$5b3a <printf+0xf5>
    5b34: a2 08        	ldx	#$8
    5b36: 86 14        	stx	$14                     ; 0x2014 <textPrint+0x148>
    5b38: a5 5b        	lda	$5b                     ; 0x205b <textPrint+0x18f>
    5b3a: 05 14        	ora	$14                     ; 0x2014 <textPrint+0x148>
    5b3c: 85 5b        	sta	$5b                     ; 0x205b <textPrint+0x18f>
    5b3e: 85 8b        	sta	$8b                     ; 0x208b <textPrint+0x1bf>
    5b40: a2 00        	ldx	#$0
    5b42: 86 8c        	stx	$8c                     ; 0x208c <textPrint+0x1c0>
    5b44: e6 12        	inc	$12                     ; 0x2012 <textPrint+0x146>
    5b46: d0 02        	bne	$5b4a <printf+0x105>
    5b48: e6 13        	inc	$13                     ; 0x2013 <textPrint+0x147>
    5b4a: b2 12        	lda	($12)                   ; 0x2012 <textPrint+0x146>
    5b4c: aa           	tax
    5b4d: 18           	clc
    5b4e: 69 d6        	adc	#$d6
    5b50: c9 07        	cmp	#$7
    5b52: b0 c7        	bcs	$5b1b <printf+0xd6>
    5b54: 86 15        	stx	$15                     ; 0x2015 <textPrint+0x149>
    5b56: 0a           	asl
    5b57: aa           	tax
    5b58: a0 01        	ldy	#$1
    5b5a: 84 14        	sty	$14                     ; 0x2014 <textPrint+0x148>
    5b5c: a5 5b        	lda	$5b                     ; 0x205b <textPrint+0x18f>
    5b5e: 7c 57 6a     	jmp	($6a57,x)               ; 0x6a57 <__set_v+0x9>
    5b61: a5 9b        	lda	$9b                     ; 0x209b <textPrint+0x1cf>
    5b63: a6 9c        	ldx	$9c                     ; 0x209c <textPrint+0x1d0>
    5b65: 85 16        	sta	$16                     ; 0x2016 <textPrint+0x14a>
    5b67: 86 17        	stx	$17                     ; 0x2017 <textPrint+0x14b>
    5b69: 18           	clc
    5b6a: 69 02        	adc	#$2
    5b6c: a8           	tay
    5b6d: 8a           	txa
    5b6e: 69 00        	adc	#$0
    5b70: 84 9b        	sty	$9b                     ; 0x209b <textPrint+0x1cf>
    5b72: 85 9c        	sta	$9c                     ; 0x209c <textPrint+0x1d0>
    5b74: b2 16        	lda	($16)                   ; 0x2016 <textPrint+0x14a>
    5b76: 85 15        	sta	$15                     ; 0x2015 <textPrint+0x149>
    5b78: a0 01        	ldy	#$1
    5b7a: b1 16        	lda	($16),y                 ; 0x2016 <textPrint+0x14a>
    5b7c: 85 14        	sta	$14                     ; 0x2014 <textPrint+0x148>
    5b7e: 10 15        	bpl	$5b95 <printf+0x150>
    5b80: a5 5b        	lda	$5b                     ; 0x205b <textPrint+0x18f>
    5b82: 09 01        	ora	#$1
    5b84: 85 5b        	sta	$5b                     ; 0x205b <textPrint+0x18f>
    5b86: 85 8b        	sta	$8b                     ; 0x208b <textPrint+0x1bf>
    5b88: a2 00        	ldx	#$0
    5b8a: 86 8c        	stx	$8c                     ; 0x208c <textPrint+0x1c0>
    5b8c: 8a           	txa
    5b8d: 38           	sec
    5b8e: e5 15        	sbc	$15                     ; 0x2015 <textPrint+0x149>
    5b90: 85 15        	sta	$15                     ; 0x2015 <textPrint+0x149>
    5b92: 8a           	txa
    5b93: e5 14        	sbc	$14                     ; 0x2014 <textPrint+0x148>
    5b95: a6 15        	ldx	$15                     ; 0x2015 <textPrint+0x149>
    5b97: 86 95        	stx	$95                     ; 0x2095 <textPrint+0x1c9>
    5b99: 85 96        	sta	$96                     ; 0x2096 <textPrint+0x1ca>
    5b9b: e6 12        	inc	$12                     ; 0x2012 <textPrint+0x146>
    5b9d: f0 03        	beq	$5ba2 <printf+0x15d>
    5b9f: 4c 5b 5c     	jmp	$5c5b <printf+0x216>
    5ba2: e6 13        	inc	$13                     ; 0x2013 <textPrint+0x147>
    5ba4: 4c 5b 5c     	jmp	$5c5b <printf+0x216>
    5ba7: a5 15        	lda	$15                     ; 0x2015 <textPrint+0x149>
    5ba9: 18           	clc
    5baa: 69 d0        	adc	#$d0
    5bac: c9 0a        	cmp	#$a
    5bae: 90 03        	bcc	$5bb3 <printf+0x16e>
    5bb0: 4c 4d 5c     	jmp	$5c4d <printf+0x208>
    5bb3: a6 15        	ldx	$15                     ; 0x2015 <textPrint+0x149>
    5bb5: 86 14        	stx	$14                     ; 0x2014 <textPrint+0x148>
    5bb7: 64 16        	stz	$16                     ; 0x2016 <textPrint+0x14a>
    5bb9: 64 15        	stz	$15                     ; 0x2015 <textPrint+0x149>
    5bbb: 64 17        	stz	$17                     ; 0x2017 <textPrint+0x14b>
    5bbd: a0 01        	ldy	#$1
    5bbf: 06 16        	asl	$16                     ; 0x2016 <textPrint+0x14a>
    5bc1: 26 17        	rol	$17                     ; 0x2017 <textPrint+0x14b>
    5bc3: a5 16        	lda	$16                     ; 0x2016 <textPrint+0x14a>
    5bc5: 0a           	asl
    5bc6: aa           	tax
    5bc7: a5 17        	lda	$17                     ; 0x2017 <textPrint+0x14b>
    5bc9: 2a           	rol
    5bca: 86 18        	stx	$18                     ; 0x2018 <textPrint+0x14c>
    5bcc: 06 18        	asl	$18                     ; 0x2018 <textPrint+0x14c>
    5bce: 2a           	rol
    5bcf: aa           	tax
    5bd0: a5 18        	lda	$18                     ; 0x2018 <textPrint+0x14c>
    5bd2: 18           	clc
    5bd3: 65 16        	adc	$16                     ; 0x2016 <textPrint+0x14a>
    5bd5: 85 16        	sta	$16                     ; 0x2016 <textPrint+0x14a>
    5bd7: 8a           	txa
    5bd8: 65 17        	adc	$17                     ; 0x2017 <textPrint+0x14b>
    5bda: 85 17        	sta	$17                     ; 0x2017 <textPrint+0x14b>
    5bdc: a5 16        	lda	$16                     ; 0x2016 <textPrint+0x14a>
    5bde: 18           	clc
    5bdf: 65 14        	adc	$14                     ; 0x2014 <textPrint+0x148>
    5be1: 85 14        	sta	$14                     ; 0x2014 <textPrint+0x148>
    5be3: a5 17        	lda	$17                     ; 0x2017 <textPrint+0x14b>
    5be5: 65 15        	adc	$15                     ; 0x2015 <textPrint+0x149>
    5be7: aa           	tax
    5be8: 18           	clc
    5be9: a5 14        	lda	$14                     ; 0x2014 <textPrint+0x148>
    5beb: 69 d0        	adc	#$d0
    5bed: 85 16        	sta	$16                     ; 0x2016 <textPrint+0x14a>
    5bef: 8a           	txa
    5bf0: 69 ff        	adc	#$ff
    5bf2: 85 17        	sta	$17                     ; 0x2017 <textPrint+0x14b>
    5bf4: b1 12        	lda	($12),y                 ; 0x2012 <textPrint+0x146>
    5bf6: 85 14        	sta	$14                     ; 0x2014 <textPrint+0x148>
    5bf8: 18           	clc
    5bf9: 69 d0        	adc	#$d0
    5bfb: e6 12        	inc	$12                     ; 0x2012 <textPrint+0x146>
    5bfd: d0 02        	bne	$5c01 <printf+0x1bc>
    5bff: e6 13        	inc	$13                     ; 0x2013 <textPrint+0x147>
    5c01: c9 0a        	cmp	#$a
    5c03: 64 15        	stz	$15                     ; 0x2015 <textPrint+0x149>
    5c05: 90 b8        	bcc	$5bbf <printf+0x17a>
    5c07: 80 4a        	bra	$5c53 <printf+0x20e>
    5c09: 84 13        	sty	$13                     ; 0x2013 <textPrint+0x147>
    5c0b: c5 8e        	cmp	$8e                     ; 0x208e <textPrint+0x1c2>
    5c0d: a0 01        	ldy	#$1
    5c0f: b0 26        	bcs	$5c37 <printf+0x1f2>
    5c11: a6 9a        	ldx	$9a                     ; 0x209a <textPrint+0x1ce>
    5c13: e4 5f        	cpx	$5f                     ; 0x205f <textPrint+0x193>
    5c15: d0 19        	bne	$5c30 <printf+0x1eb>
    5c17: a6 99        	ldx	$99                     ; 0x2099 <textPrint+0x1cd>
    5c19: e4 5e        	cpx	$5e                     ; 0x205e <textPrint+0x192>
    5c1b: d0 13        	bne	$5c30 <printf+0x1eb>
    5c1d: 18           	clc
    5c1e: aa           	tax
    5c1f: a5 13        	lda	$13                     ; 0x2013 <textPrint+0x147>
    5c21: 65 93        	adc	$93                     ; 0x2093 <textPrint+0x1c7>
    5c23: 85 12        	sta	$12                     ; 0x2012 <textPrint+0x146>
    5c25: 8a           	txa
    5c26: 65 94        	adc	$94                     ; 0x2094 <textPrint+0x1c8>
    5c28: 85 13        	sta	$13                     ; 0x2013 <textPrint+0x147>
    5c2a: a9 25        	lda	#$25
    5c2c: 92 12        	sta	($12)                   ; 0x2012 <textPrint+0x146>
    5c2e: 80 07        	bra	$5c37 <printf+0x1f2>
    5c30: a9 25        	lda	#$25
    5c32: 20 85 24     	jsr	$2485 <__putchar>
    5c35: a0 01        	ldy	#$1
    5c37: e6 8f        	inc	$8f                     ; 0x208f <textPrint+0x1c3>
    5c39: d0 02        	bne	$5c3d <printf+0x1f8>
    5c3b: e6 90        	inc	$90                     ; 0x2090 <textPrint+0x1c4>
    5c3d: a5 60        	lda	$60                     ; 0x2060 <textPrint+0x194>
    5c3f: 18           	clc
    5c40: 69 02        	adc	#$2
    5c42: 85 5c        	sta	$5c                     ; 0x205c <textPrint+0x190>
    5c44: a5 61        	lda	$61                     ; 0x2061 <textPrint+0x195>
    5c46: 69 00        	adc	#$0
    5c48: 85 5d        	sta	$5d                     ; 0x205d <textPrint+0x191>
    5c4a: 4c aa 5a     	jmp	$5aaa <printf+0x65>
    5c4d: 64 16        	stz	$16                     ; 0x2016 <textPrint+0x14a>
    5c4f: 64 17        	stz	$17                     ; 0x2017 <textPrint+0x14b>
    5c51: a0 01        	ldy	#$1
    5c53: a6 16        	ldx	$16                     ; 0x2016 <textPrint+0x14a>
    5c55: 86 95        	stx	$95                     ; 0x2095 <textPrint+0x1c9>
    5c57: a5 17        	lda	$17                     ; 0x2017 <textPrint+0x14b>
    5c59: 85 96        	sta	$96                     ; 0x2096 <textPrint+0x1ca>
    5c5b: 86 64        	stx	$64                     ; 0x2064 <textPrint+0x198>
    5c5d: 85 62        	sta	$62                     ; 0x2062 <textPrint+0x196>
    5c5f: b2 12        	lda	($12)                   ; 0x2012 <textPrint+0x146>
    5c61: a2 ff        	ldx	#$ff
    5c63: c9 2e        	cmp	#$2e
    5c65: d0 39        	bne	$5ca0 <printf+0x25b>
    5c67: b1 12        	lda	($12),y                 ; 0x2012 <textPrint+0x146>
    5c69: c9 2a        	cmp	#$2a
    5c6b: d0 38        	bne	$5ca5 <printf+0x260>
    5c6d: a5 9b        	lda	$9b                     ; 0x209b <textPrint+0x1cf>
    5c6f: a6 9c        	ldx	$9c                     ; 0x209c <textPrint+0x1d0>
    5c71: 85 14        	sta	$14                     ; 0x2014 <textPrint+0x148>
    5c73: 86 15        	stx	$15                     ; 0x2015 <textPrint+0x149>
    5c75: 18           	clc
    5c76: 69 02        	adc	#$2
    5c78: 85 16        	sta	$16                     ; 0x2016 <textPrint+0x14a>
    5c7a: 8a           	txa
    5c7b: 69 00        	adc	#$0
    5c7d: a6 16        	ldx	$16                     ; 0x2016 <textPrint+0x14a>
    5c7f: 86 9b        	stx	$9b                     ; 0x209b <textPrint+0x1cf>
    5c81: 85 9c        	sta	$9c                     ; 0x209c <textPrint+0x1d0>
    5c83: a5 12        	lda	$12                     ; 0x2012 <textPrint+0x146>
    5c85: 18           	clc
    5c86: 69 02        	adc	#$2
    5c88: 85 12        	sta	$12                     ; 0x2012 <textPrint+0x146>
    5c8a: a5 13        	lda	$13                     ; 0x2013 <textPrint+0x147>
    5c8c: 69 00        	adc	#$0
    5c8e: 85 13        	sta	$13                     ; 0x2013 <textPrint+0x147>
    5c90: b2 14        	lda	($14)                   ; 0x2014 <textPrint+0x148>
    5c92: aa           	tax
    5c93: b1 14        	lda	($14),y                 ; 0x2014 <textPrint+0x148>
    5c95: 86 18        	stx	$18                     ; 0x2018 <textPrint+0x14c>
    5c97: 86 97        	stx	$97                     ; 0x2097 <textPrint+0x1cb>
    5c99: 85 19        	sta	$19                     ; 0x2019 <textPrint+0x14d>
    5c9b: 85 98        	sta	$98                     ; 0x2098 <textPrint+0x1cc>
    5c9d: 4c 50 5d     	jmp	$5d50 <printf+0x30b>
    5ca0: 86 18        	stx	$18                     ; 0x2018 <textPrint+0x14c>
    5ca2: 4c 60 5d     	jmp	$5d60 <printf+0x31b>
    5ca5: 18           	clc
    5ca6: 85 17        	sta	$17                     ; 0x2017 <textPrint+0x14b>
    5ca8: 69 d0        	adc	#$d0
    5caa: c9 0a        	cmp	#$a
    5cac: 90 03        	bcc	$5cb1 <printf+0x26c>
    5cae: 4c 42 5d     	jmp	$5d42 <printf+0x2fd>
    5cb1: 64 16        	stz	$16                     ; 0x2016 <textPrint+0x14a>
    5cb3: a2 01        	ldx	#$1
    5cb5: 64 18        	stz	$18                     ; 0x2018 <textPrint+0x14c>
    5cb7: 64 19        	stz	$19                     ; 0x2019 <textPrint+0x14d>
    5cb9: a0 01        	ldy	#$1
    5cbb: 64 1a        	stz	$1a                     ; 0x201a <textPrint+0x14e>
    5cbd: 5a           	phy
    5cbe: a4 1a        	ldy	$1a                     ; 0x201a <textPrint+0x14e>
    5cc0: 84 14        	sty	$14                     ; 0x2014 <textPrint+0x148>
    5cc2: 86 15        	stx	$15                     ; 0x2015 <textPrint+0x149>
    5cc4: 06 18        	asl	$18                     ; 0x2018 <textPrint+0x14c>
    5cc6: 26 19        	rol	$19                     ; 0x2019 <textPrint+0x14d>
    5cc8: a5 18        	lda	$18                     ; 0x2018 <textPrint+0x14c>
    5cca: 0a           	asl
    5ccb: 85 1d        	sta	$1d                     ; 0x201d <textPrint+0x151>
    5ccd: a5 19        	lda	$19                     ; 0x2019 <textPrint+0x14d>
    5ccf: 2a           	rol
    5cd0: 06 1d        	asl	$1d                     ; 0x201d <textPrint+0x151>
    5cd2: 2a           	rol
    5cd3: 85 1e        	sta	$1e                     ; 0x201e <textPrint+0x152>
    5cd5: a5 1d        	lda	$1d                     ; 0x201d <textPrint+0x151>
    5cd7: 18           	clc
    5cd8: 65 18        	adc	$18                     ; 0x2018 <textPrint+0x14c>
    5cda: 85 18        	sta	$18                     ; 0x2018 <textPrint+0x14c>
    5cdc: a5 1e        	lda	$1e                     ; 0x201e <textPrint+0x152>
    5cde: 65 19        	adc	$19                     ; 0x2019 <textPrint+0x14d>
    5ce0: 85 19        	sta	$19                     ; 0x2019 <textPrint+0x14d>
    5ce2: a5 18        	lda	$18                     ; 0x2018 <textPrint+0x14c>
    5ce4: 18           	clc
    5ce5: 65 17        	adc	$17                     ; 0x2017 <textPrint+0x14b>
    5ce7: 85 17        	sta	$17                     ; 0x2017 <textPrint+0x14b>
    5ce9: a5 19        	lda	$19                     ; 0x2019 <textPrint+0x14d>
    5ceb: 65 16        	adc	$16                     ; 0x2016 <textPrint+0x14a>
    5ced: 85 16        	sta	$16                     ; 0x2016 <textPrint+0x14a>
    5cef: 18           	clc
    5cf0: a5 17        	lda	$17                     ; 0x2017 <textPrint+0x14b>
    5cf2: 69 d0        	adc	#$d0
    5cf4: 85 18        	sta	$18                     ; 0x2018 <textPrint+0x14c>
    5cf6: a5 16        	lda	$16                     ; 0x2016 <textPrint+0x14a>
    5cf8: 69 ff        	adc	#$ff
    5cfa: 85 19        	sta	$19                     ; 0x2019 <textPrint+0x14d>
    5cfc: e8           	inx
    5cfd: d0 02        	bne	$5d01 <printf+0x2bc>
    5cff: e6 1a        	inc	$1a                     ; 0x201a <textPrint+0x14e>
    5d01: a5 12        	lda	$12                     ; 0x2012 <textPrint+0x146>
    5d03: 18           	clc
    5d04: 65 15        	adc	$15                     ; 0x2015 <textPrint+0x149>
    5d06: 85 1d        	sta	$1d                     ; 0x201d <textPrint+0x151>
    5d08: a5 13        	lda	$13                     ; 0x2013 <textPrint+0x147>
    5d0a: 65 14        	adc	$14                     ; 0x2014 <textPrint+0x148>
    5d0c: a4 1d        	ldy	$1d                     ; 0x201d <textPrint+0x151>
    5d0e: 84 16        	sty	$16                     ; 0x2016 <textPrint+0x14a>
    5d10: 7a           	ply
    5d11: 85 17        	sta	$17                     ; 0x2017 <textPrint+0x14b>
    5d13: b1 16        	lda	($16),y                 ; 0x2016 <textPrint+0x14a>
    5d15: 85 17        	sta	$17                     ; 0x2017 <textPrint+0x14b>
    5d17: 18           	clc
    5d18: 69 d0        	adc	#$d0
    5d1a: c9 0a        	cmp	#$a
    5d1c: 64 16        	stz	$16                     ; 0x2016 <textPrint+0x14a>
    5d1e: b0 03        	bcs	$5d23 <printf+0x2de>
    5d20: 4c bd 5c     	jmp	$5cbd <printf+0x278>
    5d23: a5 12        	lda	$12                     ; 0x2012 <textPrint+0x146>
    5d25: 18           	clc
    5d26: 65 15        	adc	$15                     ; 0x2015 <textPrint+0x149>
    5d28: 85 12        	sta	$12                     ; 0x2012 <textPrint+0x146>
    5d2a: a5 13        	lda	$13                     ; 0x2013 <textPrint+0x147>
    5d2c: 65 14        	adc	$14                     ; 0x2014 <textPrint+0x148>
    5d2e: 85 13        	sta	$13                     ; 0x2013 <textPrint+0x147>
    5d30: e6 12        	inc	$12                     ; 0x2012 <textPrint+0x146>
    5d32: d0 02        	bne	$5d36 <printf+0x2f1>
    5d34: e6 13        	inc	$13                     ; 0x2013 <textPrint+0x147>
    5d36: a6 18        	ldx	$18                     ; 0x2018 <textPrint+0x14c>
    5d38: 86 97        	stx	$97                     ; 0x2097 <textPrint+0x1cb>
    5d3a: a6 19        	ldx	$19                     ; 0x2019 <textPrint+0x14d>
    5d3c: 86 98        	stx	$98                     ; 0x2098 <textPrint+0x1cc>
    5d3e: a0 01        	ldy	#$1
    5d40: 80 0e        	bra	$5d50 <printf+0x30b>
    5d42: e6 12        	inc	$12                     ; 0x2012 <textPrint+0x146>
    5d44: d0 02        	bne	$5d48 <printf+0x303>
    5d46: e6 13        	inc	$13                     ; 0x2013 <textPrint+0x147>
    5d48: 64 18        	stz	$18                     ; 0x2018 <textPrint+0x14c>
    5d4a: 64 97        	stz	$97                     ; 0x2097 <textPrint+0x1cb>
    5d4c: 64 98        	stz	$98                     ; 0x2098 <textPrint+0x1cc>
    5d4e: 64 19        	stz	$19                     ; 0x2019 <textPrint+0x14d>
    5d50: a5 5b        	lda	$5b                     ; 0x205b <textPrint+0x18f>
    5d52: 29 ef        	and	#$ef
    5d54: 85 5b        	sta	$5b                     ; 0x205b <textPrint+0x18f>
    5d56: 85 8b        	sta	$8b                     ; 0x208b <textPrint+0x1bf>
    5d58: a2 00        	ldx	#$0
    5d5a: 86 8c        	stx	$8c                     ; 0x208c <textPrint+0x1c0>
    5d5c: b2 12        	lda	($12)                   ; 0x2012 <textPrint+0x146>
    5d5e: a6 19        	ldx	$19                     ; 0x2019 <textPrint+0x14d>
    5d60: 86 14        	stx	$14                     ; 0x2014 <textPrint+0x148>
    5d62: a6 12        	ldx	$12                     ; 0x2012 <textPrint+0x146>
    5d64: 86 5c        	stx	$5c                     ; 0x205c <textPrint+0x190>
    5d66: a6 13        	ldx	$13                     ; 0x2013 <textPrint+0x147>
    5d68: 86 5d        	stx	$5d                     ; 0x205d <textPrint+0x191>
    5d6a: e6 5c        	inc	$5c                     ; 0x205c <textPrint+0x190>
    5d6c: d0 02        	bne	$5d70 <printf+0x32b>
    5d6e: e6 5d        	inc	$5d                     ; 0x205d <textPrint+0x191>
    5d70: 38           	sec
    5d71: aa           	tax
    5d72: e9 6c        	sbc	#$6c
    5d74: 50 02        	bvc	$5d78 <printf+0x333>
    5d76: 49 80        	eor	#$80
    5d78: c9 00        	cmp	#$0
    5d7a: 10 1c        	bpl	$5d98 <printf+0x353>
    5d7c: e0 4c        	cpx	#$4c
    5d7e: f0 26        	beq	$5da6 <printf+0x361>
    5d80: 8a           	txa
    5d81: e0 68        	cpx	#$68
    5d83: d0 03        	bne	$5d88 <printf+0x343>
    5d85: 4c 0d 5e     	jmp	$5e0d <printf+0x3c8>
    5d88: a2 08        	ldx	#$8
    5d8a: c9 6a        	cmp	#$6a
    5d8c: d0 2c        	bne	$5dba <printf+0x375>
    5d8e: a5 5c        	lda	$5c                     ; 0x205c <textPrint+0x190>
    5d90: 85 12        	sta	$12                     ; 0x2012 <textPrint+0x146>
    5d92: a5 5d        	lda	$5d                     ; 0x205d <textPrint+0x191>
    5d94: 85 13        	sta	$13                     ; 0x2013 <textPrint+0x147>
    5d96: 80 41        	bra	$5dd9 <printf+0x394>
    5d98: e0 6c        	cpx	#$6c
    5d9a: f0 23        	beq	$5dbf <printf+0x37a>
    5d9c: e0 74        	cpx	#$74
    5d9e: f0 12        	beq	$5db2 <printf+0x36d>
    5da0: e0 7a        	cpx	#$7a
    5da2: f0 0e        	beq	$5db2 <printf+0x36d>
    5da4: 80 14        	bra	$5dba <printf+0x375>
    5da6: a5 5b        	lda	$5b                     ; 0x205b <textPrint+0x18f>
    5da8: 09 40        	ora	#$40
    5daa: 85 5b        	sta	$5b                     ; 0x205b <textPrint+0x18f>
    5dac: 85 8b        	sta	$8b                     ; 0x208b <textPrint+0x1bf>
    5dae: a2 00        	ldx	#$0
    5db0: 86 8c        	stx	$8c                     ; 0x208c <textPrint+0x1c0>
    5db2: a6 5c        	ldx	$5c                     ; 0x205c <textPrint+0x190>
    5db4: 86 12        	stx	$12                     ; 0x2012 <textPrint+0x146>
    5db6: a6 5d        	ldx	$5d                     ; 0x205d <textPrint+0x191>
    5db8: 86 13        	stx	$13                     ; 0x2013 <textPrint+0x147>
    5dba: a2 02        	ldx	#$2
    5dbc: 8a           	txa
    5dbd: 80 1c        	bra	$5ddb <printf+0x396>
    5dbf: b1 12        	lda	($12),y                 ; 0x2012 <textPrint+0x146>
    5dc1: a2 04        	ldx	#$4
    5dc3: c9 6c        	cmp	#$6c
    5dc5: f0 03        	beq	$5dca <printf+0x385>
    5dc7: 4c 1c 61     	jmp	$611c <printf+0x6d7>
    5dca: a5 12        	lda	$12                     ; 0x2012 <textPrint+0x146>
    5dcc: 18           	clc
    5dcd: 69 02        	adc	#$2
    5dcf: 85 12        	sta	$12                     ; 0x2012 <textPrint+0x146>
    5dd1: a5 13        	lda	$13                     ; 0x2013 <textPrint+0x147>
    5dd3: 69 00        	adc	#$0
    5dd5: 85 13        	sta	$13                     ; 0x2013 <textPrint+0x147>
    5dd7: a2 08        	ldx	#$8
    5dd9: a9 08        	lda	#$8
    5ddb: 85 a0        	sta	$a0                     ; 0x20a0 <textPrint+0x1d4>
    5ddd: b2 12        	lda	($12)                   ; 0x2012 <textPrint+0x146>
    5ddf: 5a           	phy
    5de0: a4 12        	ldy	$12                     ; 0x2012 <textPrint+0x146>
    5de2: 84 5c        	sty	$5c                     ; 0x205c <textPrint+0x190>
    5de4: a4 13        	ldy	$13                     ; 0x2013 <textPrint+0x147>
    5de6: 84 5d        	sty	$5d                     ; 0x205d <textPrint+0x191>
    5de8: 7a           	ply
    5de9: 86 5e        	stx	$5e                     ; 0x205e <textPrint+0x192>
    5deb: aa           	tax
    5dec: 18           	clc
    5ded: 69 9d        	adc	#$9d
    5def: c9 16        	cmp	#$16
    5df1: b0 39        	bcs	$5e2c <printf+0x3e7>
    5df3: 0a           	asl
    5df4: aa           	tax
    5df5: 7c 65 6a     	jmp	($6a65,x)               ; 0x6a65 <__set_v+0x17>
    5df8: a6 14        	ldx	$14                     ; 0x2014 <textPrint+0x148>
    5dfa: 86 a3        	stx	$a3                     ; 0x20a3 <textPrint+0x1d7>
    5dfc: a6 18        	ldx	$18                     ; 0x2018 <textPrint+0x14c>
    5dfe: 86 a4        	stx	$a4                     ; 0x20a4 <textPrint+0x1d8>
    5e00: a0 0a        	ldy	#$a
    5e02: a2 0a        	ldx	#$a
    5e04: 86 9f        	stx	$9f                     ; 0x209f <textPrint+0x1d3>
    5e06: 84 8a        	sty	$8a                     ; 0x208a <textPrint+0x1be>
    5e08: 64 65        	stz	$65                     ; 0x2065 <textPrint+0x199>
    5e0a: 4c 2c 5f     	jmp	$5f2c <printf+0x4e7>
    5e0d: b1 12        	lda	($12),y                 ; 0x2012 <textPrint+0x146>
    5e0f: a2 02        	ldx	#$2
    5e11: c9 68        	cmp	#$68
    5e13: f0 03        	beq	$5e18 <printf+0x3d3>
    5e15: 4c 22 61     	jmp	$6122 <printf+0x6dd>
    5e18: a5 12        	lda	$12                     ; 0x2012 <textPrint+0x146>
    5e1a: 18           	clc
    5e1b: 69 02        	adc	#$2
    5e1d: 85 12        	sta	$12                     ; 0x2012 <textPrint+0x146>
    5e1f: a5 13        	lda	$13                     ; 0x2013 <textPrint+0x147>
    5e21: 69 00        	adc	#$0
    5e23: 85 13        	sta	$13                     ; 0x2013 <textPrint+0x147>
    5e25: a2 01        	ldx	#$1
    5e27: 86 a0        	stx	$a0                     ; 0x20a0 <textPrint+0x1d4>
    5e29: e8           	inx
    5e2a: 80 b1        	bra	$5ddd <printf+0x398>
    5e2c: e0 58        	cpx	#$58
    5e2e: f0 03        	beq	$5e33 <printf+0x3ee>
    5e30: 4c bc 65     	jmp	$65bc <printf+0xb77>
    5e33: a6 14        	ldx	$14                     ; 0x2014 <textPrint+0x148>
    5e35: 86 a3        	stx	$a3                     ; 0x20a3 <textPrint+0x1d7>
    5e37: a6 18        	ldx	$18                     ; 0x2018 <textPrint+0x14c>
    5e39: 86 a4        	stx	$a4                     ; 0x20a4 <textPrint+0x1d8>
    5e3b: a2 10        	ldx	#$10
    5e3d: 86 8a        	stx	$8a                     ; 0x208a <textPrint+0x1be>
    5e3f: a9 00        	lda	#$0
    5e41: 09 01        	ora	#$1
    5e43: a6 5b        	ldx	$5b                     ; 0x205b <textPrint+0x18f>
    5e45: 80 29        	bra	$5e70 <printf+0x42b>
    5e47: a6 14        	ldx	$14                     ; 0x2014 <textPrint+0x148>
    5e49: 86 a3        	stx	$a3                     ; 0x20a3 <textPrint+0x1d7>
    5e4b: a6 18        	ldx	$18                     ; 0x2018 <textPrint+0x14c>
    5e4d: 86 a4        	stx	$a4                     ; 0x20a4 <textPrint+0x1d8>
    5e4f: a2 10        	ldx	#$10
    5e51: 86 8a        	stx	$8a                     ; 0x208a <textPrint+0x1be>
    5e53: a5 5b        	lda	$5b                     ; 0x205b <textPrint+0x18f>
    5e55: 09 84        	ora	#$84
    5e57: 80 10        	bra	$5e69 <printf+0x424>
    5e59: a6 14        	ldx	$14                     ; 0x2014 <textPrint+0x148>
    5e5b: 86 a3        	stx	$a3                     ; 0x20a3 <textPrint+0x1d7>
    5e5d: a6 18        	ldx	$18                     ; 0x2018 <textPrint+0x14c>
    5e5f: 86 a4        	stx	$a4                     ; 0x20a4 <textPrint+0x1d8>
    5e61: a2 10        	ldx	#$10
    5e63: 86 8a        	stx	$8a                     ; 0x208a <textPrint+0x1be>
    5e65: a5 5b        	lda	$5b                     ; 0x205b <textPrint+0x18f>
    5e67: 09 80        	ora	#$80
    5e69: aa           	tax
    5e6a: a9 00        	lda	#$0
    5e6c: 09 01        	ora	#$1
    5e6e: 86 5b        	stx	$5b                     ; 0x205b <textPrint+0x18f>
    5e70: 86 8b        	stx	$8b                     ; 0x208b <textPrint+0x1bf>
    5e72: 85 65        	sta	$65                     ; 0x2065 <textPrint+0x199>
    5e74: 85 8c        	sta	$8c                     ; 0x208c <textPrint+0x1c0>
    5e76: a2 10        	ldx	#$10
    5e78: 86 9f        	stx	$9f                     ; 0x209f <textPrint+0x1d3>
    5e7a: 4c 2c 5f     	jmp	$5f2c <printf+0x4e7>
    5e7d: a5 9b        	lda	$9b                     ; 0x209b <textPrint+0x1cf>
    5e7f: a6 9c        	ldx	$9c                     ; 0x209c <textPrint+0x1d0>
    5e81: 85 12        	sta	$12                     ; 0x2012 <textPrint+0x146>
    5e83: 86 13        	stx	$13                     ; 0x2013 <textPrint+0x147>
    5e85: 18           	clc
    5e86: 69 02        	adc	#$2
    5e88: 85 14        	sta	$14                     ; 0x2014 <textPrint+0x148>
    5e8a: 8a           	txa
    5e8b: 69 00        	adc	#$0
    5e8d: a6 14        	ldx	$14                     ; 0x2014 <textPrint+0x148>
    5e8f: 86 9b        	stx	$9b                     ; 0x209b <textPrint+0x1cf>
    5e91: 85 9c        	sta	$9c                     ; 0x209c <textPrint+0x1d0>
    5e93: b2 12        	lda	($12)                   ; 0x2012 <textPrint+0x146>
    5e95: aa           	tax
    5e96: b1 12        	lda	($12),y                 ; 0x2012 <textPrint+0x146>
    5e98: 86 12        	stx	$12                     ; 0x2012 <textPrint+0x146>
    5e9a: 85 13        	sta	$13                     ; 0x2013 <textPrint+0x147>
    5e9c: a5 8f        	lda	$8f                     ; 0x208f <textPrint+0x1c3>
    5e9e: a6 90        	ldx	$90                     ; 0x2090 <textPrint+0x1c4>
    5ea0: 92 12        	sta	($12)                   ; 0x2012 <textPrint+0x146>
    5ea2: 8a           	txa
    5ea3: 91 12        	sta	($12),y                 ; 0x2012 <textPrint+0x146>
    5ea5: 4c 05 5f     	jmp	$5f05 <printf+0x4c0>
    5ea8: a5 9b        	lda	$9b                     ; 0x209b <textPrint+0x1cf>
    5eaa: a6 9c        	ldx	$9c                     ; 0x209c <textPrint+0x1d0>
    5eac: 85 12        	sta	$12                     ; 0x2012 <textPrint+0x146>
    5eae: 86 13        	stx	$13                     ; 0x2013 <textPrint+0x147>
    5eb0: 18           	clc
    5eb1: 69 02        	adc	#$2
    5eb3: 85 14        	sta	$14                     ; 0x2014 <textPrint+0x148>
    5eb5: 8a           	txa
    5eb6: 69 00        	adc	#$0
    5eb8: a6 14        	ldx	$14                     ; 0x2014 <textPrint+0x148>
    5eba: 86 9b        	stx	$9b                     ; 0x209b <textPrint+0x1cf>
    5ebc: 85 9c        	sta	$9c                     ; 0x209c <textPrint+0x1d0>
    5ebe: b2 12        	lda	($12)                   ; 0x2012 <textPrint+0x146>
    5ec0: aa           	tax
    5ec1: b1 12        	lda	($12),y                 ; 0x2012 <textPrint+0x146>
    5ec3: 86 12        	stx	$12                     ; 0x2012 <textPrint+0x146>
    5ec5: 85 13        	sta	$13                     ; 0x2013 <textPrint+0x147>
    5ec7: 80 2f        	bra	$5ef8 <printf+0x4b3>
    5ec9: a6 14        	ldx	$14                     ; 0x2014 <textPrint+0x148>
    5ecb: 86 a3        	stx	$a3                     ; 0x20a3 <textPrint+0x1d7>
    5ecd: a6 18        	ldx	$18                     ; 0x2018 <textPrint+0x14c>
    5ecf: 86 a4        	stx	$a4                     ; 0x20a4 <textPrint+0x1d8>
    5ed1: a0 08        	ldy	#$8
    5ed3: a2 08        	ldx	#$8
    5ed5: 80 45        	bra	$5f1c <printf+0x4d7>
    5ed7: a5 9b        	lda	$9b                     ; 0x209b <textPrint+0x1cf>
    5ed9: a6 9c        	ldx	$9c                     ; 0x209c <textPrint+0x1d0>
    5edb: 85 12        	sta	$12                     ; 0x2012 <textPrint+0x146>
    5edd: 86 13        	stx	$13                     ; 0x2013 <textPrint+0x147>
    5edf: 18           	clc
    5ee0: 69 02        	adc	#$2
    5ee2: a8           	tay
    5ee3: 8a           	txa
    5ee4: 69 00        	adc	#$0
    5ee6: 84 9b        	sty	$9b                     ; 0x209b <textPrint+0x1cf>
    5ee8: 85 9c        	sta	$9c                     ; 0x209c <textPrint+0x1d0>
    5eea: b2 12        	lda	($12)                   ; 0x2012 <textPrint+0x146>
    5eec: 85 7d        	sta	$7d                     ; 0x207d <textPrint+0x1b1>
    5eee: 64 7e        	stz	$7e                     ; 0x207e <textPrint+0x1b2>
    5ef0: a2 7d        	ldx	#$7d
    5ef2: 86 12        	stx	$12                     ; 0x2012 <textPrint+0x146>
    5ef4: a2 00        	ldx	#$0
    5ef6: 86 13        	stx	$13                     ; 0x2013 <textPrint+0x147>
    5ef8: a2 8a        	ldx	#$8a
    5efa: 86 14        	stx	$14                     ; 0x2014 <textPrint+0x148>
    5efc: a2 00        	ldx	#$0
    5efe: 86 15        	stx	$15                     ; 0x2015 <textPrint+0x149>
    5f00: 20 39 59     	jsr	$5939 <_ZN12_GLOBAL__N_112print_stringEPKcP6Status>
    5f03: a0 01        	ldy	#$1
    5f05: a2 00        	ldx	#$0
    5f07: 86 5e        	stx	$5e                     ; 0x205e <textPrint+0x192>
    5f09: a2 00        	ldx	#$0
    5f0b: 86 5f        	stx	$5f                     ; 0x205f <textPrint+0x193>
    5f0d: 4c a4 65     	jmp	$65a4 <printf+0xb5f>
    5f10: a6 14        	ldx	$14                     ; 0x2014 <textPrint+0x148>
    5f12: 86 a3        	stx	$a3                     ; 0x20a3 <textPrint+0x1d7>
    5f14: a6 18        	ldx	$18                     ; 0x2018 <textPrint+0x14c>
    5f16: 86 a4        	stx	$a4                     ; 0x20a4 <textPrint+0x1d8>
    5f18: a0 0a        	ldy	#$a
    5f1a: a2 0a        	ldx	#$a
    5f1c: 86 9f        	stx	$9f                     ; 0x209f <textPrint+0x1d3>
    5f1e: 84 8a        	sty	$8a                     ; 0x208a <textPrint+0x1be>
    5f20: a9 00        	lda	#$0
    5f22: 09 01        	ora	#$1
    5f24: a6 5b        	ldx	$5b                     ; 0x205b <textPrint+0x18f>
    5f26: 86 8b        	stx	$8b                     ; 0x208b <textPrint+0x1bf>
    5f28: 85 65        	sta	$65                     ; 0x2065 <textPrint+0x199>
    5f2a: 85 8c        	sta	$8c                     ; 0x208c <textPrint+0x1c0>
    5f2c: a5 a0        	lda	$a0                     ; 0x20a0 <textPrint+0x1d4>
    5f2e: 85 7f        	sta	$7f                     ; 0x207f <textPrint+0x1b3>
    5f30: a4 9b        	ldy	$9b                     ; 0x209b <textPrint+0x1cf>
    5f32: a6 9c        	ldx	$9c                     ; 0x209c <textPrint+0x1d0>
    5f34: 86 63        	stx	$63                     ; 0x2063 <textPrint+0x197>
    5f36: 84 14        	sty	$14                     ; 0x2014 <textPrint+0x148>
    5f38: 84 5a        	sty	$5a                     ; 0x205a <textPrint+0x18e>
    5f3a: 86 15        	stx	$15                     ; 0x2015 <textPrint+0x149>
    5f3c: a6 a1        	ldx	$a1                     ; 0x20a1 <textPrint+0x1d5>
    5f3e: 86 12        	stx	$12                     ; 0x2012 <textPrint+0x146>
    5f40: a6 a2        	ldx	$a2                     ; 0x20a2 <textPrint+0x1d6>
    5f42: 86 13        	stx	$13                     ; 0x2013 <textPrint+0x147>
    5f44: a2 00        	ldx	#$0
    5f46: 85 5f        	sta	$5f                     ; 0x205f <textPrint+0x193>
    5f48: 20 60 69     	jsr	$6960 <memcpy>
    5f4b: 18           	clc
    5f4c: a5 5a        	lda	$5a                     ; 0x205a <textPrint+0x18e>
    5f4e: 65 5e        	adc	$5e                     ; 0x205e <textPrint+0x192>
    5f50: aa           	tax
    5f51: a5 63        	lda	$63                     ; 0x2063 <textPrint+0x197>
    5f53: 69 00        	adc	#$0
    5f55: 86 9b        	stx	$9b                     ; 0x209b <textPrint+0x1cf>
    5f57: 85 9c        	sta	$9c                     ; 0x209c <textPrint+0x1d0>
    5f59: a5 65        	lda	$65                     ; 0x2065 <textPrint+0x199>
    5f5b: 29 01        	and	#$1
    5f5d: b8           	clv
    5f5e: f0 03        	beq	$5f63 <printf+0x51e>
    5f60: 4c b7 5f     	jmp	$5fb7 <printf+0x572>
    5f63: a6 5f        	ldx	$5f                     ; 0x205f <textPrint+0x193>
    5f65: b5 7f        	lda	$7f,x                   ; 0x207f <textPrint+0x1b3>
    5f67: aa           	tax
    5f68: a0 01        	ldy	#$1
    5f6a: a5 62        	lda	$62                     ; 0x2062 <textPrint+0x196>
    5f6c: 85 1a        	sta	$1a                     ; 0x201a <textPrint+0x14e>
    5f6e: a5 a4        	lda	$a4                     ; 0x20a4 <textPrint+0x1d8>
    5f70: 85 62        	sta	$62                     ; 0x2062 <textPrint+0x196>
    5f72: a9 00        	lda	#$0
    5f74: 85 5e        	sta	$5e                     ; 0x205e <textPrint+0x192>
    5f76: a9 00        	lda	#$0
    5f78: 85 5f        	sta	$5f                     ; 0x205f <textPrint+0x193>
    5f7a: a5 a3        	lda	$a3                     ; 0x20a3 <textPrint+0x1d7>
    5f7c: 85 63        	sta	$63                     ; 0x2063 <textPrint+0x197>
    5f7e: 8a           	txa
    5f7f: 10 4c        	bpl	$5fcd <printf+0x588>
    5f81: a2 00        	ldx	#$0
    5f83: 64 12        	stz	$12                     ; 0x2012 <textPrint+0x146>
    5f85: a9 00        	lda	#$0
    5f87: 38           	sec
    5f88: f5 80        	sbc	$80,x                   ; 0x2080 <textPrint+0x1b4>
    5f8a: a0 00        	ldy	#$0
    5f8c: b0 02        	bcs	$5f90 <printf+0x54b>
    5f8e: a0 01        	ldy	#$1
    5f90: 38           	sec
    5f91: e5 12        	sbc	$12                     ; 0x2012 <textPrint+0x146>
    5f93: 85 13        	sta	$13                     ; 0x2013 <textPrint+0x147>
    5f95: 64 12        	stz	$12                     ; 0x2012 <textPrint+0x146>
    5f97: b0 04        	bcs	$5f9d <printf+0x558>
    5f99: a9 01        	lda	#$1
    5f9b: 85 12        	sta	$12                     ; 0x2012 <textPrint+0x146>
    5f9d: 98           	tya
    5f9e: 05 12        	ora	$12                     ; 0x2012 <textPrint+0x146>
    5fa0: 85 12        	sta	$12                     ; 0x2012 <textPrint+0x146>
    5fa2: a5 13        	lda	$13                     ; 0x2013 <textPrint+0x147>
    5fa4: 9d 80 00     	sta	$80,x                   ; 0x80 <__rc31+0x51>
    5fa7: e8           	inx
    5fa8: 86 13        	stx	$13                     ; 0x2013 <textPrint+0x147>
    5faa: a4 a0        	ldy	$a0                     ; 0x20a0 <textPrint+0x1d4>
    5fac: c4 13        	cpy	$13                     ; 0x2013 <textPrint+0x147>
    5fae: d0 d5        	bne	$5f85 <printf+0x540>
    5fb0: 2c 4e 6a     	bit	$6a4e                   ; 0x6a4e <__set_v>
    5fb3: a0 01        	ldy	#$1
    5fb5: 80 16        	bra	$5fcd <printf+0x588>
    5fb7: a0 01        	ldy	#$1
    5fb9: a6 62        	ldx	$62                     ; 0x2062 <textPrint+0x196>
    5fbb: 86 1a        	stx	$1a                     ; 0x201a <textPrint+0x14e>
    5fbd: a6 a4        	ldx	$a4                     ; 0x20a4 <textPrint+0x1d8>
    5fbf: 86 62        	stx	$62                     ; 0x2062 <textPrint+0x196>
    5fc1: a2 00        	ldx	#$0
    5fc3: 86 5e        	stx	$5e                     ; 0x205e <textPrint+0x192>
    5fc5: a2 00        	ldx	#$0
    5fc7: 86 5f        	stx	$5f                     ; 0x205f <textPrint+0x193>
    5fc9: a6 a3        	ldx	$a3                     ; 0x20a3 <textPrint+0x1d7>
    5fcb: 86 63        	stx	$63                     ; 0x2063 <textPrint+0x197>
    5fcd: a2 01        	ldx	#$1
    5fcf: 70 02        	bvs	$5fd3 <printf+0x58e>
    5fd1: a2 00        	ldx	#$0
    5fd3: 86 16        	stx	$16                     ; 0x2016 <textPrint+0x14a>
    5fd5: a5 a0        	lda	$a0                     ; 0x20a0 <textPrint+0x1d4>
    5fd7: 0a           	asl
    5fd8: 0a           	asl
    5fd9: 0a           	asl
    5fda: 85 12        	sta	$12                     ; 0x2012 <textPrint+0x146>
    5fdc: a2 00        	ldx	#$0
    5fde: 8a           	txa
    5fdf: e0 00        	cpx	#$0
    5fe1: d0 03        	bne	$5fe6 <printf+0x5a1>
    5fe3: 4c 6b 60     	jmp	$606b <printf+0x626>
    5fe6: 85 17        	sta	$17                     ; 0x2017 <textPrint+0x14b>
    5fe8: 86 5a        	stx	$5a                     ; 0x205a <textPrint+0x18e>
    5fea: ca           	dex
    5feb: 86 15        	stx	$15                     ; 0x2015 <textPrint+0x149>
    5fed: a2 00        	ldx	#$0
    5fef: 64 13        	stz	$13                     ; 0x2013 <textPrint+0x147>
    5ff1: 80 0d        	bra	$6000 <printf+0x5bb>
    5ff3: a4 13        	ldy	$13                     ; 0x2013 <textPrint+0x147>
    5ff5: 99 68 00     	sta	$68,y                   ; 0x68 <__rc31+0x39>
    5ff8: a4 15        	ldy	$15                     ; 0x2015 <textPrint+0x149>
    5ffa: c4 13        	cpy	$13                     ; 0x2013 <textPrint+0x147>
    5ffc: f0 38        	beq	$6036 <printf+0x5f1>
    5ffe: e6 13        	inc	$13                     ; 0x2013 <textPrint+0x147>
    6000: a4 13        	ldy	$13                     ; 0x2013 <textPrint+0x147>
    6002: b9 68 00     	lda	$68,y                   ; 0x68 <__rc31+0x39>
    6005: 0a           	asl
    6006: e0 00        	cpx	#$0
    6008: f0 02        	beq	$600c <printf+0x5c7>
    600a: 09 01        	ora	#$1
    600c: a4 9f        	ldy	$9f                     ; 0x209f <textPrint+0x1d3>
    600e: 84 14        	sty	$14                     ; 0x2014 <textPrint+0x148>
    6010: c5 14        	cmp	$14                     ; 0x2014 <textPrint+0x148>
    6012: a2 01        	ldx	#$1
    6014: b0 02        	bcs	$6018 <printf+0x5d3>
    6016: a2 00        	ldx	#$0
    6018: 90 d9        	bcc	$5ff3 <printf+0x5ae>
    601a: 84 14        	sty	$14                     ; 0x2014 <textPrint+0x148>
    601c: 38           	sec
    601d: e5 14        	sbc	$14                     ; 0x2014 <textPrint+0x148>
    601f: a4 13        	ldy	$13                     ; 0x2013 <textPrint+0x147>
    6021: 99 68 00     	sta	$68,y                   ; 0x68 <__rc31+0x39>
    6024: a4 15        	ldy	$15                     ; 0x2015 <textPrint+0x149>
    6026: c4 13        	cpy	$13                     ; 0x2013 <textPrint+0x147>
    6028: d0 d4        	bne	$5ffe <printf+0x5b9>
    602a: a4 5a        	ldy	$5a                     ; 0x205a <textPrint+0x18e>
    602c: a6 5a        	ldx	$5a                     ; 0x205a <textPrint+0x18e>
    602e: e8           	inx
    602f: a9 01        	lda	#$1
    6031: 99 68 00     	sta	$68,y                   ; 0x68 <__rc31+0x39>
    6034: 86 5a        	stx	$5a                     ; 0x205a <textPrint+0x18e>
    6036: a6 a0        	ldx	$a0                     ; 0x20a0 <textPrint+0x1d4>
    6038: b5 7f        	lda	$7f,x                   ; 0x207f <textPrint+0x1b3>
    603a: aa           	tax
    603b: a0 01        	ldy	#$1
    603d: 8a           	txa
    603e: 10 47        	bpl	$6087 <printf+0x642>
    6040: a5 5a        	lda	$5a                     ; 0x205a <textPrint+0x18e>
    6042: f0 34        	beq	$6078 <printf+0x633>
    6044: a2 00        	ldx	#$0
    6046: a4 9f        	ldy	$9f                     ; 0x209f <textPrint+0x1d3>
    6048: 84 14        	sty	$14                     ; 0x2014 <textPrint+0x148>
    604a: b5 68        	lda	$68,x                   ; 0x2068 <textPrint+0x19c>
    604c: 1a           	inc
    604d: f6 68        	inc	$68,x                   ; 0x2068 <textPrint+0x19c>
    604f: c5 14        	cmp	$14                     ; 0x2014 <textPrint+0x148>
    6051: b0 03        	bcs	$6056 <printf+0x611>
    6053: 4c b2 60     	jmp	$60b2 <printf+0x66d>
    6056: a4 14        	ldy	$14                     ; 0x2014 <textPrint+0x148>
    6058: 84 13        	sty	$13                     ; 0x2013 <textPrint+0x147>
    605a: 38           	sec
    605b: e5 13        	sbc	$13                     ; 0x2013 <textPrint+0x147>
    605d: 9d 68 00     	sta	$68,x                   ; 0x68 <__rc31+0x39>
    6060: e8           	inx
    6061: 86 13        	stx	$13                     ; 0x2013 <textPrint+0x147>
    6063: a4 5a        	ldy	$5a                     ; 0x205a <textPrint+0x18e>
    6065: c4 13        	cpy	$13                     ; 0x2013 <textPrint+0x147>
    6067: d0 e1        	bne	$604a <printf+0x605>
    6069: 80 0f        	bra	$607a <printf+0x635>
    606b: 85 17        	sta	$17                     ; 0x2017 <textPrint+0x14b>
    606d: a6 a0        	ldx	$a0                     ; 0x20a0 <textPrint+0x1d4>
    606f: b5 7f        	lda	$7f,x                   ; 0x207f <textPrint+0x1b3>
    6071: aa           	tax
    6072: 64 5a        	stz	$5a                     ; 0x205a <textPrint+0x18e>
    6074: 30 04        	bmi	$607a <printf+0x635>
    6076: 80 0f        	bra	$6087 <printf+0x642>
    6078: 64 5a        	stz	$5a                     ; 0x205a <textPrint+0x18e>
    607a: a4 5a        	ldy	$5a                     ; 0x205a <textPrint+0x18e>
    607c: a6 5a        	ldx	$5a                     ; 0x205a <textPrint+0x18e>
    607e: e8           	inx
    607f: a9 01        	lda	#$1
    6081: 99 68 00     	sta	$68,y                   ; 0x68 <__rc31+0x39>
    6084: a8           	tay
    6085: 86 5a        	stx	$5a                     ; 0x205a <textPrint+0x18e>
    6087: a2 01        	ldx	#$1
    6089: 64 13        	stz	$13                     ; 0x2013 <textPrint+0x147>
    608b: a5 a0        	lda	$a0                     ; 0x20a0 <textPrint+0x1d4>
    608d: 85 14        	sta	$14                     ; 0x2014 <textPrint+0x148>
    608f: b5 7f        	lda	$7f,x                   ; 0x207f <textPrint+0x1b3>
    6091: 0a           	asl
    6092: 64 15        	stz	$15                     ; 0x2015 <textPrint+0x149>
    6094: 26 15        	rol	$15                     ; 0x2015 <textPrint+0x149>
    6096: 05 13        	ora	$13                     ; 0x2013 <textPrint+0x147>
    6098: 9d 7f 00     	sta	$7f,x                   ; 0x7f <__rc31+0x50>
    609b: e8           	inx
    609c: c6 14        	dec	$14                     ; 0x2014 <textPrint+0x148>
    609e: a5 15        	lda	$15                     ; 0x2015 <textPrint+0x149>
    60a0: 85 13        	sta	$13                     ; 0x2013 <textPrint+0x147>
    60a2: a5 14        	lda	$14                     ; 0x2014 <textPrint+0x148>
    60a4: d0 e9        	bne	$608f <printf+0x64a>
    60a6: a5 17        	lda	$17                     ; 0x2017 <textPrint+0x14b>
    60a8: 1a           	inc
    60a9: c5 12        	cmp	$12                     ; 0x2012 <textPrint+0x146>
    60ab: a6 5a        	ldx	$5a                     ; 0x205a <textPrint+0x18e>
    60ad: b0 07        	bcs	$60b6 <printf+0x671>
    60af: 4c df 5f     	jmp	$5fdf <printf+0x59a>
    60b2: a0 01        	ldy	#$1
    60b4: 80 d1        	bra	$6087 <printf+0x642>
    60b6: a5 5b        	lda	$5b                     ; 0x205b <textPrint+0x18f>
    60b8: e6 63        	inc	$63                     ; 0x2063 <textPrint+0x197>
    60ba: c6 63        	dec	$63                     ; 0x2063 <textPrint+0x197>
    60bc: 10 08        	bpl	$60c6 <printf+0x681>
    60be: a2 01        	ldx	#$1
    60c0: 64 63        	stz	$63                     ; 0x2063 <textPrint+0x197>
    60c2: 86 62        	stx	$62                     ; 0x2062 <textPrint+0x196>
    60c4: a6 5a        	ldx	$5a                     ; 0x205a <textPrint+0x18e>
    60c6: 29 04        	and	#$4
    60c8: f0 2b        	beq	$60f5 <printf+0x6b0>
    60ca: a5 9f        	lda	$9f                     ; 0x209f <textPrint+0x1d3>
    60cc: c9 10        	cmp	#$10
    60ce: f0 14        	beq	$60e4 <printf+0x69f>
    60d0: c9 08        	cmp	#$8
    60d2: d0 21        	bne	$60f5 <printf+0x6b0>
    60d4: a2 00        	ldx	#$0
    60d6: e4 63        	cpx	$63                     ; 0x2063 <textPrint+0x197>
    60d8: f0 03        	beq	$60dd <printf+0x698>
    60da: 4c c9 65     	jmp	$65c9 <printf+0xb84>
    60dd: a6 5a        	ldx	$5a                     ; 0x205a <textPrint+0x18e>
    60df: e4 62        	cpx	$62                     ; 0x2062 <textPrint+0x196>
    60e1: 4c cb 65     	jmp	$65cb <printf+0xb86>
    60e4: 8a           	txa
    60e5: f0 0e        	beq	$60f5 <printf+0x6b0>
    60e7: a5 5b        	lda	$5b                     ; 0x205b <textPrint+0x18f>
    60e9: 29 80        	and	#$80
    60eb: d0 03        	bne	$60f0 <printf+0x6ab>
    60ed: 4c e4 65     	jmp	$65e4 <printf+0xb9f>
    60f0: a2 78        	ldx	#$78
    60f2: 4c e6 65     	jmp	$65e6 <printf+0xba1>
    60f5: a6 5b        	ldx	$5b                     ; 0x205b <textPrint+0x18f>
    60f7: a9 2d        	lda	#$2d
    60f9: 85 a3        	sta	$a3                     ; 0x20a3 <textPrint+0x1d7>
    60fb: a5 16        	lda	$16                     ; 0x2016 <textPrint+0x14a>
    60fd: d0 32        	bne	$6131 <printf+0x6ec>
    60ff: 86 12        	stx	$12                     ; 0x2012 <textPrint+0x146>
    6101: 8a           	txa
    6102: 29 02        	and	#$2
    6104: a2 2b        	ldx	#$2b
    6106: 86 a3        	stx	$a3                     ; 0x20a3 <textPrint+0x1d7>
    6108: aa           	tax
    6109: d0 26        	bne	$6131 <printf+0x6ec>
    610b: a5 12        	lda	$12                     ; 0x2012 <textPrint+0x146>
    610d: 29 08        	and	#$8
    610f: d0 1c        	bne	$612d <printf+0x6e8>
    6111: a2 01        	ldx	#$1
    6113: 86 a0        	stx	$a0                     ; 0x20a0 <textPrint+0x1d4>
    6115: a9 00        	lda	#$0
    6117: aa           	tax
    6118: 86 9f        	stx	$9f                     ; 0x209f <textPrint+0x1d3>
    611a: 80 1c        	bra	$6138 <printf+0x6f3>
    611c: 85 12        	sta	$12                     ; 0x2012 <textPrint+0x146>
    611e: a9 04        	lda	#$4
    6120: 80 04        	bra	$6126 <printf+0x6e1>
    6122: 85 12        	sta	$12                     ; 0x2012 <textPrint+0x146>
    6124: a9 02        	lda	#$2
    6126: 85 a0        	sta	$a0                     ; 0x20a0 <textPrint+0x1d4>
    6128: a5 12        	lda	$12                     ; 0x2012 <textPrint+0x146>
    612a: 4c e9 5d     	jmp	$5de9 <printf+0x3a4>
    612d: a2 20        	ldx	#$20
    612f: 86 a3        	stx	$a3                     ; 0x20a3 <textPrint+0x1d7>
    6131: a2 00        	ldx	#$0
    6133: 86 a0        	stx	$a0                     ; 0x20a0 <textPrint+0x1d4>
    6135: 86 9f        	stx	$9f                     ; 0x209f <textPrint+0x1d3>
    6137: 98           	tya
    6138: a6 63        	ldx	$63                     ; 0x2063 <textPrint+0x197>
    613a: d0 35        	bne	$6171 <printf+0x72c>
    613c: a6 62        	ldx	$62                     ; 0x2062 <textPrint+0x196>
    613e: a4 5a        	ldy	$5a                     ; 0x205a <textPrint+0x18e>
    6140: 84 12        	sty	$12                     ; 0x2012 <textPrint+0x146>
    6142: e4 12        	cpx	$12                     ; 0x2012 <textPrint+0x146>
    6144: a6 62        	ldx	$62                     ; 0x2062 <textPrint+0x196>
    6146: 86 12        	stx	$12                     ; 0x2012 <textPrint+0x146>
    6148: a6 63        	ldx	$63                     ; 0x2063 <textPrint+0x197>
    614a: 86 13        	stx	$13                     ; 0x2013 <textPrint+0x147>
    614c: b0 04        	bcs	$6152 <printf+0x70d>
    614e: 84 12        	sty	$12                     ; 0x2012 <textPrint+0x146>
    6150: 64 13        	stz	$13                     ; 0x2013 <textPrint+0x147>
    6152: 85 18        	sta	$18                     ; 0x2018 <textPrint+0x14c>
    6154: 18           	clc
    6155: 65 12        	adc	$12                     ; 0x2012 <textPrint+0x146>
    6157: 85 16        	sta	$16                     ; 0x2016 <textPrint+0x14a>
    6159: 85 14        	sta	$14                     ; 0x2014 <textPrint+0x148>
    615b: a5 13        	lda	$13                     ; 0x2013 <textPrint+0x147>
    615d: 69 00        	adc	#$0
    615f: 85 15        	sta	$15                     ; 0x2015 <textPrint+0x149>
    6161: c5 1a        	cmp	$1a                     ; 0x201a <textPrint+0x14e>
    6163: d0 1e        	bne	$6183 <printf+0x73e>
    6165: a6 1a        	ldx	$1a                     ; 0x201a <textPrint+0x14e>
    6167: 86 17        	stx	$17                     ; 0x2017 <textPrint+0x14b>
    6169: a6 64        	ldx	$64                     ; 0x2064 <textPrint+0x198>
    616b: a5 16        	lda	$16                     ; 0x2016 <textPrint+0x14a>
    616d: c5 64        	cmp	$64                     ; 0x2064 <textPrint+0x198>
    616f: 80 1c        	bra	$618d <printf+0x748>
    6171: a6 63        	ldx	$63                     ; 0x2063 <textPrint+0x197>
    6173: e0 00        	cpx	#$0
    6175: a6 62        	ldx	$62                     ; 0x2062 <textPrint+0x196>
    6177: 86 12        	stx	$12                     ; 0x2012 <textPrint+0x146>
    6179: a6 63        	ldx	$63                     ; 0x2063 <textPrint+0x197>
    617b: 86 13        	stx	$13                     ; 0x2013 <textPrint+0x147>
    617d: a4 5a        	ldy	$5a                     ; 0x205a <textPrint+0x18e>
    617f: 90 cd        	bcc	$614e <printf+0x709>
    6181: 80 cf        	bra	$6152 <printf+0x70d>
    6183: a6 64        	ldx	$64                     ; 0x2064 <textPrint+0x198>
    6185: 5a           	phy
    6186: a4 1a        	ldy	$1a                     ; 0x201a <textPrint+0x14e>
    6188: 84 17        	sty	$17                     ; 0x2017 <textPrint+0x14b>
    618a: 7a           	ply
    618b: c5 1a        	cmp	$1a                     ; 0x201a <textPrint+0x14e>
    618d: 64 65        	stz	$65                     ; 0x2065 <textPrint+0x199>
    618f: 64 64        	stz	$64                     ; 0x2064 <textPrint+0x198>
    6191: 90 03        	bcc	$6196 <printf+0x751>
    6193: 4c 2c 62     	jmp	$622c <printf+0x7e7>
    6196: a5 5b        	lda	$5b                     ; 0x205b <textPrint+0x18f>
    6198: 29 11        	and	#$11
    619a: 86 16        	stx	$16                     ; 0x2016 <textPrint+0x14a>
    619c: f0 0f        	beq	$61ad <printf+0x768>
    619e: 8a           	txa
    619f: 38           	sec
    61a0: e5 14        	sbc	$14                     ; 0x2014 <textPrint+0x148>
    61a2: 85 65        	sta	$65                     ; 0x2065 <textPrint+0x199>
    61a4: a5 1a        	lda	$1a                     ; 0x201a <textPrint+0x14e>
    61a6: e5 15        	sbc	$15                     ; 0x2015 <textPrint+0x149>
    61a8: 85 64        	sta	$64                     ; 0x2064 <textPrint+0x198>
    61aa: 4c 2c 62     	jmp	$622c <printf+0x7e7>
    61ad: a6 8f        	ldx	$8f                     ; 0x208f <textPrint+0x1c3>
    61af: 86 14        	stx	$14                     ; 0x2014 <textPrint+0x148>
    61b1: 38           	sec
    61b2: a5 18        	lda	$18                     ; 0x2018 <textPrint+0x14c>
    61b4: e5 16        	sbc	$16                     ; 0x2016 <textPrint+0x14a>
    61b6: a8           	tay
    61b7: a9 00        	lda	#$0
    61b9: e5 17        	sbc	$17                     ; 0x2017 <textPrint+0x14b>
    61bb: aa           	tax
    61bc: 18           	clc
    61bd: 98           	tya
    61be: 65 12        	adc	$12                     ; 0x2012 <textPrint+0x146>
    61c0: 85 5b        	sta	$5b                     ; 0x205b <textPrint+0x18f>
    61c2: 8a           	txa
    61c3: 65 13        	adc	$13                     ; 0x2013 <textPrint+0x147>
    61c5: 85 64        	sta	$64                     ; 0x2064 <textPrint+0x198>
    61c7: a5 90        	lda	$90                     ; 0x2090 <textPrint+0x1c4>
    61c9: 80 4c        	bra	$6217 <printf+0x7d2>
    61cb: c5 8e        	cmp	$8e                     ; 0x208e <textPrint+0x1c2>
    61cd: a4 64        	ldy	$64                     ; 0x2064 <textPrint+0x198>
    61cf: b0 26        	bcs	$61f7 <printf+0x7b2>
    61d1: a6 9a        	ldx	$9a                     ; 0x209a <textPrint+0x1ce>
    61d3: e4 5f        	cpx	$5f                     ; 0x205f <textPrint+0x193>
    61d5: d0 19        	bne	$61f0 <printf+0x7ab>
    61d7: a6 99        	ldx	$99                     ; 0x2099 <textPrint+0x1cd>
    61d9: e4 5e        	cpx	$5e                     ; 0x205e <textPrint+0x192>
    61db: d0 13        	bne	$61f0 <printf+0x7ab>
    61dd: 18           	clc
    61de: aa           	tax
    61df: a5 14        	lda	$14                     ; 0x2014 <textPrint+0x148>
    61e1: 65 93        	adc	$93                     ; 0x2093 <textPrint+0x1c7>
    61e3: 85 12        	sta	$12                     ; 0x2012 <textPrint+0x146>
    61e5: 8a           	txa
    61e6: 65 94        	adc	$94                     ; 0x2094 <textPrint+0x1c8>
    61e8: 85 13        	sta	$13                     ; 0x2013 <textPrint+0x147>
    61ea: a9 20        	lda	#$20
    61ec: 92 12        	sta	($12)                   ; 0x2012 <textPrint+0x146>
    61ee: 80 05        	bra	$61f5 <printf+0x7b0>
    61f0: a9 20        	lda	#$20
    61f2: 20 85 24     	jsr	$2485 <__putchar>
    61f5: a4 64        	ldy	$64                     ; 0x2064 <textPrint+0x198>
    61f7: a6 8f        	ldx	$8f                     ; 0x208f <textPrint+0x1c3>
    61f9: a5 90        	lda	$90                     ; 0x2090 <textPrint+0x1c4>
    61fb: e8           	inx
    61fc: d0 01        	bne	$61ff <printf+0x7ba>
    61fe: 1a           	inc
    61ff: 86 14        	stx	$14                     ; 0x2014 <textPrint+0x148>
    6201: 86 8f        	stx	$8f                     ; 0x208f <textPrint+0x1c3>
    6203: 85 90        	sta	$90                     ; 0x2090 <textPrint+0x1c4>
    6205: a6 5b        	ldx	$5b                     ; 0x205b <textPrint+0x18f>
    6207: e8           	inx
    6208: d0 01        	bne	$620b <printf+0x7c6>
    620a: c8           	iny
    620b: 86 5b        	stx	$5b                     ; 0x205b <textPrint+0x18f>
    620d: 84 64        	sty	$64                     ; 0x2064 <textPrint+0x198>
    620f: c0 00        	cpy	#$0
    6211: d0 04        	bne	$6217 <printf+0x7d2>
    6213: e0 00        	cpx	#$0
    6215: f0 0f        	beq	$6226 <printf+0x7e1>
    6217: c5 8e        	cmp	$8e                     ; 0x208e <textPrint+0x1c2>
    6219: d0 b0        	bne	$61cb <printf+0x786>
    621b: a6 8d        	ldx	$8d                     ; 0x208d <textPrint+0x1c1>
    621d: 86 12        	stx	$12                     ; 0x2012 <textPrint+0x146>
    621f: a6 14        	ldx	$14                     ; 0x2014 <textPrint+0x148>
    6221: e4 12        	cpx	$12                     ; 0x2012 <textPrint+0x146>
    6223: 4c cd 61     	jmp	$61cd <printf+0x788>
    6226: 64 65        	stz	$65                     ; 0x2065 <textPrint+0x199>
    6228: 64 64        	stz	$64                     ; 0x2064 <textPrint+0x198>
    622a: a4 5a        	ldy	$5a                     ; 0x205a <textPrint+0x18e>
    622c: a6 a0        	ldx	$a0                     ; 0x20a0 <textPrint+0x1d4>
    622e: d0 4d        	bne	$627d <printf+0x838>
    6230: a6 8f        	ldx	$8f                     ; 0x208f <textPrint+0x1c3>
    6232: a5 90        	lda	$90                     ; 0x2090 <textPrint+0x1c4>
    6234: c5 8e        	cmp	$8e                     ; 0x208e <textPrint+0x1c2>
    6236: d0 10        	bne	$6248 <printf+0x803>
    6238: 86 13        	stx	$13                     ; 0x2013 <textPrint+0x147>
    623a: a6 8d        	ldx	$8d                     ; 0x208d <textPrint+0x1c1>
    623c: 86 12        	stx	$12                     ; 0x2012 <textPrint+0x146>
    623e: a4 5a        	ldy	$5a                     ; 0x205a <textPrint+0x18e>
    6240: a6 13        	ldx	$13                     ; 0x2013 <textPrint+0x147>
    6242: e4 12        	cpx	$12                     ; 0x2012 <textPrint+0x146>
    6244: 90 08        	bcc	$624e <printf+0x809>
    6246: 80 2f        	bra	$6277 <printf+0x832>
    6248: 86 13        	stx	$13                     ; 0x2013 <textPrint+0x147>
    624a: c5 8e        	cmp	$8e                     ; 0x208e <textPrint+0x1c2>
    624c: b0 29        	bcs	$6277 <printf+0x832>
    624e: a6 9a        	ldx	$9a                     ; 0x209a <textPrint+0x1ce>
    6250: e4 5f        	cpx	$5f                     ; 0x205f <textPrint+0x193>
    6252: d0 1c        	bne	$6270 <printf+0x82b>
    6254: a6 99        	ldx	$99                     ; 0x2099 <textPrint+0x1cd>
    6256: e4 5e        	cpx	$5e                     ; 0x205e <textPrint+0x192>
    6258: d0 16        	bne	$6270 <printf+0x82b>
    625a: 18           	clc
    625b: 85 12        	sta	$12                     ; 0x2012 <textPrint+0x146>
    625d: a5 13        	lda	$13                     ; 0x2013 <textPrint+0x147>
    625f: 65 93        	adc	$93                     ; 0x2093 <textPrint+0x1c7>
    6261: aa           	tax
    6262: a5 12        	lda	$12                     ; 0x2012 <textPrint+0x146>
    6264: 65 94        	adc	$94                     ; 0x2094 <textPrint+0x1c8>
    6266: 86 12        	stx	$12                     ; 0x2012 <textPrint+0x146>
    6268: 85 13        	sta	$13                     ; 0x2013 <textPrint+0x147>
    626a: a5 a3        	lda	$a3                     ; 0x20a3 <textPrint+0x1d7>
    626c: 92 12        	sta	($12)                   ; 0x2012 <textPrint+0x146>
    626e: 80 05        	bra	$6275 <printf+0x830>
    6270: a5 a3        	lda	$a3                     ; 0x20a3 <textPrint+0x1d7>
    6272: 20 85 24     	jsr	$2485 <__putchar>
    6275: a4 5a        	ldy	$5a                     ; 0x205a <textPrint+0x18e>
    6277: e6 8f        	inc	$8f                     ; 0x208f <textPrint+0x1c3>
    6279: d0 02        	bne	$627d <printf+0x838>
    627b: e6 90        	inc	$90                     ; 0x2090 <textPrint+0x1c4>
    627d: a6 9f        	ldx	$9f                     ; 0x209f <textPrint+0x1d3>
    627f: f0 4d        	beq	$62ce <printf+0x889>
    6281: a6 8f        	ldx	$8f                     ; 0x208f <textPrint+0x1c3>
    6283: a5 90        	lda	$90                     ; 0x2090 <textPrint+0x1c4>
    6285: c5 8e        	cmp	$8e                     ; 0x208e <textPrint+0x1c2>
    6287: d0 10        	bne	$6299 <printf+0x854>
    6289: 86 13        	stx	$13                     ; 0x2013 <textPrint+0x147>
    628b: a6 8d        	ldx	$8d                     ; 0x208d <textPrint+0x1c1>
    628d: 86 12        	stx	$12                     ; 0x2012 <textPrint+0x146>
    628f: a4 5a        	ldy	$5a                     ; 0x205a <textPrint+0x18e>
    6291: a6 13        	ldx	$13                     ; 0x2013 <textPrint+0x147>
    6293: e4 12        	cpx	$12                     ; 0x2012 <textPrint+0x146>
    6295: 90 08        	bcc	$629f <printf+0x85a>
    6297: 80 2f        	bra	$62c8 <printf+0x883>
    6299: 86 13        	stx	$13                     ; 0x2013 <textPrint+0x147>
    629b: c5 8e        	cmp	$8e                     ; 0x208e <textPrint+0x1c2>
    629d: b0 29        	bcs	$62c8 <printf+0x883>
    629f: a6 9a        	ldx	$9a                     ; 0x209a <textPrint+0x1ce>
    62a1: e4 5f        	cpx	$5f                     ; 0x205f <textPrint+0x193>
    62a3: d0 1c        	bne	$62c1 <printf+0x87c>
    62a5: a6 99        	ldx	$99                     ; 0x2099 <textPrint+0x1cd>
    62a7: e4 5e        	cpx	$5e                     ; 0x205e <textPrint+0x192>
    62a9: d0 16        	bne	$62c1 <printf+0x87c>
    62ab: 18           	clc
    62ac: 85 12        	sta	$12                     ; 0x2012 <textPrint+0x146>
    62ae: a5 13        	lda	$13                     ; 0x2013 <textPrint+0x147>
    62b0: 65 93        	adc	$93                     ; 0x2093 <textPrint+0x1c7>
    62b2: aa           	tax
    62b3: a5 12        	lda	$12                     ; 0x2012 <textPrint+0x146>
    62b5: 65 94        	adc	$94                     ; 0x2094 <textPrint+0x1c8>
    62b7: 86 12        	stx	$12                     ; 0x2012 <textPrint+0x146>
    62b9: 85 13        	sta	$13                     ; 0x2013 <textPrint+0x147>
    62bb: a5 a4        	lda	$a4                     ; 0x20a4 <textPrint+0x1d8>
    62bd: 92 12        	sta	($12)                   ; 0x2012 <textPrint+0x146>
    62bf: 80 05        	bra	$62c6 <printf+0x881>
    62c1: a5 a4        	lda	$a4                     ; 0x20a4 <textPrint+0x1d8>
    62c3: 20 85 24     	jsr	$2485 <__putchar>
    62c6: a4 5a        	ldy	$5a                     ; 0x205a <textPrint+0x18e>
    62c8: e6 8f        	inc	$8f                     ; 0x208f <textPrint+0x1c3>
    62ca: d0 02        	bne	$62ce <printf+0x889>
    62cc: e6 90        	inc	$90                     ; 0x2090 <textPrint+0x1c4>
    62ce: a9 10        	lda	#$10
    62d0: 25 8b        	and	$8b                     ; 0x208b <textPrint+0x1bf>
    62d2: d0 03        	bne	$62d7 <printf+0x892>
    62d4: 4c 5d 63     	jmp	$635d <printf+0x918>
    62d7: a5 8b        	lda	$8b                     ; 0x208b <textPrint+0x1bf>
    62d9: 29 01        	and	#$1
    62db: f0 03        	beq	$62e0 <printf+0x89b>
    62dd: 4c 5d 63     	jmp	$635d <printf+0x918>
    62e0: a6 65        	ldx	$65                     ; 0x2065 <textPrint+0x199>
    62e2: a5 64        	lda	$64                     ; 0x2064 <textPrint+0x198>
    62e4: d0 06        	bne	$62ec <printf+0x8a7>
    62e6: 8a           	txa
    62e7: d0 03        	bne	$62ec <printf+0x8a7>
    62e9: 4c f9 65     	jmp	$65f9 <printf+0xbb4>
    62ec: a6 8f        	ldx	$8f                     ; 0x208f <textPrint+0x1c3>
    62ee: 86 13        	stx	$13                     ; 0x2013 <textPrint+0x147>
    62f0: a5 90        	lda	$90                     ; 0x2090 <textPrint+0x1c4>
    62f2: 80 4f        	bra	$6343 <printf+0x8fe>
    62f4: c5 8e        	cmp	$8e                     ; 0x208e <textPrint+0x1c2>
    62f6: b0 24        	bcs	$631c <printf+0x8d7>
    62f8: a6 9a        	ldx	$9a                     ; 0x209a <textPrint+0x1ce>
    62fa: e4 5f        	cpx	$5f                     ; 0x205f <textPrint+0x193>
    62fc: d0 19        	bne	$6317 <printf+0x8d2>
    62fe: a6 99        	ldx	$99                     ; 0x2099 <textPrint+0x1cd>
    6300: e4 5e        	cpx	$5e                     ; 0x205e <textPrint+0x192>
    6302: d0 13        	bne	$6317 <printf+0x8d2>
    6304: 18           	clc
    6305: aa           	tax
    6306: a5 13        	lda	$13                     ; 0x2013 <textPrint+0x147>
    6308: 65 93        	adc	$93                     ; 0x2093 <textPrint+0x1c7>
    630a: 85 12        	sta	$12                     ; 0x2012 <textPrint+0x146>
    630c: 8a           	txa
    630d: 65 94        	adc	$94                     ; 0x2094 <textPrint+0x1c8>
    630f: 85 13        	sta	$13                     ; 0x2013 <textPrint+0x147>
    6311: a9 30        	lda	#$30
    6313: 92 12        	sta	($12)                   ; 0x2012 <textPrint+0x146>
    6315: 80 05        	bra	$631c <printf+0x8d7>
    6317: a9 30        	lda	#$30
    6319: 20 85 24     	jsr	$2485 <__putchar>
    631c: a6 8f        	ldx	$8f                     ; 0x208f <textPrint+0x1c3>
    631e: a5 90        	lda	$90                     ; 0x2090 <textPrint+0x1c4>
    6320: e8           	inx
    6321: d0 01        	bne	$6324 <printf+0x8df>
    6323: 1a           	inc
    6324: 86 13        	stx	$13                     ; 0x2013 <textPrint+0x147>
    6326: 86 8f        	stx	$8f                     ; 0x208f <textPrint+0x1c3>
    6328: 85 90        	sta	$90                     ; 0x2090 <textPrint+0x1c4>
    632a: a4 65        	ldy	$65                     ; 0x2065 <textPrint+0x199>
    632c: a6 64        	ldx	$64                     ; 0x2064 <textPrint+0x198>
    632e: 86 12        	stx	$12                     ; 0x2012 <textPrint+0x146>
    6330: 88           	dey
    6331: c0 ff        	cpy	#$ff
    6333: d0 02        	bne	$6337 <printf+0x8f2>
    6335: c6 12        	dec	$12                     ; 0x2012 <textPrint+0x146>
    6337: 84 65        	sty	$65                     ; 0x2065 <textPrint+0x199>
    6339: a6 12        	ldx	$12                     ; 0x2012 <textPrint+0x146>
    633b: 86 64        	stx	$64                     ; 0x2064 <textPrint+0x198>
    633d: d0 04        	bne	$6343 <printf+0x8fe>
    633f: c0 00        	cpy	#$0
    6341: f0 14        	beq	$6357 <printf+0x912>
    6343: c5 8e        	cmp	$8e                     ; 0x208e <textPrint+0x1c2>
    6345: f0 03        	beq	$634a <printf+0x905>
    6347: 4c f4 62     	jmp	$62f4 <printf+0x8af>
    634a: a6 8d        	ldx	$8d                     ; 0x208d <textPrint+0x1c1>
    634c: 86 12        	stx	$12                     ; 0x2012 <textPrint+0x146>
    634e: a6 13        	ldx	$13                     ; 0x2013 <textPrint+0x147>
    6350: e4 12        	cpx	$12                     ; 0x2012 <textPrint+0x146>
    6352: b0 c8        	bcs	$631c <printf+0x8d7>
    6354: 4c f8 62     	jmp	$62f8 <printf+0x8b3>
    6357: 64 65        	stz	$65                     ; 0x2065 <textPrint+0x199>
    6359: 64 64        	stz	$64                     ; 0x2064 <textPrint+0x198>
    635b: a4 5a        	ldy	$5a                     ; 0x205a <textPrint+0x18e>
    635d: a2 00        	ldx	#$0
    635f: e4 63        	cpx	$63                     ; 0x2063 <textPrint+0x197>
    6361: d0 07        	bne	$636a <printf+0x925>
    6363: c4 62        	cpy	$62                     ; 0x2062 <textPrint+0x196>
    6365: 90 0a        	bcc	$6371 <printf+0x92c>
    6367: 4c df 63     	jmp	$63df <printf+0x99a>
    636a: e4 63        	cpx	$63                     ; 0x2063 <textPrint+0x197>
    636c: 90 03        	bcc	$6371 <printf+0x92c>
    636e: 4c df 63     	jmp	$63df <printf+0x99a>
    6371: a6 8f        	ldx	$8f                     ; 0x208f <textPrint+0x1c3>
    6373: 86 13        	stx	$13                     ; 0x2013 <textPrint+0x147>
    6375: a5 90        	lda	$90                     ; 0x2090 <textPrint+0x1c4>
    6377: a2 ff        	ldx	#$ff
    6379: c6 62        	dec	$62                     ; 0x2062 <textPrint+0x196>
    637b: e4 62        	cpx	$62                     ; 0x2062 <textPrint+0x196>
    637d: d0 02        	bne	$6381 <printf+0x93c>
    637f: c6 63        	dec	$63                     ; 0x2063 <textPrint+0x197>
    6381: c5 8e        	cmp	$8e                     ; 0x208e <textPrint+0x1c2>
    6383: d0 0c        	bne	$6391 <printf+0x94c>
    6385: a6 8d        	ldx	$8d                     ; 0x208d <textPrint+0x1c1>
    6387: 86 12        	stx	$12                     ; 0x2012 <textPrint+0x146>
    6389: a6 13        	ldx	$13                     ; 0x2013 <textPrint+0x147>
    638b: e4 12        	cpx	$12                     ; 0x2012 <textPrint+0x146>
    638d: 90 06        	bcc	$6395 <printf+0x950>
    638f: 80 28        	bra	$63b9 <printf+0x974>
    6391: c5 8e        	cmp	$8e                     ; 0x208e <textPrint+0x1c2>
    6393: b0 24        	bcs	$63b9 <printf+0x974>
    6395: a6 9a        	ldx	$9a                     ; 0x209a <textPrint+0x1ce>
    6397: e4 5f        	cpx	$5f                     ; 0x205f <textPrint+0x193>
    6399: d0 19        	bne	$63b4 <printf+0x96f>
    639b: a6 99        	ldx	$99                     ; 0x2099 <textPrint+0x1cd>
    639d: e4 5e        	cpx	$5e                     ; 0x205e <textPrint+0x192>
    639f: d0 13        	bne	$63b4 <printf+0x96f>
    63a1: 18           	clc
    63a2: aa           	tax
    63a3: a5 13        	lda	$13                     ; 0x2013 <textPrint+0x147>
    63a5: 65 93        	adc	$93                     ; 0x2093 <textPrint+0x1c7>
    63a7: 85 12        	sta	$12                     ; 0x2012 <textPrint+0x146>
    63a9: 8a           	txa
    63aa: 65 94        	adc	$94                     ; 0x2094 <textPrint+0x1c8>
    63ac: 85 13        	sta	$13                     ; 0x2013 <textPrint+0x147>
    63ae: a9 30        	lda	#$30
    63b0: 92 12        	sta	($12)                   ; 0x2012 <textPrint+0x146>
    63b2: 80 05        	bra	$63b9 <printf+0x974>
    63b4: a9 30        	lda	#$30
    63b6: 20 85 24     	jsr	$2485 <__putchar>
    63b9: a6 8f        	ldx	$8f                     ; 0x208f <textPrint+0x1c3>
    63bb: a5 90        	lda	$90                     ; 0x2090 <textPrint+0x1c4>
    63bd: e8           	inx
    63be: d0 01        	bne	$63c1 <printf+0x97c>
    63c0: 1a           	inc
    63c1: 86 13        	stx	$13                     ; 0x2013 <textPrint+0x147>
    63c3: 86 8f        	stx	$8f                     ; 0x208f <textPrint+0x1c3>
    63c5: 85 90        	sta	$90                     ; 0x2090 <textPrint+0x1c4>
    63c7: a2 00        	ldx	#$0
    63c9: e4 63        	cpx	$63                     ; 0x2063 <textPrint+0x197>
    63cb: d0 09        	bne	$63d6 <printf+0x991>
    63cd: a4 5a        	ldy	$5a                     ; 0x205a <textPrint+0x18e>
    63cf: c4 62        	cpy	$62                     ; 0x2062 <textPrint+0x196>
    63d1: b0 0c        	bcs	$63df <printf+0x99a>
    63d3: 4c 77 63     	jmp	$6377 <printf+0x932>
    63d6: e4 63        	cpx	$63                     ; 0x2063 <textPrint+0x197>
    63d8: a4 5a        	ldy	$5a                     ; 0x205a <textPrint+0x18e>
    63da: b0 03        	bcs	$63df <printf+0x99a>
    63dc: 4c 77 63     	jmp	$6377 <printf+0x932>
    63df: 98           	tya
    63e0: d0 03        	bne	$63e5 <printf+0x9a0>
    63e2: 4c d4 64     	jmp	$64d4 <printf+0xa8f>
    63e5: 88           	dey
    63e6: d0 03        	bne	$63eb <printf+0x9a6>
    63e8: 4c 73 64     	jmp	$6473 <printf+0xa2e>
    63eb: 84 62        	sty	$62                     ; 0x2062 <textPrint+0x196>
    63ed: a6 a5        	ldx	$a5                     ; 0x20a5 <textPrint+0x1d9>
    63ef: 8a           	txa
    63f0: 18           	clc
    63f1: 65 62        	adc	$62                     ; 0x2062 <textPrint+0x196>
    63f3: 85 5a        	sta	$5a                     ; 0x205a <textPrint+0x18e>
    63f5: a5 a6        	lda	$a6                     ; 0x20a6 <textPrint+0x1da>
    63f7: 69 00        	adc	#$0
    63f9: 85 5b        	sta	$5b                     ; 0x205b <textPrint+0x18f>
    63fb: 4c 65 64     	jmp	$6465 <printf+0xa20>
    63fe: a8           	tay
    63ff: a9 80        	lda	#$80
    6401: 25 8b        	and	$8b                     ; 0x208b <textPrint+0x1bf>
    6403: f0 04        	beq	$6409 <printf+0x9c4>
    6405: a2 61        	ldx	#$61
    6407: 80 02        	bra	$640b <printf+0x9c6>
    6409: a2 41        	ldx	#$41
    640b: 86 12        	stx	$12                     ; 0x2012 <textPrint+0x146>
    640d: 18           	clc
    640e: 98           	tya
    640f: 65 12        	adc	$12                     ; 0x2012 <textPrint+0x146>
    6411: 18           	clc
    6412: 69 f6        	adc	#$f6
    6414: a4 8f        	ldy	$8f                     ; 0x208f <textPrint+0x1c3>
    6416: a6 90        	ldx	$90                     ; 0x2090 <textPrint+0x1c4>
    6418: e4 8e        	cpx	$8e                     ; 0x208e <textPrint+0x1c2>
    641a: d0 0c        	bne	$6428 <printf+0x9e3>
    641c: 86 14        	stx	$14                     ; 0x2014 <textPrint+0x148>
    641e: a6 8d        	ldx	$8d                     ; 0x208d <textPrint+0x1c1>
    6420: 86 12        	stx	$12                     ; 0x2012 <textPrint+0x146>
    6422: c4 12        	cpy	$12                     ; 0x2012 <textPrint+0x146>
    6424: 90 08        	bcc	$642e <printf+0x9e9>
    6426: 80 27        	bra	$644f <printf+0xa0a>
    6428: 86 14        	stx	$14                     ; 0x2014 <textPrint+0x148>
    642a: e4 8e        	cpx	$8e                     ; 0x208e <textPrint+0x1c2>
    642c: b0 21        	bcs	$644f <printf+0xa0a>
    642e: a6 9a        	ldx	$9a                     ; 0x209a <textPrint+0x1ce>
    6430: e4 5f        	cpx	$5f                     ; 0x205f <textPrint+0x193>
    6432: d0 18        	bne	$644c <printf+0xa07>
    6434: a6 99        	ldx	$99                     ; 0x2099 <textPrint+0x1cd>
    6436: e4 5e        	cpx	$5e                     ; 0x205e <textPrint+0x192>
    6438: d0 12        	bne	$644c <printf+0xa07>
    643a: 18           	clc
    643b: aa           	tax
    643c: 98           	tya
    643d: 65 93        	adc	$93                     ; 0x2093 <textPrint+0x1c7>
    643f: 85 12        	sta	$12                     ; 0x2012 <textPrint+0x146>
    6441: a5 14        	lda	$14                     ; 0x2014 <textPrint+0x148>
    6443: 65 94        	adc	$94                     ; 0x2094 <textPrint+0x1c8>
    6445: 85 13        	sta	$13                     ; 0x2013 <textPrint+0x147>
    6447: 8a           	txa
    6448: 92 12        	sta	($12)                   ; 0x2012 <textPrint+0x146>
    644a: 80 03        	bra	$644f <printf+0xa0a>
    644c: 20 85 24     	jsr	$2485 <__putchar>
    644f: e6 8f        	inc	$8f                     ; 0x208f <textPrint+0x1c3>
    6451: d0 02        	bne	$6455 <printf+0xa10>
    6453: e6 90        	inc	$90                     ; 0x2090 <textPrint+0x1c4>
    6455: c6 62        	dec	$62                     ; 0x2062 <textPrint+0x196>
    6457: a2 ff        	ldx	#$ff
    6459: c6 5a        	dec	$5a                     ; 0x205a <textPrint+0x18e>
    645b: e4 5a        	cpx	$5a                     ; 0x205a <textPrint+0x18e>
    645d: d0 02        	bne	$6461 <printf+0xa1c>
    645f: c6 5b        	dec	$5b                     ; 0x205b <textPrint+0x18f>
    6461: a5 62        	lda	$62                     ; 0x2062 <textPrint+0x196>
    6463: f0 0e        	beq	$6473 <printf+0xa2e>
    6465: b2 5a        	lda	($5a)                   ; 0x205a <textPrint+0x18e>
    6467: c9 0a        	cmp	#$a
    6469: 90 03        	bcc	$646e <printf+0xa29>
    646b: 4c fe 63     	jmp	$63fe <printf+0x9b9>
    646e: 09 30        	ora	#$30
    6470: 4c 14 64     	jmp	$6414 <printf+0x9cf>
    6473: a5 68        	lda	$68                     ; 0x2068 <textPrint+0x19c>
    6475: c9 0a        	cmp	#$a
    6477: b0 04        	bcs	$647d <printf+0xa38>
    6479: 09 30        	ora	#$30
    647b: 80 16        	bra	$6493 <printf+0xa4e>
    647d: a8           	tay
    647e: a9 80        	lda	#$80
    6480: 25 8b        	and	$8b                     ; 0x208b <textPrint+0x1bf>
    6482: f0 04        	beq	$6488 <printf+0xa43>
    6484: a2 61        	ldx	#$61
    6486: 80 02        	bra	$648a <printf+0xa45>
    6488: a2 41        	ldx	#$41
    648a: 86 12        	stx	$12                     ; 0x2012 <textPrint+0x146>
    648c: 18           	clc
    648d: 98           	tya
    648e: 65 12        	adc	$12                     ; 0x2012 <textPrint+0x146>
    6490: 18           	clc
    6491: 69 f6        	adc	#$f6
    6493: a4 8f        	ldy	$8f                     ; 0x208f <textPrint+0x1c3>
    6495: a6 90        	ldx	$90                     ; 0x2090 <textPrint+0x1c4>
    6497: e4 8e        	cpx	$8e                     ; 0x208e <textPrint+0x1c2>
    6499: d0 0c        	bne	$64a7 <printf+0xa62>
    649b: 86 14        	stx	$14                     ; 0x2014 <textPrint+0x148>
    649d: a6 8d        	ldx	$8d                     ; 0x208d <textPrint+0x1c1>
    649f: 86 12        	stx	$12                     ; 0x2012 <textPrint+0x146>
    64a1: c4 12        	cpy	$12                     ; 0x2012 <textPrint+0x146>
    64a3: 90 08        	bcc	$64ad <printf+0xa68>
    64a5: 80 27        	bra	$64ce <printf+0xa89>
    64a7: 86 14        	stx	$14                     ; 0x2014 <textPrint+0x148>
    64a9: e4 8e        	cpx	$8e                     ; 0x208e <textPrint+0x1c2>
    64ab: b0 21        	bcs	$64ce <printf+0xa89>
    64ad: a6 9a        	ldx	$9a                     ; 0x209a <textPrint+0x1ce>
    64af: e4 5f        	cpx	$5f                     ; 0x205f <textPrint+0x193>
    64b1: d0 18        	bne	$64cb <printf+0xa86>
    64b3: a6 99        	ldx	$99                     ; 0x2099 <textPrint+0x1cd>
    64b5: e4 5e        	cpx	$5e                     ; 0x205e <textPrint+0x192>
    64b7: d0 12        	bne	$64cb <printf+0xa86>
    64b9: 18           	clc
    64ba: aa           	tax
    64bb: 98           	tya
    64bc: 65 93        	adc	$93                     ; 0x2093 <textPrint+0x1c7>
    64be: 85 12        	sta	$12                     ; 0x2012 <textPrint+0x146>
    64c0: a5 14        	lda	$14                     ; 0x2014 <textPrint+0x148>
    64c2: 65 94        	adc	$94                     ; 0x2094 <textPrint+0x1c8>
    64c4: 85 13        	sta	$13                     ; 0x2013 <textPrint+0x147>
    64c6: 8a           	txa
    64c7: 92 12        	sta	($12)                   ; 0x2012 <textPrint+0x146>
    64c9: 80 03        	bra	$64ce <printf+0xa89>
    64cb: 20 85 24     	jsr	$2485 <__putchar>
    64ce: e6 8f        	inc	$8f                     ; 0x208f <textPrint+0x1c3>
    64d0: d0 02        	bne	$64d4 <printf+0xa8f>
    64d2: e6 90        	inc	$90                     ; 0x2090 <textPrint+0x1c4>
    64d4: a5 8b        	lda	$8b                     ; 0x208b <textPrint+0x1bf>
    64d6: 29 01        	and	#$1
    64d8: d0 1e        	bne	$64f8 <printf+0xab3>
    64da: a6 8f        	ldx	$8f                     ; 0x208f <textPrint+0x1c3>
    64dc: 86 14        	stx	$14                     ; 0x2014 <textPrint+0x148>
    64de: a5 90        	lda	$90                     ; 0x2090 <textPrint+0x1c4>
    64e0: a4 8d        	ldy	$8d                     ; 0x208d <textPrint+0x1c1>
    64e2: a6 8e        	ldx	$8e                     ; 0x208e <textPrint+0x1c2>
    64e4: 86 12        	stx	$12                     ; 0x2012 <textPrint+0x146>
    64e6: 86 13        	stx	$13                     ; 0x2013 <textPrint+0x147>
    64e8: c5 12        	cmp	$12                     ; 0x2012 <textPrint+0x146>
    64ea: f0 03        	beq	$64ef <printf+0xaaa>
    64ec: 4c 7b 65     	jmp	$657b <printf+0xb36>
    64ef: 84 12        	sty	$12                     ; 0x2012 <textPrint+0x146>
    64f1: a6 14        	ldx	$14                     ; 0x2014 <textPrint+0x148>
    64f3: e4 12        	cpx	$12                     ; 0x2012 <textPrint+0x146>
    64f5: 4c 7f 65     	jmp	$657f <printf+0xb3a>
    64f8: a6 8f        	ldx	$8f                     ; 0x208f <textPrint+0x1c3>
    64fa: 86 14        	stx	$14                     ; 0x2014 <textPrint+0x148>
    64fc: a5 90        	lda	$90                     ; 0x2090 <textPrint+0x1c4>
    64fe: a6 65        	ldx	$65                     ; 0x2065 <textPrint+0x199>
    6500: a4 64        	ldy	$64                     ; 0x2064 <textPrint+0x198>
    6502: f0 03        	beq	$6507 <printf+0xac2>
    6504: 4c 67 65     	jmp	$6567 <printf+0xb22>
    6507: e0 00        	cpx	#$0
    6509: f0 d5        	beq	$64e0 <printf+0xa9b>
    650b: 4c 67 65     	jmp	$6567 <printf+0xb22>
    650e: c5 8e        	cmp	$8e                     ; 0x208e <textPrint+0x1c2>
    6510: b0 24        	bcs	$6536 <printf+0xaf1>
    6512: a6 9a        	ldx	$9a                     ; 0x209a <textPrint+0x1ce>
    6514: e4 5f        	cpx	$5f                     ; 0x205f <textPrint+0x193>
    6516: d0 19        	bne	$6531 <printf+0xaec>
    6518: a6 99        	ldx	$99                     ; 0x2099 <textPrint+0x1cd>
    651a: e4 5e        	cpx	$5e                     ; 0x205e <textPrint+0x192>
    651c: d0 13        	bne	$6531 <printf+0xaec>
    651e: 18           	clc
    651f: aa           	tax
    6520: a5 14        	lda	$14                     ; 0x2014 <textPrint+0x148>
    6522: 65 93        	adc	$93                     ; 0x2093 <textPrint+0x1c7>
    6524: 85 12        	sta	$12                     ; 0x2012 <textPrint+0x146>
    6526: 8a           	txa
    6527: 65 94        	adc	$94                     ; 0x2094 <textPrint+0x1c8>
    6529: 85 13        	sta	$13                     ; 0x2013 <textPrint+0x147>
    652b: a9 20        	lda	#$20
    652d: 92 12        	sta	($12)                   ; 0x2012 <textPrint+0x146>
    652f: 80 05        	bra	$6536 <printf+0xaf1>
    6531: a9 20        	lda	#$20
    6533: 20 85 24     	jsr	$2485 <__putchar>
    6536: a6 8f        	ldx	$8f                     ; 0x208f <textPrint+0x1c3>
    6538: a5 90        	lda	$90                     ; 0x2090 <textPrint+0x1c4>
    653a: e8           	inx
    653b: d0 01        	bne	$653e <printf+0xaf9>
    653d: 1a           	inc
    653e: 86 14        	stx	$14                     ; 0x2014 <textPrint+0x148>
    6540: 86 8f        	stx	$8f                     ; 0x208f <textPrint+0x1c3>
    6542: 85 90        	sta	$90                     ; 0x2090 <textPrint+0x1c4>
    6544: a6 65        	ldx	$65                     ; 0x2065 <textPrint+0x199>
    6546: 86 12        	stx	$12                     ; 0x2012 <textPrint+0x146>
    6548: a6 64        	ldx	$64                     ; 0x2064 <textPrint+0x198>
    654a: 86 13        	stx	$13                     ; 0x2013 <textPrint+0x147>
    654c: a2 ff        	ldx	#$ff
    654e: c6 12        	dec	$12                     ; 0x2012 <textPrint+0x146>
    6550: e4 12        	cpx	$12                     ; 0x2012 <textPrint+0x146>
    6552: d0 02        	bne	$6556 <printf+0xb11>
    6554: c6 13        	dec	$13                     ; 0x2013 <textPrint+0x147>
    6556: a6 12        	ldx	$12                     ; 0x2012 <textPrint+0x146>
    6558: 86 65        	stx	$65                     ; 0x2065 <textPrint+0x199>
    655a: a6 13        	ldx	$13                     ; 0x2013 <textPrint+0x147>
    655c: 86 64        	stx	$64                     ; 0x2064 <textPrint+0x198>
    655e: d0 07        	bne	$6567 <printf+0xb22>
    6560: a6 12        	ldx	$12                     ; 0x2012 <textPrint+0x146>
    6562: d0 03        	bne	$6567 <printf+0xb22>
    6564: 4c e0 64     	jmp	$64e0 <printf+0xa9b>
    6567: c5 8e        	cmp	$8e                     ; 0x208e <textPrint+0x1c2>
    6569: f0 03        	beq	$656e <printf+0xb29>
    656b: 4c 0e 65     	jmp	$650e <printf+0xac9>
    656e: a6 8d        	ldx	$8d                     ; 0x208d <textPrint+0x1c1>
    6570: 86 12        	stx	$12                     ; 0x2012 <textPrint+0x146>
    6572: a6 14        	ldx	$14                     ; 0x2014 <textPrint+0x148>
    6574: e4 12        	cpx	$12                     ; 0x2012 <textPrint+0x146>
    6576: b0 be        	bcs	$6536 <printf+0xaf1>
    6578: 4c 12 65     	jmp	$6512 <printf+0xacd>
    657b: 86 12        	stx	$12                     ; 0x2012 <textPrint+0x146>
    657d: c5 12        	cmp	$12                     ; 0x2012 <textPrint+0x146>
    657f: 98           	tya
    6580: a0 01        	ldy	#$1
    6582: 90 20        	bcc	$65a4 <printf+0xb5f>
    6584: a6 13        	ldx	$13                     ; 0x2013 <textPrint+0x147>
    6586: d0 03        	bne	$658b <printf+0xb46>
    6588: aa           	tax
    6589: f0 19        	beq	$65a4 <printf+0xb5f>
    658b: 18           	clc
    658c: 65 93        	adc	$93                     ; 0x2093 <textPrint+0x1c7>
    658e: 85 12        	sta	$12                     ; 0x2012 <textPrint+0x146>
    6590: a5 13        	lda	$13                     ; 0x2013 <textPrint+0x147>
    6592: 65 94        	adc	$94                     ; 0x2094 <textPrint+0x1c8>
    6594: 85 13        	sta	$13                     ; 0x2013 <textPrint+0x147>
    6596: a2 ff        	ldx	#$ff
    6598: c6 12        	dec	$12                     ; 0x2012 <textPrint+0x146>
    659a: e4 12        	cpx	$12                     ; 0x2012 <textPrint+0x146>
    659c: d0 02        	bne	$65a0 <printf+0xb5b>
    659e: c6 13        	dec	$13                     ; 0x2013 <textPrint+0x147>
    65a0: a9 00        	lda	#$0
    65a2: 92 12        	sta	($12)                   ; 0x2012 <textPrint+0x146>
    65a4: e6 5c        	inc	$5c                     ; 0x205c <textPrint+0x190>
    65a6: d0 02        	bne	$65aa <printf+0xb65>
    65a8: e6 5d        	inc	$5d                     ; 0x205d <textPrint+0x191>
    65aa: a6 5d        	ldx	$5d                     ; 0x205d <textPrint+0x191>
    65ac: e4 61        	cpx	$61                     ; 0x2061 <textPrint+0x195>
    65ae: f0 03        	beq	$65b3 <printf+0xb6e>
    65b0: 4c aa 5a     	jmp	$5aaa <printf+0x65>
    65b3: a6 5c        	ldx	$5c                     ; 0x205c <textPrint+0x190>
    65b5: e4 60        	cpx	$60                     ; 0x2060 <textPrint+0x194>
    65b7: f0 03        	beq	$65bc <printf+0xb77>
    65b9: 4c aa 5a     	jmp	$5aaa <printf+0x65>
    65bc: b2 60        	lda	($60)                   ; 0x2060 <textPrint+0x194>
    65be: a2 00        	ldx	#$0
    65c0: 86 5e        	stx	$5e                     ; 0x205e <textPrint+0x192>
    65c2: a2 00        	ldx	#$0
    65c4: 86 5f        	stx	$5f                     ; 0x205f <textPrint+0x193>
    65c6: 4c be 5a     	jmp	$5abe <printf+0x79>
    65c9: e4 63        	cpx	$63                     ; 0x2063 <textPrint+0x197>
    65cb: a6 5b        	ldx	$5b                     ; 0x205b <textPrint+0x18f>
    65cd: b0 03        	bcs	$65d2 <printf+0xb8d>
    65cf: 4c f7 60     	jmp	$60f7 <printf+0x6b2>
    65d2: a5 5a        	lda	$5a                     ; 0x205a <textPrint+0x18e>
    65d4: 85 62        	sta	$62                     ; 0x2062 <textPrint+0x196>
    65d6: 64 63        	stz	$63                     ; 0x2063 <textPrint+0x197>
    65d8: e6 62        	inc	$62                     ; 0x2062 <textPrint+0x196>
    65da: f0 03        	beq	$65df <printf+0xb9a>
    65dc: 4c f7 60     	jmp	$60f7 <printf+0x6b2>
    65df: e6 63        	inc	$63                     ; 0x2063 <textPrint+0x197>
    65e1: 4c f7 60     	jmp	$60f7 <printf+0x6b2>
    65e4: a2 58        	ldx	#$58
    65e6: 86 a4        	stx	$a4                     ; 0x20a4 <textPrint+0x1d8>
    65e8: a2 01        	ldx	#$1
    65ea: 86 9f        	stx	$9f                     ; 0x209f <textPrint+0x1d3>
    65ec: a2 30        	ldx	#$30
    65ee: 86 a3        	stx	$a3                     ; 0x20a3 <textPrint+0x1d7>
    65f0: a9 02        	lda	#$2
    65f2: a2 00        	ldx	#$0
    65f4: 86 a0        	stx	$a0                     ; 0x20a0 <textPrint+0x1d4>
    65f6: 4c 38 61     	jmp	$6138 <printf+0x6f3>
    65f9: 64 65        	stz	$65                     ; 0x2065 <textPrint+0x199>
    65fb: 64 64        	stz	$64                     ; 0x2064 <textPrint+0x198>
    65fd: 4c 5d 63     	jmp	$635d <printf+0x918>
    6600: 60           	rts

00006601 <malloc>:
    6601: a8           	tay
    6602: 8a           	txa
    6603: a2 00        	ldx	#$0
    6605: 86 12        	stx	$12                     ; 0x2012 <textPrint+0x146>
    6607: a2 00        	ldx	#$0
    6609: 86 13        	stx	$13                     ; 0x2013 <textPrint+0x147>
    660b: aa           	tax
    660c: d0 07        	bne	$6615 <malloc+0x14>
    660e: c0 00        	cpy	#$0
    6610: d0 03        	bne	$6615 <malloc+0x14>
    6612: 4c 02 67     	jmp	$6702 <malloc+0x101>
    6615: 84 16        	sty	$16                     ; 0x2016 <textPrint+0x14a>
    6617: aa           	tax
    6618: d0 0e        	bne	$6628 <malloc+0x27>
    661a: a6 16        	ldx	$16                     ; 0x2016 <textPrint+0x14a>
    661c: e0 07        	cpx	#$7
    661e: b0 0c        	bcs	$662c <malloc+0x2b>
    6620: a2 08        	ldx	#$8
    6622: 86 5b        	stx	$5b                     ; 0x205b <textPrint+0x18f>
    6624: a9 00        	lda	#$0
    6626: 80 2f        	bra	$6657 <malloc+0x56>
    6628: c9 00        	cmp	#$0
    662a: 90 f4        	bcc	$6620 <malloc+0x1f>
    662c: a8           	tay
    662d: a5 16        	lda	$16                     ; 0x2016 <textPrint+0x14a>
    662f: 29 01        	and	#$1
    6631: a2 02        	ldx	#$2
    6633: 64 14        	stz	$14                     ; 0x2014 <textPrint+0x148>
    6635: c9 00        	cmp	#$0
    6637: f0 02        	beq	$663b <malloc+0x3a>
    6639: a2 03        	ldx	#$3
    663b: 86 15        	stx	$15                     ; 0x2015 <textPrint+0x149>
    663d: 18           	clc
    663e: a5 16        	lda	$16                     ; 0x2016 <textPrint+0x14a>
    6640: 65 15        	adc	$15                     ; 0x2015 <textPrint+0x149>
    6642: aa           	tax
    6643: 98           	tya
    6644: 65 14        	adc	$14                     ; 0x2014 <textPrint+0x148>
    6646: 90 03        	bcc	$664b <malloc+0x4a>
    6648: 4c 02 67     	jmp	$6702 <malloc+0x101>
    664b: 86 5b        	stx	$5b                     ; 0x205b <textPrint+0x18f>
    664d: a8           	tay
    664e: d0 07        	bne	$6657 <malloc+0x56>
    6650: e0 00        	cpx	#$0
    6652: d0 03        	bne	$6657 <malloc+0x56>
    6654: 4c 02 67     	jmp	$6702 <malloc+0x101>
    6657: 85 5a        	sta	$5a                     ; 0x205a <textPrint+0x18e>
    6659: a5 54        	lda	$54                     ; 0x2054 <textPrint+0x188>
    665b: 29 01        	and	#$1
    665d: d0 2b        	bne	$668a <malloc+0x89>
    665f: a9 00        	lda	#$0
    6661: a2 10        	ldx	#$10
    6663: a0 f4        	ldy	#$f4
    6665: 84 12        	sty	$12                     ; 0x2012 <textPrint+0x146>
    6667: a0 6a        	ldy	#$6a
    6669: 84 13        	sty	$13                     ; 0x2013 <textPrint+0x147>
    666b: 20 1a 03     	jsr	$31a <_ZN12_GLOBAL__N_19FreeChunk6insertEPvj>
    666e: a2 00        	ldx	#$0
    6670: 86 12        	stx	$12                     ; 0x2012 <textPrint+0x146>
    6672: a2 00        	ldx	#$0
    6674: 86 13        	stx	$13                     ; 0x2013 <textPrint+0x147>
    6676: ae f5 6a     	ldx	$6af5                   ; 0x6af5 <end_block9+0x1>
    6679: a9 fe        	lda	#$fe
    667b: 2d f4 6a     	and	$6af4                   ; 0x6af4 <end_block9>
    667e: 8d f4 6a     	sta	$6af4                   ; 0x6af4 <end_block9>
    6681: 8e f5 6a     	stx	$6af5                   ; 0x6af5 <end_block9+0x1>
    6684: a2 01        	ldx	#$1
    6686: 86 55        	stx	$55                     ; 0x2055 <textPrint+0x189>
    6688: 86 54        	stx	$54                     ; 0x2054 <textPrint+0x188>
    668a: a6 58        	ldx	$58                     ; 0x2058 <textPrint+0x18c>
    668c: 86 16        	stx	$16                     ; 0x2016 <textPrint+0x14a>
    668e: a4 59        	ldy	$59                     ; 0x2059 <textPrint+0x18d>
    6690: 84 17        	sty	$17                     ; 0x2017 <textPrint+0x14b>
    6692: a9 00        	lda	#$0
    6694: 85 14        	sta	$14                     ; 0x2014 <textPrint+0x148>
    6696: a9 00        	lda	#$0
    6698: 85 15        	sta	$15                     ; 0x2015 <textPrint+0x149>
    669a: c4 15        	cpy	$15                     ; 0x2015 <textPrint+0x149>
    669c: d0 07        	bne	$66a5 <malloc+0xa4>
    669e: e4 14        	cpx	$14                     ; 0x2014 <textPrint+0x148>
    66a0: d0 03        	bne	$66a5 <malloc+0xa4>
    66a2: 4c 02 67     	jmp	$6702 <malloc+0x101>
    66a5: a2 00        	ldx	#$0
    66a7: a0 10        	ldy	#$10
    66a9: 86 14        	stx	$14                     ; 0x2014 <textPrint+0x148>
    66ab: 84 15        	sty	$15                     ; 0x2015 <textPrint+0x149>
    66ad: 18           	clc
    66ae: a9 f4        	lda	#$f4
    66b0: 65 14        	adc	$14                     ; 0x2014 <textPrint+0x148>
    66b2: 85 18        	sta	$18                     ; 0x2018 <textPrint+0x14c>
    66b4: a9 6a        	lda	#$6a
    66b6: 65 15        	adc	$15                     ; 0x2015 <textPrint+0x149>
    66b8: 85 5e        	sta	$5e                     ; 0x205e <textPrint+0x192>
    66ba: a0 01        	ldy	#$1
    66bc: a6 5a        	ldx	$5a                     ; 0x205a <textPrint+0x18e>
    66be: 86 19        	stx	$19                     ; 0x2019 <textPrint+0x14d>
    66c0: a6 16        	ldx	$16                     ; 0x2016 <textPrint+0x14a>
    66c2: 86 14        	stx	$14                     ; 0x2014 <textPrint+0x148>
    66c4: a6 17        	ldx	$17                     ; 0x2017 <textPrint+0x14b>
    66c6: 86 15        	stx	$15                     ; 0x2015 <textPrint+0x149>
    66c8: b1 14        	lda	($14),y                 ; 0x2014 <textPrint+0x148>
    66ca: c5 19        	cmp	$19                     ; 0x2019 <textPrint+0x14d>
    66cc: d0 0e        	bne	$66dc <malloc+0xdb>
    66ce: b2 14        	lda	($14)                   ; 0x2014 <textPrint+0x148>
    66d0: 29 fe        	and	#$fe
    66d2: a6 5b        	ldx	$5b                     ; 0x205b <textPrint+0x18f>
    66d4: 86 1a        	stx	$1a                     ; 0x201a <textPrint+0x14e>
    66d6: c5 1a        	cmp	$1a                     ; 0x201a <textPrint+0x14e>
    66d8: b0 29        	bcs	$6703 <malloc+0x102>
    66da: 80 04        	bra	$66e0 <malloc+0xdf>
    66dc: c5 19        	cmp	$19                     ; 0x2019 <textPrint+0x14d>
    66de: b0 23        	bcs	$6703 <malloc+0x102>
    66e0: a5 14        	lda	$14                     ; 0x2014 <textPrint+0x148>
    66e2: 18           	clc
    66e3: 69 02        	adc	#$2
    66e5: 85 1a        	sta	$1a                     ; 0x201a <textPrint+0x14e>
    66e7: a5 15        	lda	$15                     ; 0x2015 <textPrint+0x149>
    66e9: 69 00        	adc	#$0
    66eb: 85 1b        	sta	$1b                     ; 0x201b <textPrint+0x14f>
    66ed: a0 02        	ldy	#$2
    66ef: b1 14        	lda	($14),y                 ; 0x2014 <textPrint+0x148>
    66f1: 85 14        	sta	$14                     ; 0x2014 <textPrint+0x148>
    66f3: 88           	dey
    66f4: b1 1a        	lda	($1a),y                 ; 0x201a <textPrint+0x14e>
    66f6: 85 15        	sta	$15                     ; 0x2015 <textPrint+0x149>
    66f8: c5 17        	cmp	$17                     ; 0x2017 <textPrint+0x14b>
    66fa: d0 cc        	bne	$66c8 <malloc+0xc7>
    66fc: a5 14        	lda	$14                     ; 0x2014 <textPrint+0x148>
    66fe: c5 16        	cmp	$16                     ; 0x2016 <textPrint+0x14a>
    6700: d0 c6        	bne	$66c8 <malloc+0xc7>
    6702: 60           	rts
    6703: a6 18        	ldx	$18                     ; 0x2018 <textPrint+0x14c>
    6705: 86 5f        	stx	$5f                     ; 0x205f <textPrint+0x193>
    6707: a6 14        	ldx	$14                     ; 0x2014 <textPrint+0x148>
    6709: 86 12        	stx	$12                     ; 0x2012 <textPrint+0x146>
    670b: a6 15        	ldx	$15                     ; 0x2015 <textPrint+0x149>
    670d: 86 13        	stx	$13                     ; 0x2013 <textPrint+0x147>
    670f: a6 14        	ldx	$14                     ; 0x2014 <textPrint+0x148>
    6711: 86 5c        	stx	$5c                     ; 0x205c <textPrint+0x190>
    6713: a6 15        	ldx	$15                     ; 0x2015 <textPrint+0x149>
    6715: 86 5d        	stx	$5d                     ; 0x205d <textPrint+0x191>
    6717: 20 50 04     	jsr	$450 <_ZN12_GLOBAL__N_19FreeChunk6removeEv>
    671a: a6 5c        	ldx	$5c                     ; 0x205c <textPrint+0x190>
    671c: 86 12        	stx	$12                     ; 0x2012 <textPrint+0x146>
    671e: a6 5d        	ldx	$5d                     ; 0x205d <textPrint+0x191>
    6720: 86 13        	stx	$13                     ; 0x2013 <textPrint+0x147>
    6722: a0 01        	ldy	#$1
    6724: b1 12        	lda	($12),y                 ; 0x2012 <textPrint+0x146>
    6726: 85 15        	sta	$15                     ; 0x2015 <textPrint+0x149>
    6728: a9 fe        	lda	#$fe
    672a: 32 12        	and	($12)                   ; 0x2012 <textPrint+0x146>
    672c: 38           	sec
    672d: a6 5b        	ldx	$5b                     ; 0x205b <textPrint+0x18f>
    672f: 86 14        	stx	$14                     ; 0x2014 <textPrint+0x148>
    6731: 85 17        	sta	$17                     ; 0x2017 <textPrint+0x14b>
    6733: e5 14        	sbc	$14                     ; 0x2014 <textPrint+0x148>
    6735: a8           	tay
    6736: a6 5a        	ldx	$5a                     ; 0x205a <textPrint+0x18e>
    6738: 86 14        	stx	$14                     ; 0x2014 <textPrint+0x148>
    673a: a5 15        	lda	$15                     ; 0x2015 <textPrint+0x149>
    673c: 85 16        	sta	$16                     ; 0x2016 <textPrint+0x14a>
    673e: e5 14        	sbc	$14                     ; 0x2014 <textPrint+0x148>
    6740: d0 06        	bne	$6748 <malloc+0x147>
    6742: 85 18        	sta	$18                     ; 0x2018 <textPrint+0x14c>
    6744: c0 08        	cpy	#$8
    6746: 80 04        	bra	$674c <malloc+0x14b>
    6748: 85 18        	sta	$18                     ; 0x2018 <textPrint+0x14c>
    674a: c9 00        	cmp	#$0
    674c: a6 5f        	ldx	$5f                     ; 0x205f <textPrint+0x193>
    674e: 86 14        	stx	$14                     ; 0x2014 <textPrint+0x148>
    6750: a6 5e        	ldx	$5e                     ; 0x205e <textPrint+0x192>
    6752: 86 15        	stx	$15                     ; 0x2015 <textPrint+0x149>
    6754: a5 17        	lda	$17                     ; 0x2017 <textPrint+0x14b>
    6756: 90 42        	bcc	$679a <malloc+0x199>
    6758: 18           	clc
    6759: a5 5b        	lda	$5b                     ; 0x205b <textPrint+0x18f>
    675b: 85 5b        	sta	$5b                     ; 0x205b <textPrint+0x18f>
    675d: 65 12        	adc	$12                     ; 0x2012 <textPrint+0x146>
    675f: 85 12        	sta	$12                     ; 0x2012 <textPrint+0x146>
    6761: a6 5a        	ldx	$5a                     ; 0x205a <textPrint+0x18e>
    6763: 86 5a        	stx	$5a                     ; 0x205a <textPrint+0x18e>
    6765: a5 5a        	lda	$5a                     ; 0x205a <textPrint+0x18e>
    6767: 65 13        	adc	$13                     ; 0x2013 <textPrint+0x147>
    6769: 85 13        	sta	$13                     ; 0x2013 <textPrint+0x147>
    676b: a6 18        	ldx	$18                     ; 0x2018 <textPrint+0x14c>
    676d: 98           	tya
    676e: 20 1a 03     	jsr	$31a <_ZN12_GLOBAL__N_19FreeChunk6insertEPvj>
    6771: a6 5c        	ldx	$5c                     ; 0x205c <textPrint+0x190>
    6773: 86 12        	stx	$12                     ; 0x2012 <textPrint+0x146>
    6775: a6 5d        	ldx	$5d                     ; 0x205d <textPrint+0x191>
    6777: 86 13        	stx	$13                     ; 0x2013 <textPrint+0x147>
    6779: a5 5b        	lda	$5b                     ; 0x205b <textPrint+0x18f>
    677b: 29 fe        	and	#$fe
    677d: 85 14        	sta	$14                     ; 0x2014 <textPrint+0x148>
    677f: a0 01        	ldy	#$1
    6781: 98           	tya
    6782: 32 12        	and	($12)                   ; 0x2012 <textPrint+0x146>
    6784: 05 14        	ora	$14                     ; 0x2014 <textPrint+0x148>
    6786: 92 12        	sta	($12)                   ; 0x2012 <textPrint+0x146>
    6788: a5 5a        	lda	$5a                     ; 0x205a <textPrint+0x18e>
    678a: 91 12        	sta	($12),y                 ; 0x2012 <textPrint+0x146>
    678c: a5 14        	lda	$14                     ; 0x2014 <textPrint+0x148>
    678e: a6 5a        	ldx	$5a                     ; 0x205a <textPrint+0x18e>
    6790: 86 16        	stx	$16                     ; 0x2016 <textPrint+0x14a>
    6792: a6 5f        	ldx	$5f                     ; 0x205f <textPrint+0x193>
    6794: 86 14        	stx	$14                     ; 0x2014 <textPrint+0x148>
    6796: a6 5e        	ldx	$5e                     ; 0x205e <textPrint+0x192>
    6798: 86 15        	stx	$15                     ; 0x2015 <textPrint+0x149>
    679a: 18           	clc
    679b: 65 12        	adc	$12                     ; 0x2012 <textPrint+0x146>
    679d: a8           	tay
    679e: a5 16        	lda	$16                     ; 0x2016 <textPrint+0x14a>
    67a0: 65 13        	adc	$13                     ; 0x2013 <textPrint+0x147>
    67a2: c5 15        	cmp	$15                     ; 0x2015 <textPrint+0x149>
    67a4: d0 08        	bne	$67ae <malloc+0x1ad>
    67a6: c4 14        	cpy	$14                     ; 0x2014 <textPrint+0x148>
    67a8: d0 04        	bne	$67ae <malloc+0x1ad>
    67aa: 64 55        	stz	$55                     ; 0x2055 <textPrint+0x189>
    67ac: 80 14        	bra	$67c2 <malloc+0x1c1>
    67ae: 84 14        	sty	$14                     ; 0x2014 <textPrint+0x148>
    67b0: 85 15        	sta	$15                     ; 0x2015 <textPrint+0x149>
    67b2: a0 01        	ldy	#$1
    67b4: b1 14        	lda	($14),y                 ; 0x2014 <textPrint+0x148>
    67b6: 85 16        	sta	$16                     ; 0x2016 <textPrint+0x14a>
    67b8: a9 fe        	lda	#$fe
    67ba: 32 14        	and	($14)                   ; 0x2014 <textPrint+0x148>
    67bc: 92 14        	sta	($14)                   ; 0x2014 <textPrint+0x148>
    67be: a5 16        	lda	$16                     ; 0x2016 <textPrint+0x14a>
    67c0: 91 14        	sta	($14),y                 ; 0x2014 <textPrint+0x148>
    67c2: a5 12        	lda	$12                     ; 0x2012 <textPrint+0x146>
    67c4: 18           	clc
    67c5: 69 02        	adc	#$2
    67c7: 85 12        	sta	$12                     ; 0x2012 <textPrint+0x146>
    67c9: a5 13        	lda	$13                     ; 0x2013 <textPrint+0x147>
    67cb: 69 00        	adc	#$0
    67cd: 85 13        	sta	$13                     ; 0x2013 <textPrint+0x147>
    67cf: 60           	rts

000067d0 <free>:
    67d0: a6 12        	ldx	$12                     ; 0x2012 <textPrint+0x146>
    67d2: 86 14        	stx	$14                     ; 0x2014 <textPrint+0x148>
    67d4: a6 13        	ldx	$13                     ; 0x2013 <textPrint+0x147>
    67d6: 86 15        	stx	$15                     ; 0x2015 <textPrint+0x149>
    67d8: a2 00        	ldx	#$0
    67da: 86 12        	stx	$12                     ; 0x2012 <textPrint+0x146>
    67dc: a2 00        	ldx	#$0
    67de: 86 13        	stx	$13                     ; 0x2013 <textPrint+0x147>
    67e0: a6 15        	ldx	$15                     ; 0x2015 <textPrint+0x149>
    67e2: e4 13        	cpx	$13                     ; 0x2013 <textPrint+0x147>
    67e4: d0 09        	bne	$67ef <free+0x1f>
    67e6: a6 14        	ldx	$14                     ; 0x2014 <textPrint+0x148>
    67e8: e4 12        	cpx	$12                     ; 0x2012 <textPrint+0x146>
    67ea: d0 03        	bne	$67ef <free+0x1f>
    67ec: 4c 51 69     	jmp	$6951 <free+0x181>
    67ef: a2 00        	ldx	#$0
    67f1: a0 10        	ldy	#$10
    67f3: a9 f4        	lda	#$f4
    67f5: 86 12        	stx	$12                     ; 0x2012 <textPrint+0x146>
    67f7: 84 13        	sty	$13                     ; 0x2013 <textPrint+0x147>
    67f9: 18           	clc
    67fa: 65 12        	adc	$12                     ; 0x2012 <textPrint+0x146>
    67fc: 85 18        	sta	$18                     ; 0x2018 <textPrint+0x14c>
    67fe: a9 6a        	lda	#$6a
    6800: 65 13        	adc	$13                     ; 0x2013 <textPrint+0x147>
    6802: 85 19        	sta	$19                     ; 0x2019 <textPrint+0x14d>
    6804: a5 14        	lda	$14                     ; 0x2014 <textPrint+0x148>
    6806: 18           	clc
    6807: 69 fe        	adc	#$fe
    6809: 85 12        	sta	$12                     ; 0x2012 <textPrint+0x146>
    680b: a5 15        	lda	$15                     ; 0x2015 <textPrint+0x149>
    680d: 69 ff        	adc	#$ff
    680f: a6 12        	ldx	$12                     ; 0x2012 <textPrint+0x146>
    6811: 86 5a        	stx	$5a                     ; 0x205a <textPrint+0x18e>
    6813: aa           	tax
    6814: 85 5b        	sta	$5b                     ; 0x205b <textPrint+0x18f>
    6816: b2 5a        	lda	($5a)                   ; 0x205a <textPrint+0x18e>
    6818: 85 1a        	sta	$1a                     ; 0x201a <textPrint+0x14e>
    681a: a0 01        	ldy	#$1
    681c: b1 5a        	lda	($5a),y                 ; 0x205a <textPrint+0x18e>
    681e: 85 16        	sta	$16                     ; 0x2016 <textPrint+0x14a>
    6820: a9 fe        	lda	#$fe
    6822: 32 5a        	and	($5a)                   ; 0x205a <textPrint+0x18e>
    6824: 85 17        	sta	$17                     ; 0x2017 <textPrint+0x14b>
    6826: a4 12        	ldy	$12                     ; 0x2012 <textPrint+0x146>
    6828: 84 1b        	sty	$1b                     ; 0x201b <textPrint+0x14f>
    682a: a5 12        	lda	$12                     ; 0x2012 <textPrint+0x146>
    682c: 18           	clc
    682d: 65 17        	adc	$17                     ; 0x2017 <textPrint+0x14b>
    682f: 85 12        	sta	$12                     ; 0x2012 <textPrint+0x146>
    6831: 8a           	txa
    6832: 86 1c        	stx	$1c                     ; 0x201c <textPrint+0x150>
    6834: 65 16        	adc	$16                     ; 0x2016 <textPrint+0x14a>
    6836: c5 19        	cmp	$19                     ; 0x2019 <textPrint+0x14d>
    6838: d0 10        	bne	$684a <free+0x7a>
    683a: a6 12        	ldx	$12                     ; 0x2012 <textPrint+0x146>
    683c: e4 18        	cpx	$18                     ; 0x2018 <textPrint+0x14c>
    683e: d0 0a        	bne	$684a <free+0x7a>
    6840: a2 00        	ldx	#$0
    6842: 86 12        	stx	$12                     ; 0x2012 <textPrint+0x146>
    6844: a2 00        	ldx	#$0
    6846: 86 13        	stx	$13                     ; 0x2013 <textPrint+0x147>
    6848: 80 02        	bra	$684c <free+0x7c>
    684a: 85 13        	sta	$13                     ; 0x2013 <textPrint+0x147>
    684c: a5 1a        	lda	$1a                     ; 0x201a <textPrint+0x14e>
    684e: 29 01        	and	#$1
    6850: d0 03        	bne	$6855 <free+0x85>
    6852: 4c d0 68     	jmp	$68d0 <free+0x100>
    6855: a5 14        	lda	$14                     ; 0x2014 <textPrint+0x148>
    6857: 18           	clc
    6858: 69 fc        	adc	#$fc
    685a: 85 14        	sta	$14                     ; 0x2014 <textPrint+0x148>
    685c: a5 15        	lda	$15                     ; 0x2015 <textPrint+0x149>
    685e: 69 ff        	adc	#$ff
    6860: 85 15        	sta	$15                     ; 0x2015 <textPrint+0x149>
    6862: a0 01        	ldy	#$1
    6864: 38           	sec
    6865: a9 00        	lda	#$0
    6867: f2 14        	sbc	($14)                   ; 0x2014 <textPrint+0x148>
    6869: 85 1a        	sta	$1a                     ; 0x201a <textPrint+0x14e>
    686b: a9 00        	lda	#$0
    686d: f1 14        	sbc	($14),y                 ; 0x2014 <textPrint+0x148>
    686f: 85 14        	sta	$14                     ; 0x2014 <textPrint+0x148>
    6871: a5 1b        	lda	$1b                     ; 0x201b <textPrint+0x14f>
    6873: 18           	clc
    6874: 65 1a        	adc	$1a                     ; 0x201a <textPrint+0x14e>
    6876: 85 5a        	sta	$5a                     ; 0x205a <textPrint+0x18e>
    6878: a5 1c        	lda	$1c                     ; 0x201c <textPrint+0x150>
    687a: 65 14        	adc	$14                     ; 0x2014 <textPrint+0x148>
    687c: 85 5b        	sta	$5b                     ; 0x205b <textPrint+0x18f>
    687e: b1 5a        	lda	($5a),y                 ; 0x205a <textPrint+0x18e>
    6880: 85 62        	sta	$62                     ; 0x2062 <textPrint+0x196>
    6882: a9 fe        	lda	#$fe
    6884: 32 5a        	and	($5a)                   ; 0x205a <textPrint+0x18e>
    6886: 85 63        	sta	$63                     ; 0x2063 <textPrint+0x197>
    6888: a6 12        	ldx	$12                     ; 0x2012 <textPrint+0x146>
    688a: 86 5c        	stx	$5c                     ; 0x205c <textPrint+0x190>
    688c: a6 13        	ldx	$13                     ; 0x2013 <textPrint+0x147>
    688e: 86 5d        	stx	$5d                     ; 0x205d <textPrint+0x191>
    6890: a6 5a        	ldx	$5a                     ; 0x205a <textPrint+0x18e>
    6892: 86 12        	stx	$12                     ; 0x2012 <textPrint+0x146>
    6894: a6 5b        	ldx	$5b                     ; 0x205b <textPrint+0x18f>
    6896: 86 13        	stx	$13                     ; 0x2013 <textPrint+0x147>
    6898: a6 16        	ldx	$16                     ; 0x2016 <textPrint+0x14a>
    689a: 86 5e        	stx	$5e                     ; 0x205e <textPrint+0x192>
    689c: a6 17        	ldx	$17                     ; 0x2017 <textPrint+0x14b>
    689e: 86 5f        	stx	$5f                     ; 0x205f <textPrint+0x193>
    68a0: a6 18        	ldx	$18                     ; 0x2018 <textPrint+0x14c>
    68a2: 86 60        	stx	$60                     ; 0x2060 <textPrint+0x194>
    68a4: a6 19        	ldx	$19                     ; 0x2019 <textPrint+0x14d>
    68a6: 86 61        	stx	$61                     ; 0x2061 <textPrint+0x195>
    68a8: 20 50 04     	jsr	$450 <_ZN12_GLOBAL__N_19FreeChunk6removeEv>
    68ab: a6 61        	ldx	$61                     ; 0x2061 <textPrint+0x195>
    68ad: 86 19        	stx	$19                     ; 0x2019 <textPrint+0x14d>
    68af: a6 60        	ldx	$60                     ; 0x2060 <textPrint+0x194>
    68b1: 86 18        	stx	$18                     ; 0x2018 <textPrint+0x14c>
    68b3: a6 5c        	ldx	$5c                     ; 0x205c <textPrint+0x190>
    68b5: 86 12        	stx	$12                     ; 0x2012 <textPrint+0x146>
    68b7: a6 5d        	ldx	$5d                     ; 0x205d <textPrint+0x191>
    68b9: 86 13        	stx	$13                     ; 0x2013 <textPrint+0x147>
    68bb: 18           	clc
    68bc: a5 63        	lda	$63                     ; 0x2063 <textPrint+0x197>
    68be: a6 5f        	ldx	$5f                     ; 0x205f <textPrint+0x193>
    68c0: 86 14        	stx	$14                     ; 0x2014 <textPrint+0x148>
    68c2: 65 14        	adc	$14                     ; 0x2014 <textPrint+0x148>
    68c4: 85 17        	sta	$17                     ; 0x2017 <textPrint+0x14b>
    68c6: a5 62        	lda	$62                     ; 0x2062 <textPrint+0x196>
    68c8: a6 5e        	ldx	$5e                     ; 0x205e <textPrint+0x192>
    68ca: 86 14        	stx	$14                     ; 0x2014 <textPrint+0x148>
    68cc: 65 14        	adc	$14                     ; 0x2014 <textPrint+0x148>
    68ce: 85 16        	sta	$16                     ; 0x2016 <textPrint+0x14a>
    68d0: a2 00        	ldx	#$0
    68d2: 86 14        	stx	$14                     ; 0x2014 <textPrint+0x148>
    68d4: a2 00        	ldx	#$0
    68d6: 86 15        	stx	$15                     ; 0x2015 <textPrint+0x149>
    68d8: a6 13        	ldx	$13                     ; 0x2013 <textPrint+0x147>
    68da: e4 15        	cpx	$15                     ; 0x2015 <textPrint+0x149>
    68dc: d0 0d        	bne	$68eb <free+0x11b>
    68de: a6 12        	ldx	$12                     ; 0x2012 <textPrint+0x146>
    68e0: e4 14        	cpx	$14                     ; 0x2014 <textPrint+0x148>
    68e2: d0 07        	bne	$68eb <free+0x11b>
    68e4: a2 01        	ldx	#$1
    68e6: 86 55        	stx	$55                     ; 0x2055 <textPrint+0x189>
    68e8: 4c 42 69     	jmp	$6942 <free+0x172>
    68eb: a0 01        	ldy	#$1
    68ed: b1 12        	lda	($12),y                 ; 0x2012 <textPrint+0x146>
    68ef: a8           	tay
    68f0: a9 fe        	lda	#$fe
    68f2: 32 12        	and	($12)                   ; 0x2012 <textPrint+0x146>
    68f4: 18           	clc
    68f5: 85 60        	sta	$60                     ; 0x2060 <textPrint+0x194>
    68f7: 65 12        	adc	$12                     ; 0x2012 <textPrint+0x146>
    68f9: 85 14        	sta	$14                     ; 0x2014 <textPrint+0x148>
    68fb: 98           	tya
    68fc: 85 5c        	sta	$5c                     ; 0x205c <textPrint+0x190>
    68fe: 65 13        	adc	$13                     ; 0x2013 <textPrint+0x147>
    6900: c5 19        	cmp	$19                     ; 0x2019 <textPrint+0x14d>
    6902: d0 0e        	bne	$6912 <free+0x142>
    6904: a6 14        	ldx	$14                     ; 0x2014 <textPrint+0x148>
    6906: e4 18        	cpx	$18                     ; 0x2018 <textPrint+0x14c>
    6908: d0 08        	bne	$6912 <free+0x142>
    690a: a9 01        	lda	#$1
    690c: 64 14        	stz	$14                     ; 0x2014 <textPrint+0x148>
    690e: 25 55        	and	$55                     ; 0x2055 <textPrint+0x189>
    6910: 80 08        	bra	$691a <free+0x14a>
    6912: 85 15        	sta	$15                     ; 0x2015 <textPrint+0x149>
    6914: a9 01        	lda	#$1
    6916: 32 14        	and	($14)                   ; 0x2014 <textPrint+0x148>
    6918: 64 14        	stz	$14                     ; 0x2014 <textPrint+0x148>
    691a: a6 14        	ldx	$14                     ; 0x2014 <textPrint+0x148>
    691c: d0 03        	bne	$6921 <free+0x151>
    691e: aa           	tax
    691f: f0 31        	beq	$6952 <free+0x182>
    6921: a6 16        	ldx	$16                     ; 0x2016 <textPrint+0x14a>
    6923: 86 5e        	stx	$5e                     ; 0x205e <textPrint+0x192>
    6925: a6 17        	ldx	$17                     ; 0x2017 <textPrint+0x14b>
    6927: 86 5f        	stx	$5f                     ; 0x205f <textPrint+0x193>
    6929: 20 50 04     	jsr	$450 <_ZN12_GLOBAL__N_19FreeChunk6removeEv>
    692c: 18           	clc
    692d: a6 60        	ldx	$60                     ; 0x2060 <textPrint+0x194>
    692f: 8a           	txa
    6930: a6 5f        	ldx	$5f                     ; 0x205f <textPrint+0x193>
    6932: 86 12        	stx	$12                     ; 0x2012 <textPrint+0x146>
    6934: 65 12        	adc	$12                     ; 0x2012 <textPrint+0x146>
    6936: 85 17        	sta	$17                     ; 0x2017 <textPrint+0x14b>
    6938: a5 5c        	lda	$5c                     ; 0x205c <textPrint+0x190>
    693a: a6 5e        	ldx	$5e                     ; 0x205e <textPrint+0x192>
    693c: 86 12        	stx	$12                     ; 0x2012 <textPrint+0x146>
    693e: 65 12        	adc	$12                     ; 0x2012 <textPrint+0x146>
    6940: 85 16        	sta	$16                     ; 0x2016 <textPrint+0x14a>
    6942: a6 5a        	ldx	$5a                     ; 0x205a <textPrint+0x18e>
    6944: 86 12        	stx	$12                     ; 0x2012 <textPrint+0x146>
    6946: a6 5b        	ldx	$5b                     ; 0x205b <textPrint+0x18f>
    6948: 86 13        	stx	$13                     ; 0x2013 <textPrint+0x147>
    694a: a6 16        	ldx	$16                     ; 0x2016 <textPrint+0x14a>
    694c: a5 17        	lda	$17                     ; 0x2017 <textPrint+0x14b>
    694e: 20 1a 03     	jsr	$31a <_ZN12_GLOBAL__N_19FreeChunk6insertEPvj>
    6951: 60           	rts
    6952: b2 12        	lda	($12)                   ; 0x2012 <textPrint+0x146>
    6954: 09 01        	ora	#$1
    6956: 92 12        	sta	($12)                   ; 0x2012 <textPrint+0x146>
    6958: a0 01        	ldy	#$1
    695a: a5 5c        	lda	$5c                     ; 0x205c <textPrint+0x190>
    695c: 91 12        	sta	($12),y                 ; 0x2012 <textPrint+0x146>
    695e: 80 e2        	bra	$6942 <free+0x172>

00006960 <memcpy>:
    6960: a8           	tay
    6961: 8a           	txa
    6962: d0 03        	bne	$6967 <memcpy+0x7>
    6964: 98           	tya
    6965: f0 24        	beq	$698b <memcpy+0x2b>
    6967: a5 12        	lda	$12                     ; 0x2012 <textPrint+0x146>
    6969: 85 16        	sta	$16                     ; 0x2016 <textPrint+0x14a>
    696b: a5 13        	lda	$13                     ; 0x2013 <textPrint+0x147>
    696d: 85 17        	sta	$17                     ; 0x2017 <textPrint+0x14b>
    696f: b2 14        	lda	($14)                   ; 0x2014 <textPrint+0x148>
    6971: 92 16        	sta	($16)                   ; 0x2016 <textPrint+0x14a>
    6973: e6 16        	inc	$16                     ; 0x2016 <textPrint+0x14a>
    6975: d0 02        	bne	$6979 <memcpy+0x19>
    6977: e6 17        	inc	$17                     ; 0x2017 <textPrint+0x14b>
    6979: e6 14        	inc	$14                     ; 0x2014 <textPrint+0x148>
    697b: d0 02        	bne	$697f <memcpy+0x1f>
    697d: e6 15        	inc	$15                     ; 0x2015 <textPrint+0x149>
    697f: 88           	dey
    6980: c0 ff        	cpy	#$ff
    6982: d0 01        	bne	$6985 <memcpy+0x25>
    6984: ca           	dex
    6985: 8a           	txa
    6986: d0 e7        	bne	$696f <memcpy+0xf>
    6988: 98           	tya
    6989: d0 e4        	bne	$696f <memcpy+0xf>
    698b: 60           	rts

0000698c <__memset>:
    698c: a4 14        	ldy	$14                     ; 0x2014 <textPrint+0x148>
    698e: d0 04        	bne	$6994 <__memset+0x8>
    6990: e0 00        	cpx	#$0
    6992: f0 17        	beq	$69ab <__memset+0x1f>
    6994: 92 12        	sta	($12)                   ; 0x2012 <textPrint+0x146>
    6996: e6 12        	inc	$12                     ; 0x2012 <textPrint+0x146>
    6998: d0 02        	bne	$699c <__memset+0x10>
    699a: e6 13        	inc	$13                     ; 0x2013 <textPrint+0x147>
    699c: ca           	dex
    699d: e0 ff        	cpx	#$ff
    699f: d0 02        	bne	$69a3 <__memset+0x17>
    69a1: c6 14        	dec	$14                     ; 0x2014 <textPrint+0x148>
    69a3: a4 14        	ldy	$14                     ; 0x2014 <textPrint+0x148>
    69a5: d0 ed        	bne	$6994 <__memset+0x8>
    69a7: e0 00        	cpx	#$0
    69a9: d0 e9        	bne	$6994 <__memset+0x8>
    69ab: 60           	rts

000069ac <__mulhi3>:
    69ac: a4 13        	ldy	$13                     ; 0x2013 <textPrint+0x147>
    69ae: d0 04        	bne	$69b4 <__mulhi3+0x8>
    69b0: a4 12        	ldy	$12                     ; 0x2012 <textPrint+0x146>
    69b2: f0 25        	beq	$69d9 <__mulhi3+0x2d>
    69b4: 85 14        	sta	$14                     ; 0x2014 <textPrint+0x148>
    69b6: 86 15        	stx	$15                     ; 0x2015 <textPrint+0x149>
    69b8: a0 00        	ldy	#$0
    69ba: 98           	tya
    69bb: 46 13        	lsr	$13                     ; 0x2013 <textPrint+0x147>
    69bd: 66 12        	ror	$12                     ; 0x2012 <textPrint+0x146>
    69bf: 90 09        	bcc	$69ca <__mulhi3+0x1e>
    69c1: aa           	tax
    69c2: 98           	tya
    69c3: 18           	clc
    69c4: 65 14        	adc	$14                     ; 0x2014 <textPrint+0x148>
    69c6: a8           	tay
    69c7: 8a           	txa
    69c8: 65 15        	adc	$15                     ; 0x2015 <textPrint+0x149>
    69ca: 06 14        	asl	$14                     ; 0x2014 <textPrint+0x148>
    69cc: 26 15        	rol	$15                     ; 0x2015 <textPrint+0x149>
    69ce: a6 13        	ldx	$13                     ; 0x2013 <textPrint+0x147>
    69d0: d0 e9        	bne	$69bb <__mulhi3+0xf>
    69d2: a6 12        	ldx	$12                     ; 0x2012 <textPrint+0x146>
    69d4: d0 e5        	bne	$69bb <__mulhi3+0xf>
    69d6: aa           	tax
    69d7: 98           	tya
    69d8: 60           	rts
    69d9: a0 00        	ldy	#$0
    69db: 98           	tya
    69dc: 80 f8        	bra	$69d6 <__mulhi3+0x2a>

000069de <__mulsi3>:
    69de: a4 17        	ldy	$17                     ; 0x2017 <textPrint+0x14b>
    69e0: d0 0f        	bne	$69f1 <__mulsi3+0x13>
    69e2: a4 16        	ldy	$16                     ; 0x2016 <textPrint+0x14a>
    69e4: d0 0b        	bne	$69f1 <__mulsi3+0x13>
    69e6: a4 15        	ldy	$15                     ; 0x2015 <textPrint+0x149>
    69e8: d0 07        	bne	$69f1 <__mulsi3+0x13>
    69ea: a4 14        	ldy	$14                     ; 0x2014 <textPrint+0x148>
    69ec: d0 03        	bne	$69f1 <__mulsi3+0x13>
    69ee: 4c 45 6a     	jmp	$6a45 <__mulsi3+0x67>
    69f1: 85 18        	sta	$18                     ; 0x2018 <textPrint+0x14c>
    69f3: 86 19        	stx	$19                     ; 0x2019 <textPrint+0x14d>
    69f5: a0 00        	ldy	#$0
    69f7: a2 00        	ldx	#$0
    69f9: 64 1a        	stz	$1a                     ; 0x201a <textPrint+0x14e>
    69fb: 98           	tya
    69fc: 46 17        	lsr	$17                     ; 0x2017 <textPrint+0x14b>
    69fe: 66 16        	ror	$16                     ; 0x2016 <textPrint+0x14a>
    6a00: 66 15        	ror	$15                     ; 0x2015 <textPrint+0x149>
    6a02: 66 14        	ror	$14                     ; 0x2014 <textPrint+0x148>
    6a04: 90 15        	bcc	$6a1b <__mulsi3+0x3d>
    6a06: 85 1b        	sta	$1b                     ; 0x201b <textPrint+0x14f>
    6a08: 98           	tya
    6a09: 18           	clc
    6a0a: 65 18        	adc	$18                     ; 0x2018 <textPrint+0x14c>
    6a0c: a8           	tay
    6a0d: 8a           	txa
    6a0e: 65 19        	adc	$19                     ; 0x2019 <textPrint+0x14d>
    6a10: aa           	tax
    6a11: a5 1a        	lda	$1a                     ; 0x201a <textPrint+0x14e>
    6a13: 65 12        	adc	$12                     ; 0x2012 <textPrint+0x146>
    6a15: 85 1a        	sta	$1a                     ; 0x201a <textPrint+0x14e>
    6a17: a5 1b        	lda	$1b                     ; 0x201b <textPrint+0x14f>
    6a19: 65 13        	adc	$13                     ; 0x2013 <textPrint+0x147>
    6a1b: 06 18        	asl	$18                     ; 0x2018 <textPrint+0x14c>
    6a1d: 26 19        	rol	$19                     ; 0x2019 <textPrint+0x14d>
    6a1f: 26 12        	rol	$12                     ; 0x2012 <textPrint+0x146>
    6a21: 26 13        	rol	$13                     ; 0x2013 <textPrint+0x147>
    6a23: e6 17        	inc	$17                     ; 0x2017 <textPrint+0x14b>
    6a25: c6 17        	dec	$17                     ; 0x2017 <textPrint+0x14b>
    6a27: d0 d3        	bne	$69fc <__mulsi3+0x1e>
    6a29: e6 16        	inc	$16                     ; 0x2016 <textPrint+0x14a>
    6a2b: c6 16        	dec	$16                     ; 0x2016 <textPrint+0x14a>
    6a2d: d0 cd        	bne	$69fc <__mulsi3+0x1e>
    6a2f: e6 15        	inc	$15                     ; 0x2015 <textPrint+0x149>
    6a31: c6 15        	dec	$15                     ; 0x2015 <textPrint+0x149>
    6a33: d0 c7        	bne	$69fc <__mulsi3+0x1e>
    6a35: e6 14        	inc	$14                     ; 0x2014 <textPrint+0x148>
    6a37: c6 14        	dec	$14                     ; 0x2014 <textPrint+0x148>
    6a39: d0 c1        	bne	$69fc <__mulsi3+0x1e>
    6a3b: 5a           	phy
    6a3c: a4 1a        	ldy	$1a                     ; 0x201a <textPrint+0x14e>
    6a3e: 84 12        	sty	$12                     ; 0x2012 <textPrint+0x146>
    6a40: 7a           	ply
    6a41: 85 13        	sta	$13                     ; 0x2013 <textPrint+0x147>
    6a43: 98           	tya
    6a44: 60           	rts
    6a45: a0 00        	ldy	#$0
    6a47: a2 00        	ldx	#$0
    6a49: 64 1a        	stz	$1a                     ; 0x201a <textPrint+0x14e>
    6a4b: 98           	tya
    6a4c: 80 ed        	bra	$6a3b <__mulsi3+0x5d>
